   1               		.file	"core.c"
   2               	__SP_H__ = 0x3e
   3               	__SP_L__ = 0x3d
   4               	__SREG__ = 0x3f
   5               	__RAMPZ__ = 0x3b
   6               	__CCP__ = 0x34
   7               	__tmp_reg__ = 0
   8               	__zero_reg__ = 1
   9               		.text
  10               	.Ltext0:
  12               	queue_dequeue_pos:
  13               	.LFB23:
  14               		.file 1 "/home/anaz/blinkyblocks/build/src-bobby/meldinterp-runtime/core.c"
   1:/home/anaz/blinkyblocks/build/src-bobby/meldinterp-runtime/core.c **** 
   2:/home/anaz/blinkyblocks/build/src-bobby/meldinterp-runtime/core.c **** #include "api.h"
   3:/home/anaz/blinkyblocks/build/src-bobby/meldinterp-runtime/core.c **** #include "core.h"
   4:/home/anaz/blinkyblocks/build/src-bobby/meldinterp-runtime/core.c **** #include "model.h"
   5:/home/anaz/blinkyblocks/build/src-bobby/meldinterp-runtime/core.c **** 
   6:/home/anaz/blinkyblocks/build/src-bobby/meldinterp-runtime/core.c **** #include "set_runtime.h"
   7:/home/anaz/blinkyblocks/build/src-bobby/meldinterp-runtime/core.c **** #include "list_runtime.h"
   8:/home/anaz/blinkyblocks/build/src-bobby/meldinterp-runtime/core.c **** #include <stdlib.h>
   9:/home/anaz/blinkyblocks/build/src-bobby/meldinterp-runtime/core.c **** #include <math.h>
  10:/home/anaz/blinkyblocks/build/src-bobby/meldinterp-runtime/core.c **** #include <stdlib.h>
  11:/home/anaz/blinkyblocks/build/src-bobby/meldinterp-runtime/core.c **** #include <string.h>
  12:/home/anaz/blinkyblocks/build/src-bobby/meldinterp-runtime/core.c **** #include "../system/myassert.h"
  13:/home/anaz/blinkyblocks/build/src-bobby/meldinterp-runtime/core.c **** #include <stdio.h>
  14:/home/anaz/blinkyblocks/build/src-bobby/meldinterp-runtime/core.c **** 
  15:/home/anaz/blinkyblocks/build/src-bobby/meldinterp-runtime/core.c **** //#define DEBUG_INSTRS
  16:/home/anaz/blinkyblocks/build/src-bobby/meldinterp-runtime/core.c **** //#define DEBUG_ALLOCS
  17:/home/anaz/blinkyblocks/build/src-bobby/meldinterp-runtime/core.c **** //#define DEBUG_PROVED_TUPLES
  18:/home/anaz/blinkyblocks/build/src-bobby/meldinterp-runtime/core.c **** 
  19:/home/anaz/blinkyblocks/build/src-bobby/meldinterp-runtime/core.c **** static unsigned char **deltas = NULL;
  20:/home/anaz/blinkyblocks/build/src-bobby/meldinterp-runtime/core.c **** int *delta_sizes = NULL;
  21:/home/anaz/blinkyblocks/build/src-bobby/meldinterp-runtime/core.c **** unsigned char *arguments = NULL;
  22:/home/anaz/blinkyblocks/build/src-bobby/meldinterp-runtime/core.c **** tuple_type TYPE_EDGE = -1;
  23:/home/anaz/blinkyblocks/build/src-bobby/meldinterp-runtime/core.c **** tuple_type TYPE_INIT = -1;
  24:/home/anaz/blinkyblocks/build/src-bobby/meldinterp-runtime/core.c **** tuple_type TYPE_COLOCATED = -1;
  25:/home/anaz/blinkyblocks/build/src-bobby/meldinterp-runtime/core.c **** tuple_type TYPE_PROVED = -1;
  26:/home/anaz/blinkyblocks/build/src-bobby/meldinterp-runtime/core.c **** tuple_type TYPE_TERMINATE = -1;
  27:/home/anaz/blinkyblocks/build/src-bobby/meldinterp-runtime/core.c **** 
  28:/home/anaz/blinkyblocks/build/src-bobby/meldinterp-runtime/core.c **** extern persistent_set *persistent;
  29:/home/anaz/blinkyblocks/build/src-bobby/meldinterp-runtime/core.c **** 
  30:/home/anaz/blinkyblocks/build/src-bobby/meldinterp-runtime/core.c **** bool
  31:/home/anaz/blinkyblocks/build/src-bobby/meldinterp-runtime/core.c **** queue_is_empty(tuple_queue *queue)
  32:/home/anaz/blinkyblocks/build/src-bobby/meldinterp-runtime/core.c **** {
  33:/home/anaz/blinkyblocks/build/src-bobby/meldinterp-runtime/core.c ****   return queue->head == NULL;
  34:/home/anaz/blinkyblocks/build/src-bobby/meldinterp-runtime/core.c **** }
  35:/home/anaz/blinkyblocks/build/src-bobby/meldinterp-runtime/core.c **** 
  36:/home/anaz/blinkyblocks/build/src-bobby/meldinterp-runtime/core.c **** void
  37:/home/anaz/blinkyblocks/build/src-bobby/meldinterp-runtime/core.c **** queue_push_tuple(tuple_queue *queue, tuple_entry *entry)
  38:/home/anaz/blinkyblocks/build/src-bobby/meldinterp-runtime/core.c **** {
  39:/home/anaz/blinkyblocks/build/src-bobby/meldinterp-runtime/core.c ****   if(queue->head == NULL)
  40:/home/anaz/blinkyblocks/build/src-bobby/meldinterp-runtime/core.c ****     queue->head = queue->tail = entry;
  41:/home/anaz/blinkyblocks/build/src-bobby/meldinterp-runtime/core.c ****   else {
  42:/home/anaz/blinkyblocks/build/src-bobby/meldinterp-runtime/core.c ****     queue->tail->next = entry;
  43:/home/anaz/blinkyblocks/build/src-bobby/meldinterp-runtime/core.c ****     queue->tail = entry;
  44:/home/anaz/blinkyblocks/build/src-bobby/meldinterp-runtime/core.c ****   }
  45:/home/anaz/blinkyblocks/build/src-bobby/meldinterp-runtime/core.c **** }
  46:/home/anaz/blinkyblocks/build/src-bobby/meldinterp-runtime/core.c **** 
  47:/home/anaz/blinkyblocks/build/src-bobby/meldinterp-runtime/core.c **** tuple_t
  48:/home/anaz/blinkyblocks/build/src-bobby/meldinterp-runtime/core.c **** queue_pop_tuple(tuple_queue *queue)
  49:/home/anaz/blinkyblocks/build/src-bobby/meldinterp-runtime/core.c **** {
  50:/home/anaz/blinkyblocks/build/src-bobby/meldinterp-runtime/core.c ****   tuple_entry *entry = NULL;
  51:/home/anaz/blinkyblocks/build/src-bobby/meldinterp-runtime/core.c ****   
  52:/home/anaz/blinkyblocks/build/src-bobby/meldinterp-runtime/core.c ****   if (queue->head) {
  53:/home/anaz/blinkyblocks/build/src-bobby/meldinterp-runtime/core.c ****     entry = queue->head;
  54:/home/anaz/blinkyblocks/build/src-bobby/meldinterp-runtime/core.c ****     queue->head = queue->head->next;
  55:/home/anaz/blinkyblocks/build/src-bobby/meldinterp-runtime/core.c ****     
  56:/home/anaz/blinkyblocks/build/src-bobby/meldinterp-runtime/core.c ****     if (queue->head == NULL)
  57:/home/anaz/blinkyblocks/build/src-bobby/meldinterp-runtime/core.c ****       queue->tail = NULL;
  58:/home/anaz/blinkyblocks/build/src-bobby/meldinterp-runtime/core.c ****   }
  59:/home/anaz/blinkyblocks/build/src-bobby/meldinterp-runtime/core.c ****   
  60:/home/anaz/blinkyblocks/build/src-bobby/meldinterp-runtime/core.c ****   return entry;
  61:/home/anaz/blinkyblocks/build/src-bobby/meldinterp-runtime/core.c **** }
  62:/home/anaz/blinkyblocks/build/src-bobby/meldinterp-runtime/core.c **** 
  63:/home/anaz/blinkyblocks/build/src-bobby/meldinterp-runtime/core.c **** static tuple_t
  64:/home/anaz/blinkyblocks/build/src-bobby/meldinterp-runtime/core.c **** queue_dequeue_pos(tuple_queue *queue, tuple_entry **pos)
  65:/home/anaz/blinkyblocks/build/src-bobby/meldinterp-runtime/core.c **** {
  15               		.loc 1 65 0
  16               	.LVL0:
  17 0000 CF93      		push r28
  18               	.LCFI0:
  19 0002 DF93      		push r29
  20               	.LCFI1:
  21               	/* prologue: function */
  22               	/* frame size = 0 */
  23               	/* stack size = 2 */
  24               	.L__stack_usage = 2
  25 0004 DC01      		movw r26,r24
  66:/home/anaz/blinkyblocks/build/src-bobby/meldinterp-runtime/core.c ****   tuple_entry *entry = *pos;
  26               		.loc 1 66 0
  27 0006 EB01      		movw r28,r22
  28 0008 E881      		ld r30,Y
  29 000a F981      		ldd r31,Y+1
  30               	.LVL1:
  67:/home/anaz/blinkyblocks/build/src-bobby/meldinterp-runtime/core.c ****   tuple_entry *next = (*pos)->next;
  31               		.loc 1 67 0
  32 000c 8081      		ld r24,Z
  33 000e 9181      		ldd r25,Z+1
  34               	.LVL2:
  68:/home/anaz/blinkyblocks/build/src-bobby/meldinterp-runtime/core.c ****   
  69:/home/anaz/blinkyblocks/build/src-bobby/meldinterp-runtime/core.c ****   if (entry == queue->tail) {
  35               		.loc 1 69 0
  36 0010 1296      		adiw r26,2
  37 0012 2D91      		ld r18,X+
  38 0014 3C91      		ld r19,X
  39 0016 1397      		sbiw r26,2+1
  40 0018 E217      		cp r30,r18
  41 001a F307      		cpc r31,r19
  42 001c 01F4      		brne .L2
  70:/home/anaz/blinkyblocks/build/src-bobby/meldinterp-runtime/core.c ****     if(entry == queue->head)
  43               		.loc 1 70 0
  44 001e 2D91      		ld r18,X+
  45 0020 3C91      		ld r19,X
  46 0022 1197      		sbiw r26,1
  47 0024 E217      		cp r30,r18
  48 0026 F307      		cpc r31,r19
  49 0028 01F4      		brne .L3
  71:/home/anaz/blinkyblocks/build/src-bobby/meldinterp-runtime/core.c ****       queue->tail = NULL;
  50               		.loc 1 71 0
  51 002a 1296      		adiw r26,2
  52 002c 1D92      		st X+,__zero_reg__
  53 002e 1C92      		st X,__zero_reg__
  54 0030 1397      		sbiw r26,2+1
  55 0032 00C0      		rjmp .L2
  56               	.L3:
  72:/home/anaz/blinkyblocks/build/src-bobby/meldinterp-runtime/core.c ****     else
  73:/home/anaz/blinkyblocks/build/src-bobby/meldinterp-runtime/core.c ****       queue->tail = (tuple_entry *)pos; /* previous */
  57               		.loc 1 73 0
  58 0034 1296      		adiw r26,2
  59 0036 6D93      		st X+,r22
  60 0038 7C93      		st X,r23
  61 003a 1397      		sbiw r26,2+1
  62               	.L2:
  74:/home/anaz/blinkyblocks/build/src-bobby/meldinterp-runtime/core.c ****   }
  75:/home/anaz/blinkyblocks/build/src-bobby/meldinterp-runtime/core.c ****   
  76:/home/anaz/blinkyblocks/build/src-bobby/meldinterp-runtime/core.c ****   *pos = next;
  63               		.loc 1 76 0
  64 003c DB01      		movw r26,r22
  65               	.LVL3:
  66 003e 8D93      		st X+,r24
  67 0040 9C93      		st X,r25
  77:/home/anaz/blinkyblocks/build/src-bobby/meldinterp-runtime/core.c ****     
  78:/home/anaz/blinkyblocks/build/src-bobby/meldinterp-runtime/core.c ****   tuple_t tuple = entry->tuple;
  68               		.loc 1 78 0
  69 0042 D481      		ldd r29,Z+4
  70 0044 C581      		ldd r28,Z+5
  71               	.LVL4:
  79:/home/anaz/blinkyblocks/build/src-bobby/meldinterp-runtime/core.c ****   free(entry);
  72               		.loc 1 79 0
  73 0046 CF01      		movw r24,r30
  74               	.LVL5:
  75 0048 0E94 0000 		call free
  76               	.LVL6:
  80:/home/anaz/blinkyblocks/build/src-bobby/meldinterp-runtime/core.c ****   
  81:/home/anaz/blinkyblocks/build/src-bobby/meldinterp-runtime/core.c ****   return tuple;
  82:/home/anaz/blinkyblocks/build/src-bobby/meldinterp-runtime/core.c **** }
  77               		.loc 1 82 0
  78 004c 8D2F      		mov r24,r29
  79 004e 9C2F      		mov r25,r28
  80               	/* epilogue start */
  81 0050 DF91      		pop r29
  82               	.LVL7:
  83 0052 CF91      		pop r28
  84               	.LVL8:
  85 0054 0895      		ret
  86               	.LFE23:
  88               		.section	.rodata.str1.1,"aMS",@progbits,1
  89               	.LC0:
  90 0000 3000      		.string	"0"
  91               	.LC1:
  92 0002 2F68 6F6D 		.string	"/home/anaz/blinkyblocks/build/src-bobby/meldinterp-runtime/core.c"
  92      652F 616E 
  92      617A 2F62 
  92      6C69 6E6B 
  92      7962 6C6F 
  93               		.text
  95               	eval:
  96               	.LFB32:
  83:/home/anaz/blinkyblocks/build/src-bobby/meldinterp-runtime/core.c **** 
  84:/home/anaz/blinkyblocks/build/src-bobby/meldinterp-runtime/core.c **** tuple_entry*
  85:/home/anaz/blinkyblocks/build/src-bobby/meldinterp-runtime/core.c **** queue_enqueue(tuple_queue *queue, tuple_t tuple, record_type isNew)
  86:/home/anaz/blinkyblocks/build/src-bobby/meldinterp-runtime/core.c **** {
  87:/home/anaz/blinkyblocks/build/src-bobby/meldinterp-runtime/core.c ****   tuple_entry *entry = malloc(sizeof(tuple_entry));
  88:/home/anaz/blinkyblocks/build/src-bobby/meldinterp-runtime/core.c ****   
  89:/home/anaz/blinkyblocks/build/src-bobby/meldinterp-runtime/core.c ****   entry->tuple = tuple;
  90:/home/anaz/blinkyblocks/build/src-bobby/meldinterp-runtime/core.c ****   entry->records = isNew;
  91:/home/anaz/blinkyblocks/build/src-bobby/meldinterp-runtime/core.c ****   entry->next = NULL;
  92:/home/anaz/blinkyblocks/build/src-bobby/meldinterp-runtime/core.c ****   
  93:/home/anaz/blinkyblocks/build/src-bobby/meldinterp-runtime/core.c ****   queue_push_tuple(queue, entry);
  94:/home/anaz/blinkyblocks/build/src-bobby/meldinterp-runtime/core.c **** 
  95:/home/anaz/blinkyblocks/build/src-bobby/meldinterp-runtime/core.c ****   return entry;
  96:/home/anaz/blinkyblocks/build/src-bobby/meldinterp-runtime/core.c **** }
  97:/home/anaz/blinkyblocks/build/src-bobby/meldinterp-runtime/core.c **** 
  98:/home/anaz/blinkyblocks/build/src-bobby/meldinterp-runtime/core.c **** tuple_t
  99:/home/anaz/blinkyblocks/build/src-bobby/meldinterp-runtime/core.c **** queue_dequeue(tuple_queue *queue, int *isNew)
 100:/home/anaz/blinkyblocks/build/src-bobby/meldinterp-runtime/core.c **** {
 101:/home/anaz/blinkyblocks/build/src-bobby/meldinterp-runtime/core.c ****   tuple_entry *entry = queue_pop_tuple(queue);
 102:/home/anaz/blinkyblocks/build/src-bobby/meldinterp-runtime/core.c **** 
 103:/home/anaz/blinkyblocks/build/src-bobby/meldinterp-runtime/core.c ****   tuple_t tuple = entry->tuple;
 104:/home/anaz/blinkyblocks/build/src-bobby/meldinterp-runtime/core.c **** 
 105:/home/anaz/blinkyblocks/build/src-bobby/meldinterp-runtime/core.c ****   if(isNew)
 106:/home/anaz/blinkyblocks/build/src-bobby/meldinterp-runtime/core.c ****     *isNew = entry->records.count;
 107:/home/anaz/blinkyblocks/build/src-bobby/meldinterp-runtime/core.c **** 
 108:/home/anaz/blinkyblocks/build/src-bobby/meldinterp-runtime/core.c ****   free(entry);
 109:/home/anaz/blinkyblocks/build/src-bobby/meldinterp-runtime/core.c **** 
 110:/home/anaz/blinkyblocks/build/src-bobby/meldinterp-runtime/core.c ****   return tuple;
 111:/home/anaz/blinkyblocks/build/src-bobby/meldinterp-runtime/core.c **** }
 112:/home/anaz/blinkyblocks/build/src-bobby/meldinterp-runtime/core.c **** 
 113:/home/anaz/blinkyblocks/build/src-bobby/meldinterp-runtime/core.c **** tuple_pentry*
 114:/home/anaz/blinkyblocks/build/src-bobby/meldinterp-runtime/core.c **** p_dequeue(tuple_pqueue *q)
 115:/home/anaz/blinkyblocks/build/src-bobby/meldinterp-runtime/core.c **** {
 116:/home/anaz/blinkyblocks/build/src-bobby/meldinterp-runtime/core.c ****   tuple_pentry *ret = q->queue;
 117:/home/anaz/blinkyblocks/build/src-bobby/meldinterp-runtime/core.c ****   
 118:/home/anaz/blinkyblocks/build/src-bobby/meldinterp-runtime/core.c ****   if(q->queue != NULL)
 119:/home/anaz/blinkyblocks/build/src-bobby/meldinterp-runtime/core.c ****     q->queue = q->queue->next;
 120:/home/anaz/blinkyblocks/build/src-bobby/meldinterp-runtime/core.c ****     
 121:/home/anaz/blinkyblocks/build/src-bobby/meldinterp-runtime/core.c ****   return ret;
 122:/home/anaz/blinkyblocks/build/src-bobby/meldinterp-runtime/core.c **** }
 123:/home/anaz/blinkyblocks/build/src-bobby/meldinterp-runtime/core.c **** 
 124:/home/anaz/blinkyblocks/build/src-bobby/meldinterp-runtime/core.c **** void
 125:/home/anaz/blinkyblocks/build/src-bobby/meldinterp-runtime/core.c **** p_enqueue(tuple_pqueue *queue, meld_int priority, tuple_t tuple,
 126:/home/anaz/blinkyblocks/build/src-bobby/meldinterp-runtime/core.c **** 	  void *rt, record_type isNew)
 127:/home/anaz/blinkyblocks/build/src-bobby/meldinterp-runtime/core.c **** {
 128:/home/anaz/blinkyblocks/build/src-bobby/meldinterp-runtime/core.c ****   tuple_pentry *entry = malloc(sizeof(tuple_pentry));
 129:/home/anaz/blinkyblocks/build/src-bobby/meldinterp-runtime/core.c **** 
 130:/home/anaz/blinkyblocks/build/src-bobby/meldinterp-runtime/core.c ****   entry->tuple = tuple;
 131:/home/anaz/blinkyblocks/build/src-bobby/meldinterp-runtime/core.c ****   entry->records = isNew;
 132:/home/anaz/blinkyblocks/build/src-bobby/meldinterp-runtime/core.c ****   entry->priority = priority;
 133:/home/anaz/blinkyblocks/build/src-bobby/meldinterp-runtime/core.c ****   entry->rt = rt;
 134:/home/anaz/blinkyblocks/build/src-bobby/meldinterp-runtime/core.c **** 
 135:/home/anaz/blinkyblocks/build/src-bobby/meldinterp-runtime/core.c ****   tuple_pentry **spot;
 136:/home/anaz/blinkyblocks/build/src-bobby/meldinterp-runtime/core.c ****   for (spot = &(queue->queue);
 137:/home/anaz/blinkyblocks/build/src-bobby/meldinterp-runtime/core.c ****        *spot != NULL &&
 138:/home/anaz/blinkyblocks/build/src-bobby/meldinterp-runtime/core.c ****          (*spot)->priority < priority;
 139:/home/anaz/blinkyblocks/build/src-bobby/meldinterp-runtime/core.c ****        spot = &((*spot)->next));
 140:/home/anaz/blinkyblocks/build/src-bobby/meldinterp-runtime/core.c **** 
 141:/home/anaz/blinkyblocks/build/src-bobby/meldinterp-runtime/core.c ****   entry->next = *spot;
 142:/home/anaz/blinkyblocks/build/src-bobby/meldinterp-runtime/core.c ****   *spot = entry;
 143:/home/anaz/blinkyblocks/build/src-bobby/meldinterp-runtime/core.c **** }
 144:/home/anaz/blinkyblocks/build/src-bobby/meldinterp-runtime/core.c ****     
 145:/home/anaz/blinkyblocks/build/src-bobby/meldinterp-runtime/core.c **** void
 146:/home/anaz/blinkyblocks/build/src-bobby/meldinterp-runtime/core.c **** init_deltas(void)
 147:/home/anaz/blinkyblocks/build/src-bobby/meldinterp-runtime/core.c **** {
 148:/home/anaz/blinkyblocks/build/src-bobby/meldinterp-runtime/core.c ****   int i;
 149:/home/anaz/blinkyblocks/build/src-bobby/meldinterp-runtime/core.c **** 
 150:/home/anaz/blinkyblocks/build/src-bobby/meldinterp-runtime/core.c ****   deltas = (unsigned char **)malloc(sizeof(unsigned char*)*NUM_TYPES);
 151:/home/anaz/blinkyblocks/build/src-bobby/meldinterp-runtime/core.c ****   delta_sizes = (int *)malloc(sizeof(int)*NUM_TYPES);
 152:/home/anaz/blinkyblocks/build/src-bobby/meldinterp-runtime/core.c **** 
 153:/home/anaz/blinkyblocks/build/src-bobby/meldinterp-runtime/core.c ****   for (i = 0; i < NUM_TYPES; ++i) {
 154:/home/anaz/blinkyblocks/build/src-bobby/meldinterp-runtime/core.c ****     delta_sizes[i] = TYPE_NODELTAS(i);
 155:/home/anaz/blinkyblocks/build/src-bobby/meldinterp-runtime/core.c ****     deltas[i] = (unsigned char*)TYPE_DELTAS(i);
 156:/home/anaz/blinkyblocks/build/src-bobby/meldinterp-runtime/core.c ****   }
 157:/home/anaz/blinkyblocks/build/src-bobby/meldinterp-runtime/core.c **** }
 158:/home/anaz/blinkyblocks/build/src-bobby/meldinterp-runtime/core.c **** 
 159:/home/anaz/blinkyblocks/build/src-bobby/meldinterp-runtime/core.c **** static int type;
 160:/home/anaz/blinkyblocks/build/src-bobby/meldinterp-runtime/core.c **** void
 161:/home/anaz/blinkyblocks/build/src-bobby/meldinterp-runtime/core.c **** init_fields(void)
 162:/home/anaz/blinkyblocks/build/src-bobby/meldinterp-runtime/core.c **** {
 163:/home/anaz/blinkyblocks/build/src-bobby/meldinterp-runtime/core.c ****   size_t total = 2*NUM_TYPES;
 164:/home/anaz/blinkyblocks/build/src-bobby/meldinterp-runtime/core.c ****   int i, j;
 165:/home/anaz/blinkyblocks/build/src-bobby/meldinterp-runtime/core.c ****   
 166:/home/anaz/blinkyblocks/build/src-bobby/meldinterp-runtime/core.c ****   for(i = 0; i < NUM_TYPES; ++i)
 167:/home/anaz/blinkyblocks/build/src-bobby/meldinterp-runtime/core.c ****     total += TYPE_NOARGS(i) * 2;
 168:/home/anaz/blinkyblocks/build/src-bobby/meldinterp-runtime/core.c ****   
 169:/home/anaz/blinkyblocks/build/src-bobby/meldinterp-runtime/core.c ****   arguments = malloc(total);
 170:/home/anaz/blinkyblocks/build/src-bobby/meldinterp-runtime/core.c ****   unsigned char *start = arguments + 2*NUM_TYPES;
 171:/home/anaz/blinkyblocks/build/src-bobby/meldinterp-runtime/core.c ****   unsigned char offset, size;
 172:/home/anaz/blinkyblocks/build/src-bobby/meldinterp-runtime/core.c ****   
 173:/home/anaz/blinkyblocks/build/src-bobby/meldinterp-runtime/core.c ****   for(i = 0; i < NUM_TYPES; ++i) {
 174:/home/anaz/blinkyblocks/build/src-bobby/meldinterp-runtime/core.c ****     arguments[i*2] = start - arguments; /* start */
 175:/home/anaz/blinkyblocks/build/src-bobby/meldinterp-runtime/core.c ****     offset = 0;
 176:/home/anaz/blinkyblocks/build/src-bobby/meldinterp-runtime/core.c ****     
 177:/home/anaz/blinkyblocks/build/src-bobby/meldinterp-runtime/core.c ****     for(j = 0; j < TYPE_NOARGS(i); ++j) {
 178:/home/anaz/blinkyblocks/build/src-bobby/meldinterp-runtime/core.c ****       type = TYPE_ARG_TYPE(i, j);
 179:/home/anaz/blinkyblocks/build/src-bobby/meldinterp-runtime/core.c ****       switch (type) {
 180:/home/anaz/blinkyblocks/build/src-bobby/meldinterp-runtime/core.c **** 
 181:/home/anaz/blinkyblocks/build/src-bobby/meldinterp-runtime/core.c ****       case (int)FIELD_INT:
 182:/home/anaz/blinkyblocks/build/src-bobby/meldinterp-runtime/core.c ****       case (int)FIELD_TYPE:
 183:/home/anaz/blinkyblocks/build/src-bobby/meldinterp-runtime/core.c **** 	size = sizeof(meld_int);
 184:/home/anaz/blinkyblocks/build/src-bobby/meldinterp-runtime/core.c **** 	break;
 185:/home/anaz/blinkyblocks/build/src-bobby/meldinterp-runtime/core.c **** 
 186:/home/anaz/blinkyblocks/build/src-bobby/meldinterp-runtime/core.c ****       case (int)FIELD_FLOAT:
 187:/home/anaz/blinkyblocks/build/src-bobby/meldinterp-runtime/core.c **** 	size = sizeof(meld_float);
 188:/home/anaz/blinkyblocks/build/src-bobby/meldinterp-runtime/core.c **** 	break;
 189:/home/anaz/blinkyblocks/build/src-bobby/meldinterp-runtime/core.c **** 
 190:/home/anaz/blinkyblocks/build/src-bobby/meldinterp-runtime/core.c ****       case (int)FIELD_ADDR:
 191:/home/anaz/blinkyblocks/build/src-bobby/meldinterp-runtime/core.c **** 	size = sizeof(NodeID);
 192:/home/anaz/blinkyblocks/build/src-bobby/meldinterp-runtime/core.c **** 	break;
 193:/home/anaz/blinkyblocks/build/src-bobby/meldinterp-runtime/core.c **** 
 194:/home/anaz/blinkyblocks/build/src-bobby/meldinterp-runtime/core.c ****       case (int)FIELD_LIST_INT:
 195:/home/anaz/blinkyblocks/build/src-bobby/meldinterp-runtime/core.c ****       case (int)FIELD_LIST_FLOAT:
 196:/home/anaz/blinkyblocks/build/src-bobby/meldinterp-runtime/core.c ****       case (int)FIELD_LIST_ADDR:
 197:/home/anaz/blinkyblocks/build/src-bobby/meldinterp-runtime/core.c ****       case (int)FIELD_SET_INT:
 198:/home/anaz/blinkyblocks/build/src-bobby/meldinterp-runtime/core.c ****       case (int)FIELD_SET_FLOAT:
 199:/home/anaz/blinkyblocks/build/src-bobby/meldinterp-runtime/core.c **** 	size = sizeof(void*);
 200:/home/anaz/blinkyblocks/build/src-bobby/meldinterp-runtime/core.c **** 	break;
 201:/home/anaz/blinkyblocks/build/src-bobby/meldinterp-runtime/core.c **** 
 202:/home/anaz/blinkyblocks/build/src-bobby/meldinterp-runtime/core.c ****       default:
 203:/home/anaz/blinkyblocks/build/src-bobby/meldinterp-runtime/core.c **** 	assert(0);
 204:/home/anaz/blinkyblocks/build/src-bobby/meldinterp-runtime/core.c **** 	size = 0;
 205:/home/anaz/blinkyblocks/build/src-bobby/meldinterp-runtime/core.c **** 	break;
 206:/home/anaz/blinkyblocks/build/src-bobby/meldinterp-runtime/core.c ****       }
 207:/home/anaz/blinkyblocks/build/src-bobby/meldinterp-runtime/core.c ****       
 208:/home/anaz/blinkyblocks/build/src-bobby/meldinterp-runtime/core.c ****       start[0] = size; /* argument size */
 209:/home/anaz/blinkyblocks/build/src-bobby/meldinterp-runtime/core.c ****       start[1] = offset; /* argument offset */
 210:/home/anaz/blinkyblocks/build/src-bobby/meldinterp-runtime/core.c ****       
 211:/home/anaz/blinkyblocks/build/src-bobby/meldinterp-runtime/core.c ****       offset += size;
 212:/home/anaz/blinkyblocks/build/src-bobby/meldinterp-runtime/core.c ****       start += 2;
 213:/home/anaz/blinkyblocks/build/src-bobby/meldinterp-runtime/core.c ****     }
 214:/home/anaz/blinkyblocks/build/src-bobby/meldinterp-runtime/core.c ****     
 215:/home/anaz/blinkyblocks/build/src-bobby/meldinterp-runtime/core.c ****     arguments[i*2+1] = offset + TYPE_FIELD_SIZE; /* tuple size */
 216:/home/anaz/blinkyblocks/build/src-bobby/meldinterp-runtime/core.c ****   }
 217:/home/anaz/blinkyblocks/build/src-bobby/meldinterp-runtime/core.c **** }
 218:/home/anaz/blinkyblocks/build/src-bobby/meldinterp-runtime/core.c **** 
 219:/home/anaz/blinkyblocks/build/src-bobby/meldinterp-runtime/core.c **** void init_consts(void)
 220:/home/anaz/blinkyblocks/build/src-bobby/meldinterp-runtime/core.c **** {
 221:/home/anaz/blinkyblocks/build/src-bobby/meldinterp-runtime/core.c ****   tuple_type i;
 222:/home/anaz/blinkyblocks/build/src-bobby/meldinterp-runtime/core.c ****   for (i = 0; i < NUM_TYPES; i++) {
 223:/home/anaz/blinkyblocks/build/src-bobby/meldinterp-runtime/core.c ****     if (strcmp(TYPE_NAME(i), "_init") == 0)
 224:/home/anaz/blinkyblocks/build/src-bobby/meldinterp-runtime/core.c ****       TYPE_INIT = i;
 225:/home/anaz/blinkyblocks/build/src-bobby/meldinterp-runtime/core.c ****     else if(strcmp(TYPE_NAME(i), "edge") == 0)
 226:/home/anaz/blinkyblocks/build/src-bobby/meldinterp-runtime/core.c ****       TYPE_EDGE = i;
 227:/home/anaz/blinkyblocks/build/src-bobby/meldinterp-runtime/core.c ****     else if(strcmp(TYPE_NAME(i), "colocated") == 0)
 228:/home/anaz/blinkyblocks/build/src-bobby/meldinterp-runtime/core.c ****       TYPE_COLOCATED = i;
 229:/home/anaz/blinkyblocks/build/src-bobby/meldinterp-runtime/core.c ****     else if(strcmp(TYPE_NAME(i), "proved") == 0)
 230:/home/anaz/blinkyblocks/build/src-bobby/meldinterp-runtime/core.c ****       TYPE_PROVED = i;
 231:/home/anaz/blinkyblocks/build/src-bobby/meldinterp-runtime/core.c ****     else if(strcmp(TYPE_NAME(i), "terminate") == 0)
 232:/home/anaz/blinkyblocks/build/src-bobby/meldinterp-runtime/core.c ****       TYPE_TERMINATE = i;
 233:/home/anaz/blinkyblocks/build/src-bobby/meldinterp-runtime/core.c ****   }	
 234:/home/anaz/blinkyblocks/build/src-bobby/meldinterp-runtime/core.c **** }
 235:/home/anaz/blinkyblocks/build/src-bobby/meldinterp-runtime/core.c **** 
 236:/home/anaz/blinkyblocks/build/src-bobby/meldinterp-runtime/core.c **** static inline
 237:/home/anaz/blinkyblocks/build/src-bobby/meldinterp-runtime/core.c **** void *eval_dst(const unsigned char value,
 238:/home/anaz/blinkyblocks/build/src-bobby/meldinterp-runtime/core.c **** 	       const unsigned char **pc, Register *reg, size_t *size)
 239:/home/anaz/blinkyblocks/build/src-bobby/meldinterp-runtime/core.c **** {
 240:/home/anaz/blinkyblocks/build/src-bobby/meldinterp-runtime/core.c ****   if (VAL_IS_REG(value)) {
 241:/home/anaz/blinkyblocks/build/src-bobby/meldinterp-runtime/core.c ****     *size = sizeof(Register);
 242:/home/anaz/blinkyblocks/build/src-bobby/meldinterp-runtime/core.c ****     return &(reg)[VAL_REG(value)];
 243:/home/anaz/blinkyblocks/build/src-bobby/meldinterp-runtime/core.c ****   } else if (VAL_IS_FIELD(value)) {
 244:/home/anaz/blinkyblocks/build/src-bobby/meldinterp-runtime/core.c ****     int reg_index = VAL_FIELD_REG(*pc);
 245:/home/anaz/blinkyblocks/build/src-bobby/meldinterp-runtime/core.c ****     int field_num = VAL_FIELD_NUM(*pc);
 246:/home/anaz/blinkyblocks/build/src-bobby/meldinterp-runtime/core.c ****     tuple_t tuple = (tuple_t)MELD_CONVERT_REG_TO_PTR(reg[reg_index]);
 247:/home/anaz/blinkyblocks/build/src-bobby/meldinterp-runtime/core.c ****     tuple_type type = TUPLE_TYPE(tuple);
 248:/home/anaz/blinkyblocks/build/src-bobby/meldinterp-runtime/core.c **** 
 249:/home/anaz/blinkyblocks/build/src-bobby/meldinterp-runtime/core.c ****     *size = TYPE_ARG_SIZE(type, field_num);
 250:/home/anaz/blinkyblocks/build/src-bobby/meldinterp-runtime/core.c **** 
 251:/home/anaz/blinkyblocks/build/src-bobby/meldinterp-runtime/core.c ****     (*pc) += 2;
 252:/home/anaz/blinkyblocks/build/src-bobby/meldinterp-runtime/core.c **** 
 253:/home/anaz/blinkyblocks/build/src-bobby/meldinterp-runtime/core.c ****     return GET_TUPLE_FIELD(tuple, field_num);
 254:/home/anaz/blinkyblocks/build/src-bobby/meldinterp-runtime/core.c ****   } else if (VAL_IS_INT(value)) {
 255:/home/anaz/blinkyblocks/build/src-bobby/meldinterp-runtime/core.c ****     assert(0);
 256:/home/anaz/blinkyblocks/build/src-bobby/meldinterp-runtime/core.c ****   } else if (VAL_IS_FLOAT(value)) {
 257:/home/anaz/blinkyblocks/build/src-bobby/meldinterp-runtime/core.c ****     assert(0);
 258:/home/anaz/blinkyblocks/build/src-bobby/meldinterp-runtime/core.c ****   } else if(VAL_IS_TUPLE(value)) {
 259:/home/anaz/blinkyblocks/build/src-bobby/meldinterp-runtime/core.c ****     assert(0);
 260:/home/anaz/blinkyblocks/build/src-bobby/meldinterp-runtime/core.c ****   } else if(VAL_IS_HOST(value)) {
 261:/home/anaz/blinkyblocks/build/src-bobby/meldinterp-runtime/core.c ****     assert(0);
 262:/home/anaz/blinkyblocks/build/src-bobby/meldinterp-runtime/core.c ****   } else {
 263:/home/anaz/blinkyblocks/build/src-bobby/meldinterp-runtime/core.c ****     assert(0 /* invalid value */ );
 264:/home/anaz/blinkyblocks/build/src-bobby/meldinterp-runtime/core.c ****   }
 265:/home/anaz/blinkyblocks/build/src-bobby/meldinterp-runtime/core.c **** 
 266:/home/anaz/blinkyblocks/build/src-bobby/meldinterp-runtime/core.c ****   assert(0);
 267:/home/anaz/blinkyblocks/build/src-bobby/meldinterp-runtime/core.c ****   return NULL;
 268:/home/anaz/blinkyblocks/build/src-bobby/meldinterp-runtime/core.c **** }
 269:/home/anaz/blinkyblocks/build/src-bobby/meldinterp-runtime/core.c **** 
 270:/home/anaz/blinkyblocks/build/src-bobby/meldinterp-runtime/core.c **** static inline
 271:/home/anaz/blinkyblocks/build/src-bobby/meldinterp-runtime/core.c **** void* eval(const unsigned char value, tuple_t tuple,
 272:/home/anaz/blinkyblocks/build/src-bobby/meldinterp-runtime/core.c **** 	   const unsigned char **pc, Register *reg)
 273:/home/anaz/blinkyblocks/build/src-bobby/meldinterp-runtime/core.c **** {
  97               		.loc 1 273 0
  98               	.LVL9:
  99 0056 CF93      		push r28
 100               	.LCFI2:
 101 0058 DF93      		push r29
 102               	.LCFI3:
 103               	/* prologue: function */
 104               	/* frame size = 0 */
 105               	/* stack size = 2 */
 106               	.L__stack_usage = 2
 107 005a FA01      		movw r30,r20
 274:/home/anaz/blinkyblocks/build/src-bobby/meldinterp-runtime/core.c ****   if (VAL_IS_REG(value)) {
 108               		.loc 1 274 0
 109 005c 85FF      		sbrs r24,5
 110 005e 00C0      		rjmp .L5
 275:/home/anaz/blinkyblocks/build/src-bobby/meldinterp-runtime/core.c ****     return (void*)&(reg[VAL_REG(value)]);
 111               		.loc 1 275 0
 112 0060 8F71      		andi r24,lo8(31)
 113               	.LVL10:
 114 0062 44E0      		ldi r20,lo8(4)
 115               	.LVL11:
 116 0064 849F      		mul r24,r20
 117 0066 200D      		add r18,r0
 118 0068 311D      		adc r19,r1
 119 006a 1124      		clr __zero_reg__
 120               	.LVL12:
 121 006c 00C0      		rjmp .L6
 122               	.LVL13:
 123               	.L5:
 276:/home/anaz/blinkyblocks/build/src-bobby/meldinterp-runtime/core.c ****   }
 277:/home/anaz/blinkyblocks/build/src-bobby/meldinterp-runtime/core.c **** 
 278:/home/anaz/blinkyblocks/build/src-bobby/meldinterp-runtime/core.c ****   switch(value) {
 124               		.loc 1 278 0
 125 006e 8230      		cpi r24,lo8(2)
 126 0070 01F0      		breq .L10
 127 0072 00F4      		brsh .L13
 128 0074 8823      		tst r24
 129 0076 01F0      		breq .L9
 130 0078 8130      		cpi r24,lo8(1)
 131 007a 01F0      		breq .+2
 132 007c 00C0      		rjmp .L7
 133 007e 00C0      		rjmp .L9
 134               	.L13:
 135 0080 8430      		cpi r24,lo8(4)
 136 0082 01F0      		breq .L10
 137 0084 00F0      		brlo .L11
 138 0086 8F31      		cpi r24,lo8(31)
 139 0088 01F4      		brne .L7
 140 008a 00C0      		rjmp .L14
 141               	.L11:
 279:/home/anaz/blinkyblocks/build/src-bobby/meldinterp-runtime/core.c ****   case VALUE_TYPE_FLOAT: {
 280:/home/anaz/blinkyblocks/build/src-bobby/meldinterp-runtime/core.c ****     void *ret = (void *)(*pc);
 281:/home/anaz/blinkyblocks/build/src-bobby/meldinterp-runtime/core.c ****     *pc = *pc + sizeof(meld_float);
 282:/home/anaz/blinkyblocks/build/src-bobby/meldinterp-runtime/core.c ****     return ret;
 283:/home/anaz/blinkyblocks/build/src-bobby/meldinterp-runtime/core.c ****     break;
 284:/home/anaz/blinkyblocks/build/src-bobby/meldinterp-runtime/core.c ****   }
 285:/home/anaz/blinkyblocks/build/src-bobby/meldinterp-runtime/core.c **** 
 286:/home/anaz/blinkyblocks/build/src-bobby/meldinterp-runtime/core.c ****   case VALUE_TYPE_INT: {
 287:/home/anaz/blinkyblocks/build/src-bobby/meldinterp-runtime/core.c ****     void *ret = (void *)(*pc);
 288:/home/anaz/blinkyblocks/build/src-bobby/meldinterp-runtime/core.c ****     *pc = *pc + sizeof(meld_int);
 289:/home/anaz/blinkyblocks/build/src-bobby/meldinterp-runtime/core.c ****     return ret;
 290:/home/anaz/blinkyblocks/build/src-bobby/meldinterp-runtime/core.c ****     break;
 291:/home/anaz/blinkyblocks/build/src-bobby/meldinterp-runtime/core.c ****   }
 292:/home/anaz/blinkyblocks/build/src-bobby/meldinterp-runtime/core.c **** 
 293:/home/anaz/blinkyblocks/build/src-bobby/meldinterp-runtime/core.c ****   case VALUE_TYPE_HOST: {
 294:/home/anaz/blinkyblocks/build/src-bobby/meldinterp-runtime/core.c ****     return (void*)EVAL_HOST;
 142               		.loc 1 294 0
 143 008c 20E0      		ldi r18,lo8(blockId)
 144 008e 30E0      		ldi r19,hi8(blockId)
 145               	.LVL14:
 146 0090 00C0      		rjmp .L6
 147               	.LVL15:
 148               	.L9:
 149               	.LBB106:
 287:/home/anaz/blinkyblocks/build/src-bobby/meldinterp-runtime/core.c ****     void *ret = (void *)(*pc);
 150               		.loc 1 287 0
 151 0092 2081      		ld r18,Z
 152 0094 3181      		ldd r19,Z+1
 153               	.LVL16:
 288:/home/anaz/blinkyblocks/build/src-bobby/meldinterp-runtime/core.c ****     *pc = *pc + sizeof(meld_int);
 154               		.loc 1 288 0
 155 0096 C901      		movw r24,r18
 156               	.LVL17:
 157 0098 0496      		adiw r24,4
 158 009a 8083      		st Z,r24
 159 009c 9183      		std Z+1,r25
 289:/home/anaz/blinkyblocks/build/src-bobby/meldinterp-runtime/core.c ****     return ret;
 160               		.loc 1 289 0
 161 009e 00C0      		rjmp .L6
 162               	.LVL18:
 163               	.L10:
 164               	.LBE106:
 165               	.LBB107:
 166               	.LBB108:
 167               	.LBB109:
 295:/home/anaz/blinkyblocks/build/src-bobby/meldinterp-runtime/core.c ****     break;
 296:/home/anaz/blinkyblocks/build/src-bobby/meldinterp-runtime/core.c ****   }
 297:/home/anaz/blinkyblocks/build/src-bobby/meldinterp-runtime/core.c **** 
 298:/home/anaz/blinkyblocks/build/src-bobby/meldinterp-runtime/core.c ****   case VALUE_TYPE_REVERSE: {
 299:/home/anaz/blinkyblocks/build/src-bobby/meldinterp-runtime/core.c ****     const int reg_index = VAL_FIELD_REG(*pc);
 300:/home/anaz/blinkyblocks/build/src-bobby/meldinterp-runtime/core.c ****     const int field_num = VAL_FIELD_NUM(*pc);
 301:/home/anaz/blinkyblocks/build/src-bobby/meldinterp-runtime/core.c ****     tuple_t tuple = (tuple_t)MELD_CONVERT_REG_TO_PTR(reg[reg_index]);
 302:/home/anaz/blinkyblocks/build/src-bobby/meldinterp-runtime/core.c **** 
 303:/home/anaz/blinkyblocks/build/src-bobby/meldinterp-runtime/core.c ****     (*pc) += 2;
 304:/home/anaz/blinkyblocks/build/src-bobby/meldinterp-runtime/core.c **** 
 305:/home/anaz/blinkyblocks/build/src-bobby/meldinterp-runtime/core.c **** #ifdef PARALLEL_MACHINE
 306:/home/anaz/blinkyblocks/build/src-bobby/meldinterp-runtime/core.c ****     List *route = MELD_LIST(GET_TUPLE_FIELD(tuple, field_num));
 307:/home/anaz/blinkyblocks/build/src-bobby/meldinterp-runtime/core.c ****     List *clone = list_copy(route);
 308:/home/anaz/blinkyblocks/build/src-bobby/meldinterp-runtime/core.c **** 
 309:/home/anaz/blinkyblocks/build/src-bobby/meldinterp-runtime/core.c ****     list_reverse_first(clone);
 310:/home/anaz/blinkyblocks/build/src-bobby/meldinterp-runtime/core.c **** 
 311:/home/anaz/blinkyblocks/build/src-bobby/meldinterp-runtime/core.c ****     thread_self()->reverse_list = clone;
 312:/home/anaz/blinkyblocks/build/src-bobby/meldinterp-runtime/core.c ****     
 313:/home/anaz/blinkyblocks/build/src-bobby/meldinterp-runtime/core.c ****     return (void *)&thread_self()->reverse_list;
 314:/home/anaz/blinkyblocks/build/src-bobby/meldinterp-runtime/core.c **** #else
 315:/home/anaz/blinkyblocks/build/src-bobby/meldinterp-runtime/core.c ****     return GET_TUPLE_FIELD(tuple, field_num);
 316:/home/anaz/blinkyblocks/build/src-bobby/meldinterp-runtime/core.c **** #endif /* PARALLEL_MACHINE */
 317:/home/anaz/blinkyblocks/build/src-bobby/meldinterp-runtime/core.c ****     break;
 318:/home/anaz/blinkyblocks/build/src-bobby/meldinterp-runtime/core.c ****   }
 319:/home/anaz/blinkyblocks/build/src-bobby/meldinterp-runtime/core.c **** 
 320:/home/anaz/blinkyblocks/build/src-bobby/meldinterp-runtime/core.c ****   case VALUE_TYPE_TUPLE: {
 321:/home/anaz/blinkyblocks/build/src-bobby/meldinterp-runtime/core.c ****     return (void*)tuple;
 322:/home/anaz/blinkyblocks/build/src-bobby/meldinterp-runtime/core.c ****     break;
 323:/home/anaz/blinkyblocks/build/src-bobby/meldinterp-runtime/core.c ****   }
 324:/home/anaz/blinkyblocks/build/src-bobby/meldinterp-runtime/core.c **** 
 325:/home/anaz/blinkyblocks/build/src-bobby/meldinterp-runtime/core.c ****   case VALUE_TYPE_FIELD: {
 326:/home/anaz/blinkyblocks/build/src-bobby/meldinterp-runtime/core.c ****     const unsigned char reg_index = VAL_FIELD_REG(*pc);
 168               		.loc 1 326 0
 169 00a0 A081      		ld r26,Z
 170 00a2 B181      		ldd r27,Z+1
 171 00a4 1196      		adiw r26,1
 172 00a6 8C91      		ld r24,X
 173 00a8 1197      		sbiw r26,1
 174               	.LVL19:
 175 00aa 8F71      		andi r24,lo8(31)
 176               	.LVL20:
 327:/home/anaz/blinkyblocks/build/src-bobby/meldinterp-runtime/core.c ****     const unsigned char field_num = VAL_FIELD_NUM(*pc);
 177               		.loc 1 327 0
 178 00ac 9C91      		ld r25,X
 179               	.LVL21:
 328:/home/anaz/blinkyblocks/build/src-bobby/meldinterp-runtime/core.c ****     tuple_t tuple = (tuple_t)MELD_CONVERT_REG_TO_PTR(reg[reg_index]);
 180               		.loc 1 328 0
 181 00ae E901      		movw r28,r18
 182 00b0 44E0      		ldi r20,lo8(4)
 183               	.LVL22:
 184 00b2 849F      		mul r24,r20
 185 00b4 C00D      		add r28,r0
 186 00b6 D11D      		adc r29,r1
 187 00b8 1124      		clr __zero_reg__
 188 00ba 0990      		ld __tmp_reg__,Y+
 189 00bc D881      		ld r29,Y
 190 00be C02D      		mov r28,__tmp_reg__
 191               	.LVL23:
 329:/home/anaz/blinkyblocks/build/src-bobby/meldinterp-runtime/core.c ****     (*pc) += 2;
 192               		.loc 1 329 0
 193 00c0 1296      		adiw r26,2
 194 00c2 A083      		st Z,r26
 195 00c4 B183      		std Z+1,r27
 330:/home/anaz/blinkyblocks/build/src-bobby/meldinterp-runtime/core.c **** 
 331:/home/anaz/blinkyblocks/build/src-bobby/meldinterp-runtime/core.c **** #ifdef DEBUG_INSTRS
 332:/home/anaz/blinkyblocks/build/src-bobby/meldinterp-runtime/core.c ****     printf ("tuple = ");
 333:/home/anaz/blinkyblocks/build/src-bobby/meldinterp-runtime/core.c ****     tuple_print(tuple, stdout);
 334:/home/anaz/blinkyblocks/build/src-bobby/meldinterp-runtime/core.c ****     printf ("\n");
 335:/home/anaz/blinkyblocks/build/src-bobby/meldinterp-runtime/core.c ****     printf ("tuple[%d] = %lx\n", field_num, MELD_INT(GET_TUPLE_FIELD(tuple, field_num)));
 336:/home/anaz/blinkyblocks/build/src-bobby/meldinterp-runtime/core.c **** #endif
 337:/home/anaz/blinkyblocks/build/src-bobby/meldinterp-runtime/core.c **** 
 338:/home/anaz/blinkyblocks/build/src-bobby/meldinterp-runtime/core.c ****     return GET_TUPLE_FIELD(tuple, field_num);
 196               		.loc 1 338 0
 197 00c6 2091 0000 		lds r18,arguments
 198               	.LVL24:
 199 00ca 8091 0000 		lds r24,arguments+1
 200               	.LVL25:
 201 00ce 3881      		ld r19,Y
 202 00d0 E22F      		mov r30,r18
 203               	.LVL26:
 204 00d2 F82F      		mov r31,r24
 205 00d4 E30F      		add r30,r19
 206 00d6 F11D      		adc r31,__zero_reg__
 207 00d8 E30F      		add r30,r19
 208 00da F11D      		adc r31,__zero_reg__
 209 00dc 3081      		ld r19,Z
 210 00de E22F      		mov r30,r18
 211 00e0 F82F      		mov r31,r24
 212 00e2 E90F      		add r30,r25
 213 00e4 F11D      		adc r31,__zero_reg__
 214 00e6 E90F      		add r30,r25
 215 00e8 F11D      		adc r31,__zero_reg__
 216 00ea E30F      		add r30,r19
 217 00ec F11D      		adc r31,__zero_reg__
 218 00ee 2181      		ldd r18,Z+1
 219 00f0 30E0      		ldi r19,0
 220 00f2 2F5F      		subi r18,-1
 221 00f4 3F4F      		sbci r19,-1
 222 00f6 2C0F      		add r18,r28
 223 00f8 3D1F      		adc r19,r29
 224 00fa 00C0      		rjmp .L6
 225               	.LVL27:
 226               	.L7:
 227               	.LBE109:
 228               	.LBE108:
 229               	.LBE107:
 339:/home/anaz/blinkyblocks/build/src-bobby/meldinterp-runtime/core.c ****     break;
 340:/home/anaz/blinkyblocks/build/src-bobby/meldinterp-runtime/core.c ****   }
 341:/home/anaz/blinkyblocks/build/src-bobby/meldinterp-runtime/core.c ****   }    
 342:/home/anaz/blinkyblocks/build/src-bobby/meldinterp-runtime/core.c **** 
 343:/home/anaz/blinkyblocks/build/src-bobby/meldinterp-runtime/core.c ****   assert(0);
 230               		.loc 1 343 0
 231 00fc 40E0      		ldi r20,lo8(.LC0)
 232 00fe 50E0      		ldi r21,hi8(.LC0)
 233               	.LVL28:
 234 0100 67E5      		ldi r22,lo8(87)
 235 0102 71E0      		ldi r23,lo8(1)
 236               	.LVL29:
 237 0104 80E0      		ldi r24,lo8(.LC1)
 238 0106 90E0      		ldi r25,hi8(.LC1)
 239               	.LVL30:
 240 0108 0E94 0000 		call __myassert
 241               	.LVL31:
 344:/home/anaz/blinkyblocks/build/src-bobby/meldinterp-runtime/core.c ****   return NULL;
 242               		.loc 1 344 0
 243 010c 20E0      		ldi r18,0
 244 010e 30E0      		ldi r19,0
 245 0110 00C0      		rjmp .L6
 246               	.LVL32:
 247               	.L14:
 321:/home/anaz/blinkyblocks/build/src-bobby/meldinterp-runtime/core.c ****     return (void*)tuple;
 248               		.loc 1 321 0
 249 0112 9B01      		movw r18,r22
 250               	.LVL33:
 251               	.L6:
 345:/home/anaz/blinkyblocks/build/src-bobby/meldinterp-runtime/core.c **** }
 252               		.loc 1 345 0
 253 0114 C901      		movw r24,r18
 254               	/* epilogue start */
 255 0116 DF91      		pop r29
 256 0118 CF91      		pop r28
 257 011a 0895      		ret
 258               	.LFE32:
 261               	aggregate_free:
 262               	.LFB36:
 346:/home/anaz/blinkyblocks/build/src-bobby/meldinterp-runtime/core.c **** 
 347:/home/anaz/blinkyblocks/build/src-bobby/meldinterp-runtime/core.c **** static inline
 348:/home/anaz/blinkyblocks/build/src-bobby/meldinterp-runtime/core.c **** bool aggregate_accumulate(int agg_type, void *acc, void *obj, int count)
 349:/home/anaz/blinkyblocks/build/src-bobby/meldinterp-runtime/core.c **** {
 350:/home/anaz/blinkyblocks/build/src-bobby/meldinterp-runtime/core.c ****   switch (agg_type) {
 351:/home/anaz/blinkyblocks/build/src-bobby/meldinterp-runtime/core.c ****   case AGG_SET_UNION_INT: {
 352:/home/anaz/blinkyblocks/build/src-bobby/meldinterp-runtime/core.c ****     Set *set = MELD_SET(acc);
 353:/home/anaz/blinkyblocks/build/src-bobby/meldinterp-runtime/core.c ****     set_int_insert(set, MELD_INT(obj));
 354:/home/anaz/blinkyblocks/build/src-bobby/meldinterp-runtime/core.c ****     set_print(set);
 355:/home/anaz/blinkyblocks/build/src-bobby/meldinterp-runtime/core.c ****     return false;
 356:/home/anaz/blinkyblocks/build/src-bobby/meldinterp-runtime/core.c ****   }
 357:/home/anaz/blinkyblocks/build/src-bobby/meldinterp-runtime/core.c ****   case AGG_SET_UNION_FLOAT: {
 358:/home/anaz/blinkyblocks/build/src-bobby/meldinterp-runtime/core.c ****     Set *set = MELD_SET(acc);
 359:/home/anaz/blinkyblocks/build/src-bobby/meldinterp-runtime/core.c ****     set_float_insert(set, MELD_FLOAT(obj));
 360:/home/anaz/blinkyblocks/build/src-bobby/meldinterp-runtime/core.c ****     set_print(set);
 361:/home/anaz/blinkyblocks/build/src-bobby/meldinterp-runtime/core.c ****     return false;
 362:/home/anaz/blinkyblocks/build/src-bobby/meldinterp-runtime/core.c ****   }
 363:/home/anaz/blinkyblocks/build/src-bobby/meldinterp-runtime/core.c **** 
 364:/home/anaz/blinkyblocks/build/src-bobby/meldinterp-runtime/core.c ****   case AGG_FIRST:
 365:/home/anaz/blinkyblocks/build/src-bobby/meldinterp-runtime/core.c ****     return false;
 366:/home/anaz/blinkyblocks/build/src-bobby/meldinterp-runtime/core.c **** 
 367:/home/anaz/blinkyblocks/build/src-bobby/meldinterp-runtime/core.c ****   case AGG_MAX_INT:
 368:/home/anaz/blinkyblocks/build/src-bobby/meldinterp-runtime/core.c ****     if (MELD_INT(obj) > MELD_INT(acc)) {
 369:/home/anaz/blinkyblocks/build/src-bobby/meldinterp-runtime/core.c ****       MELD_INT(acc) = MELD_INT(obj);
 370:/home/anaz/blinkyblocks/build/src-bobby/meldinterp-runtime/core.c ****       return true;
 371:/home/anaz/blinkyblocks/build/src-bobby/meldinterp-runtime/core.c ****     } else
 372:/home/anaz/blinkyblocks/build/src-bobby/meldinterp-runtime/core.c ****       return false;
 373:/home/anaz/blinkyblocks/build/src-bobby/meldinterp-runtime/core.c **** 
 374:/home/anaz/blinkyblocks/build/src-bobby/meldinterp-runtime/core.c ****   case AGG_MIN_INT:
 375:/home/anaz/blinkyblocks/build/src-bobby/meldinterp-runtime/core.c ****     if (MELD_INT(obj) < MELD_INT(acc)) {
 376:/home/anaz/blinkyblocks/build/src-bobby/meldinterp-runtime/core.c ****       MELD_INT(acc) = MELD_INT(obj);
 377:/home/anaz/blinkyblocks/build/src-bobby/meldinterp-runtime/core.c ****       return true;
 378:/home/anaz/blinkyblocks/build/src-bobby/meldinterp-runtime/core.c ****     } else
 379:/home/anaz/blinkyblocks/build/src-bobby/meldinterp-runtime/core.c ****       return false;
 380:/home/anaz/blinkyblocks/build/src-bobby/meldinterp-runtime/core.c **** 		
 381:/home/anaz/blinkyblocks/build/src-bobby/meldinterp-runtime/core.c ****   case AGG_SUM_INT:
 382:/home/anaz/blinkyblocks/build/src-bobby/meldinterp-runtime/core.c ****     MELD_INT(acc) += MELD_INT(obj) * count;
 383:/home/anaz/blinkyblocks/build/src-bobby/meldinterp-runtime/core.c ****     return false;
 384:/home/anaz/blinkyblocks/build/src-bobby/meldinterp-runtime/core.c **** 			
 385:/home/anaz/blinkyblocks/build/src-bobby/meldinterp-runtime/core.c ****   case AGG_MAX_FLOAT:
 386:/home/anaz/blinkyblocks/build/src-bobby/meldinterp-runtime/core.c ****     if(MELD_FLOAT(obj) > MELD_FLOAT(acc)) {
 387:/home/anaz/blinkyblocks/build/src-bobby/meldinterp-runtime/core.c ****       MELD_FLOAT(acc) = MELD_FLOAT(obj);
 388:/home/anaz/blinkyblocks/build/src-bobby/meldinterp-runtime/core.c ****       return true;
 389:/home/anaz/blinkyblocks/build/src-bobby/meldinterp-runtime/core.c ****     } else
 390:/home/anaz/blinkyblocks/build/src-bobby/meldinterp-runtime/core.c ****       return false;
 391:/home/anaz/blinkyblocks/build/src-bobby/meldinterp-runtime/core.c ****     
 392:/home/anaz/blinkyblocks/build/src-bobby/meldinterp-runtime/core.c ****   case AGG_MIN_FLOAT:
 393:/home/anaz/blinkyblocks/build/src-bobby/meldinterp-runtime/core.c ****     if(MELD_FLOAT(obj) < MELD_FLOAT(acc)) {
 394:/home/anaz/blinkyblocks/build/src-bobby/meldinterp-runtime/core.c ****       MELD_FLOAT(acc) = MELD_FLOAT(obj);
 395:/home/anaz/blinkyblocks/build/src-bobby/meldinterp-runtime/core.c ****       return true;
 396:/home/anaz/blinkyblocks/build/src-bobby/meldinterp-runtime/core.c ****     } else
 397:/home/anaz/blinkyblocks/build/src-bobby/meldinterp-runtime/core.c ****       return false;
 398:/home/anaz/blinkyblocks/build/src-bobby/meldinterp-runtime/core.c ****     
 399:/home/anaz/blinkyblocks/build/src-bobby/meldinterp-runtime/core.c ****   case AGG_SUM_FLOAT:
 400:/home/anaz/blinkyblocks/build/src-bobby/meldinterp-runtime/core.c ****     MELD_FLOAT(acc) += MELD_FLOAT(obj) * (meld_float)count;
 401:/home/anaz/blinkyblocks/build/src-bobby/meldinterp-runtime/core.c ****     return false;
 402:/home/anaz/blinkyblocks/build/src-bobby/meldinterp-runtime/core.c **** 
 403:/home/anaz/blinkyblocks/build/src-bobby/meldinterp-runtime/core.c ****   case AGG_SUM_LIST_INT: {
 404:/home/anaz/blinkyblocks/build/src-bobby/meldinterp-runtime/core.c ****     List *result_list = MELD_LIST(acc);
 405:/home/anaz/blinkyblocks/build/src-bobby/meldinterp-runtime/core.c ****     List *other_list = MELD_LIST(obj);
 406:/home/anaz/blinkyblocks/build/src-bobby/meldinterp-runtime/core.c **** 
 407:/home/anaz/blinkyblocks/build/src-bobby/meldinterp-runtime/core.c ****     if(list_total(result_list) != list_total(other_list)) {
 408:/home/anaz/blinkyblocks/build/src-bobby/meldinterp-runtime/core.c ****       fprintf(stderr, "lists differ in size for accumulator AGG_SUM_LIST_INT:"
 409:/home/anaz/blinkyblocks/build/src-bobby/meldinterp-runtime/core.c **** 	      " %d vs %d\n", list_total(result_list), list_total(other_list));
 410:/home/anaz/blinkyblocks/build/src-bobby/meldinterp-runtime/core.c ****       exit(1);
 411:/home/anaz/blinkyblocks/build/src-bobby/meldinterp-runtime/core.c ****     }
 412:/home/anaz/blinkyblocks/build/src-bobby/meldinterp-runtime/core.c **** 
 413:/home/anaz/blinkyblocks/build/src-bobby/meldinterp-runtime/core.c ****     list_iterator it_result = list_get_iterator(result_list);
 414:/home/anaz/blinkyblocks/build/src-bobby/meldinterp-runtime/core.c ****     list_iterator it_other = list_get_iterator(other_list);
 415:/home/anaz/blinkyblocks/build/src-bobby/meldinterp-runtime/core.c **** 
 416:/home/anaz/blinkyblocks/build/src-bobby/meldinterp-runtime/core.c ****     while(list_iterator_has_next(it_result)) {
 417:/home/anaz/blinkyblocks/build/src-bobby/meldinterp-runtime/core.c ****       list_iterator_int(it_result) += list_iterator_int(it_other) * (meld_int)count;
 418:/home/anaz/blinkyblocks/build/src-bobby/meldinterp-runtime/core.c **** 
 419:/home/anaz/blinkyblocks/build/src-bobby/meldinterp-runtime/core.c ****       it_other = list_iterator_next(it_other);
 420:/home/anaz/blinkyblocks/build/src-bobby/meldinterp-runtime/core.c ****       it_result = list_iterator_next(it_result);
 421:/home/anaz/blinkyblocks/build/src-bobby/meldinterp-runtime/core.c ****     }
 422:/home/anaz/blinkyblocks/build/src-bobby/meldinterp-runtime/core.c **** 			
 423:/home/anaz/blinkyblocks/build/src-bobby/meldinterp-runtime/core.c ****     return false;
 424:/home/anaz/blinkyblocks/build/src-bobby/meldinterp-runtime/core.c ****   }
 425:/home/anaz/blinkyblocks/build/src-bobby/meldinterp-runtime/core.c **** 	  
 426:/home/anaz/blinkyblocks/build/src-bobby/meldinterp-runtime/core.c ****   case AGG_SUM_LIST_FLOAT: {
 427:/home/anaz/blinkyblocks/build/src-bobby/meldinterp-runtime/core.c ****     List *result_list = MELD_LIST(acc);
 428:/home/anaz/blinkyblocks/build/src-bobby/meldinterp-runtime/core.c ****     List *other_list = MELD_LIST(obj);
 429:/home/anaz/blinkyblocks/build/src-bobby/meldinterp-runtime/core.c **** 
 430:/home/anaz/blinkyblocks/build/src-bobby/meldinterp-runtime/core.c ****     if(list_total(result_list) != list_total(other_list)) {
 431:/home/anaz/blinkyblocks/build/src-bobby/meldinterp-runtime/core.c ****       fprintf(stderr, "lists differ in size for accumulator AGG_SUM_LIST_FLOAT: "
 432:/home/anaz/blinkyblocks/build/src-bobby/meldinterp-runtime/core.c **** 	      "%d vs %d\n", list_total(result_list), list_total(other_list));
 433:/home/anaz/blinkyblocks/build/src-bobby/meldinterp-runtime/core.c ****       exit(1);
 434:/home/anaz/blinkyblocks/build/src-bobby/meldinterp-runtime/core.c ****     }
 435:/home/anaz/blinkyblocks/build/src-bobby/meldinterp-runtime/core.c **** 
 436:/home/anaz/blinkyblocks/build/src-bobby/meldinterp-runtime/core.c ****     list_iterator it_result = list_get_iterator(result_list);
 437:/home/anaz/blinkyblocks/build/src-bobby/meldinterp-runtime/core.c ****     list_iterator it_other = list_get_iterator(other_list);
 438:/home/anaz/blinkyblocks/build/src-bobby/meldinterp-runtime/core.c **** 
 439:/home/anaz/blinkyblocks/build/src-bobby/meldinterp-runtime/core.c ****     while(list_iterator_has_next(it_result)) {
 440:/home/anaz/blinkyblocks/build/src-bobby/meldinterp-runtime/core.c ****       list_iterator_float(it_result) += list_iterator_float(it_other) * (meld_float)count;
 441:/home/anaz/blinkyblocks/build/src-bobby/meldinterp-runtime/core.c **** 
 442:/home/anaz/blinkyblocks/build/src-bobby/meldinterp-runtime/core.c ****       it_result = list_iterator_next(it_result);
 443:/home/anaz/blinkyblocks/build/src-bobby/meldinterp-runtime/core.c ****       it_other = list_iterator_next(it_other);
 444:/home/anaz/blinkyblocks/build/src-bobby/meldinterp-runtime/core.c ****     }
 445:/home/anaz/blinkyblocks/build/src-bobby/meldinterp-runtime/core.c **** 			
 446:/home/anaz/blinkyblocks/build/src-bobby/meldinterp-runtime/core.c ****     return false;
 447:/home/anaz/blinkyblocks/build/src-bobby/meldinterp-runtime/core.c ****   }
 448:/home/anaz/blinkyblocks/build/src-bobby/meldinterp-runtime/core.c ****   }
 449:/home/anaz/blinkyblocks/build/src-bobby/meldinterp-runtime/core.c **** 
 450:/home/anaz/blinkyblocks/build/src-bobby/meldinterp-runtime/core.c ****   assert(0);
 451:/home/anaz/blinkyblocks/build/src-bobby/meldinterp-runtime/core.c ****   while(1);
 452:/home/anaz/blinkyblocks/build/src-bobby/meldinterp-runtime/core.c **** }
 453:/home/anaz/blinkyblocks/build/src-bobby/meldinterp-runtime/core.c **** 
 454:/home/anaz/blinkyblocks/build/src-bobby/meldinterp-runtime/core.c **** static inline bool
 455:/home/anaz/blinkyblocks/build/src-bobby/meldinterp-runtime/core.c **** aggregate_changed(int agg_type, void *v1, void *v2)
 456:/home/anaz/blinkyblocks/build/src-bobby/meldinterp-runtime/core.c **** {
 457:/home/anaz/blinkyblocks/build/src-bobby/meldinterp-runtime/core.c ****   switch(agg_type) {
 458:/home/anaz/blinkyblocks/build/src-bobby/meldinterp-runtime/core.c ****   case AGG_FIRST:
 459:/home/anaz/blinkyblocks/build/src-bobby/meldinterp-runtime/core.c ****     return false;
 460:/home/anaz/blinkyblocks/build/src-bobby/meldinterp-runtime/core.c **** 
 461:/home/anaz/blinkyblocks/build/src-bobby/meldinterp-runtime/core.c ****   case AGG_MIN_INT:
 462:/home/anaz/blinkyblocks/build/src-bobby/meldinterp-runtime/core.c ****   case AGG_MAX_INT:
 463:/home/anaz/blinkyblocks/build/src-bobby/meldinterp-runtime/core.c ****   case AGG_SUM_INT:
 464:/home/anaz/blinkyblocks/build/src-bobby/meldinterp-runtime/core.c ****     return MELD_INT(v1) != MELD_INT(v2);
 465:/home/anaz/blinkyblocks/build/src-bobby/meldinterp-runtime/core.c ****     
 466:/home/anaz/blinkyblocks/build/src-bobby/meldinterp-runtime/core.c ****   case AGG_MIN_FLOAT:
 467:/home/anaz/blinkyblocks/build/src-bobby/meldinterp-runtime/core.c ****   case AGG_MAX_FLOAT:
 468:/home/anaz/blinkyblocks/build/src-bobby/meldinterp-runtime/core.c ****   case AGG_SUM_FLOAT:
 469:/home/anaz/blinkyblocks/build/src-bobby/meldinterp-runtime/core.c ****     return MELD_FLOAT(v1) != MELD_FLOAT(v2);
 470:/home/anaz/blinkyblocks/build/src-bobby/meldinterp-runtime/core.c **** 
 471:/home/anaz/blinkyblocks/build/src-bobby/meldinterp-runtime/core.c ****   case AGG_SET_UNION_INT:
 472:/home/anaz/blinkyblocks/build/src-bobby/meldinterp-runtime/core.c ****   case AGG_SET_UNION_FLOAT: {
 473:/home/anaz/blinkyblocks/build/src-bobby/meldinterp-runtime/core.c ****     Set *setOld = MELD_SET(v1);
 474:/home/anaz/blinkyblocks/build/src-bobby/meldinterp-runtime/core.c ****     Set *setNew = MELD_SET(v2);
 475:/home/anaz/blinkyblocks/build/src-bobby/meldinterp-runtime/core.c **** 
 476:/home/anaz/blinkyblocks/build/src-bobby/meldinterp-runtime/core.c ****     if(!set_equal(setOld, setNew))
 477:/home/anaz/blinkyblocks/build/src-bobby/meldinterp-runtime/core.c ****       return true;
 478:/home/anaz/blinkyblocks/build/src-bobby/meldinterp-runtime/core.c **** 
 479:/home/anaz/blinkyblocks/build/src-bobby/meldinterp-runtime/core.c ****     /* delete new set union */
 480:/home/anaz/blinkyblocks/build/src-bobby/meldinterp-runtime/core.c ****     set_delete(setNew);
 481:/home/anaz/blinkyblocks/build/src-bobby/meldinterp-runtime/core.c ****     return false;
 482:/home/anaz/blinkyblocks/build/src-bobby/meldinterp-runtime/core.c ****   }
 483:/home/anaz/blinkyblocks/build/src-bobby/meldinterp-runtime/core.c ****     break;
 484:/home/anaz/blinkyblocks/build/src-bobby/meldinterp-runtime/core.c **** 
 485:/home/anaz/blinkyblocks/build/src-bobby/meldinterp-runtime/core.c ****   case AGG_SUM_LIST_INT:
 486:/home/anaz/blinkyblocks/build/src-bobby/meldinterp-runtime/core.c ****   case AGG_SUM_LIST_FLOAT: {
 487:/home/anaz/blinkyblocks/build/src-bobby/meldinterp-runtime/core.c ****     List *listOld = MELD_LIST(v1);
 488:/home/anaz/blinkyblocks/build/src-bobby/meldinterp-runtime/core.c ****     List *listNew = MELD_LIST(v2);
 489:/home/anaz/blinkyblocks/build/src-bobby/meldinterp-runtime/core.c **** 
 490:/home/anaz/blinkyblocks/build/src-bobby/meldinterp-runtime/core.c ****     if(!list_equal(listOld, listNew))
 491:/home/anaz/blinkyblocks/build/src-bobby/meldinterp-runtime/core.c ****       return true;
 492:/home/anaz/blinkyblocks/build/src-bobby/meldinterp-runtime/core.c **** 
 493:/home/anaz/blinkyblocks/build/src-bobby/meldinterp-runtime/core.c ****     /* delete new list */
 494:/home/anaz/blinkyblocks/build/src-bobby/meldinterp-runtime/core.c ****     list_delete(listNew);
 495:/home/anaz/blinkyblocks/build/src-bobby/meldinterp-runtime/core.c ****     return false;
 496:/home/anaz/blinkyblocks/build/src-bobby/meldinterp-runtime/core.c ****   }
 497:/home/anaz/blinkyblocks/build/src-bobby/meldinterp-runtime/core.c ****     break;
 498:/home/anaz/blinkyblocks/build/src-bobby/meldinterp-runtime/core.c **** 
 499:/home/anaz/blinkyblocks/build/src-bobby/meldinterp-runtime/core.c ****   default:
 500:/home/anaz/blinkyblocks/build/src-bobby/meldinterp-runtime/core.c ****     assert(0);
 501:/home/anaz/blinkyblocks/build/src-bobby/meldinterp-runtime/core.c ****     return true;
 502:/home/anaz/blinkyblocks/build/src-bobby/meldinterp-runtime/core.c ****   }
 503:/home/anaz/blinkyblocks/build/src-bobby/meldinterp-runtime/core.c **** 
 504:/home/anaz/blinkyblocks/build/src-bobby/meldinterp-runtime/core.c ****   assert(0);
 505:/home/anaz/blinkyblocks/build/src-bobby/meldinterp-runtime/core.c ****   while(1);
 506:/home/anaz/blinkyblocks/build/src-bobby/meldinterp-runtime/core.c **** }
 507:/home/anaz/blinkyblocks/build/src-bobby/meldinterp-runtime/core.c **** 
 508:/home/anaz/blinkyblocks/build/src-bobby/meldinterp-runtime/core.c **** static inline void
 509:/home/anaz/blinkyblocks/build/src-bobby/meldinterp-runtime/core.c **** aggregate_seed(int agg_type, void *acc, void *start, int count, size_t size)
 510:/home/anaz/blinkyblocks/build/src-bobby/meldinterp-runtime/core.c **** {
 511:/home/anaz/blinkyblocks/build/src-bobby/meldinterp-runtime/core.c ****   switch(agg_type) {
 512:/home/anaz/blinkyblocks/build/src-bobby/meldinterp-runtime/core.c ****   case AGG_FIRST:
 513:/home/anaz/blinkyblocks/build/src-bobby/meldinterp-runtime/core.c ****     memcpy(acc, start, size);
 514:/home/anaz/blinkyblocks/build/src-bobby/meldinterp-runtime/core.c ****     return;
 515:/home/anaz/blinkyblocks/build/src-bobby/meldinterp-runtime/core.c ****   case AGG_MIN_INT:
 516:/home/anaz/blinkyblocks/build/src-bobby/meldinterp-runtime/core.c ****   case AGG_MAX_INT:
 517:/home/anaz/blinkyblocks/build/src-bobby/meldinterp-runtime/core.c ****     MELD_INT(acc) = MELD_INT(start);
 518:/home/anaz/blinkyblocks/build/src-bobby/meldinterp-runtime/core.c ****     return;
 519:/home/anaz/blinkyblocks/build/src-bobby/meldinterp-runtime/core.c ****   case AGG_SUM_INT:
 520:/home/anaz/blinkyblocks/build/src-bobby/meldinterp-runtime/core.c ****     MELD_INT(acc) = MELD_INT(start) * count;
 521:/home/anaz/blinkyblocks/build/src-bobby/meldinterp-runtime/core.c ****     return;
 522:/home/anaz/blinkyblocks/build/src-bobby/meldinterp-runtime/core.c ****   case AGG_MIN_FLOAT:
 523:/home/anaz/blinkyblocks/build/src-bobby/meldinterp-runtime/core.c ****   case AGG_MAX_FLOAT:
 524:/home/anaz/blinkyblocks/build/src-bobby/meldinterp-runtime/core.c ****     MELD_FLOAT(acc) = MELD_FLOAT(start);
 525:/home/anaz/blinkyblocks/build/src-bobby/meldinterp-runtime/core.c ****     return;
 526:/home/anaz/blinkyblocks/build/src-bobby/meldinterp-runtime/core.c ****   case AGG_SUM_FLOAT:
 527:/home/anaz/blinkyblocks/build/src-bobby/meldinterp-runtime/core.c ****     MELD_FLOAT(acc) = MELD_FLOAT(start) * count;
 528:/home/anaz/blinkyblocks/build/src-bobby/meldinterp-runtime/core.c ****     return;
 529:/home/anaz/blinkyblocks/build/src-bobby/meldinterp-runtime/core.c ****   case AGG_SET_UNION_INT: {
 530:/home/anaz/blinkyblocks/build/src-bobby/meldinterp-runtime/core.c ****     Set *set = set_int_create();
 531:/home/anaz/blinkyblocks/build/src-bobby/meldinterp-runtime/core.c ****     set_int_insert(set, MELD_INT(start));
 532:/home/anaz/blinkyblocks/build/src-bobby/meldinterp-runtime/core.c ****     set_print(set);
 533:/home/anaz/blinkyblocks/build/src-bobby/meldinterp-runtime/core.c ****     MELD_SET(acc) = set;
 534:/home/anaz/blinkyblocks/build/src-bobby/meldinterp-runtime/core.c ****     return;
 535:/home/anaz/blinkyblocks/build/src-bobby/meldinterp-runtime/core.c ****   }
 536:/home/anaz/blinkyblocks/build/src-bobby/meldinterp-runtime/core.c ****   case AGG_SET_UNION_FLOAT: {
 537:/home/anaz/blinkyblocks/build/src-bobby/meldinterp-runtime/core.c ****     Set *set = set_float_create();
 538:/home/anaz/blinkyblocks/build/src-bobby/meldinterp-runtime/core.c ****     set_float_insert(set, MELD_FLOAT(start));
 539:/home/anaz/blinkyblocks/build/src-bobby/meldinterp-runtime/core.c ****     set_print(set);
 540:/home/anaz/blinkyblocks/build/src-bobby/meldinterp-runtime/core.c ****     MELD_SET(acc) = set;
 541:/home/anaz/blinkyblocks/build/src-bobby/meldinterp-runtime/core.c ****     return;
 542:/home/anaz/blinkyblocks/build/src-bobby/meldinterp-runtime/core.c ****   }
 543:/home/anaz/blinkyblocks/build/src-bobby/meldinterp-runtime/core.c ****   case AGG_SUM_LIST_INT: {
 544:/home/anaz/blinkyblocks/build/src-bobby/meldinterp-runtime/core.c ****     List *result_list = list_int_create();
 545:/home/anaz/blinkyblocks/build/src-bobby/meldinterp-runtime/core.c ****     List *start_list = MELD_LIST(start);
 546:/home/anaz/blinkyblocks/build/src-bobby/meldinterp-runtime/core.c **** 
 547:/home/anaz/blinkyblocks/build/src-bobby/meldinterp-runtime/core.c ****     /* add values to result_list */
 548:/home/anaz/blinkyblocks/build/src-bobby/meldinterp-runtime/core.c ****     list_iterator it;
 549:/home/anaz/blinkyblocks/build/src-bobby/meldinterp-runtime/core.c ****     for(it = list_get_iterator(start_list); list_iterator_has_next(it);
 550:/home/anaz/blinkyblocks/build/src-bobby/meldinterp-runtime/core.c **** 	it = list_iterator_next(it))
 551:/home/anaz/blinkyblocks/build/src-bobby/meldinterp-runtime/core.c ****       {
 552:/home/anaz/blinkyblocks/build/src-bobby/meldinterp-runtime/core.c **** 	meld_int total = list_iterator_int(it) * (meld_int)count;
 553:/home/anaz/blinkyblocks/build/src-bobby/meldinterp-runtime/core.c **** 	list_int_push_tail(result_list, total);
 554:/home/anaz/blinkyblocks/build/src-bobby/meldinterp-runtime/core.c ****       }
 555:/home/anaz/blinkyblocks/build/src-bobby/meldinterp-runtime/core.c **** 
 556:/home/anaz/blinkyblocks/build/src-bobby/meldinterp-runtime/core.c ****     MELD_LIST(acc) = result_list;
 557:/home/anaz/blinkyblocks/build/src-bobby/meldinterp-runtime/core.c ****     return;
 558:/home/anaz/blinkyblocks/build/src-bobby/meldinterp-runtime/core.c ****   }
 559:/home/anaz/blinkyblocks/build/src-bobby/meldinterp-runtime/core.c ****   case AGG_SUM_LIST_FLOAT: {
 560:/home/anaz/blinkyblocks/build/src-bobby/meldinterp-runtime/core.c ****     List *result_list = list_float_create();
 561:/home/anaz/blinkyblocks/build/src-bobby/meldinterp-runtime/core.c ****     List *start_list = MELD_LIST(start);
 562:/home/anaz/blinkyblocks/build/src-bobby/meldinterp-runtime/core.c **** 
 563:/home/anaz/blinkyblocks/build/src-bobby/meldinterp-runtime/core.c ****     /* add values to result_list */
 564:/home/anaz/blinkyblocks/build/src-bobby/meldinterp-runtime/core.c ****     list_iterator it;
 565:/home/anaz/blinkyblocks/build/src-bobby/meldinterp-runtime/core.c ****     for(it = list_get_iterator(start_list); list_iterator_has_next(it);
 566:/home/anaz/blinkyblocks/build/src-bobby/meldinterp-runtime/core.c **** 	it = list_iterator_next(it))
 567:/home/anaz/blinkyblocks/build/src-bobby/meldinterp-runtime/core.c ****       {
 568:/home/anaz/blinkyblocks/build/src-bobby/meldinterp-runtime/core.c **** 	meld_float total = list_iterator_float(it) * (meld_float)count;
 569:/home/anaz/blinkyblocks/build/src-bobby/meldinterp-runtime/core.c **** 	list_float_push_tail(result_list, total);
 570:/home/anaz/blinkyblocks/build/src-bobby/meldinterp-runtime/core.c ****       }
 571:/home/anaz/blinkyblocks/build/src-bobby/meldinterp-runtime/core.c **** 
 572:/home/anaz/blinkyblocks/build/src-bobby/meldinterp-runtime/core.c ****     MELD_LIST(acc) = result_list;
 573:/home/anaz/blinkyblocks/build/src-bobby/meldinterp-runtime/core.c ****     return;
 574:/home/anaz/blinkyblocks/build/src-bobby/meldinterp-runtime/core.c ****   }
 575:/home/anaz/blinkyblocks/build/src-bobby/meldinterp-runtime/core.c ****   }
 576:/home/anaz/blinkyblocks/build/src-bobby/meldinterp-runtime/core.c **** 
 577:/home/anaz/blinkyblocks/build/src-bobby/meldinterp-runtime/core.c ****   assert(0);
 578:/home/anaz/blinkyblocks/build/src-bobby/meldinterp-runtime/core.c ****   while(1);
 579:/home/anaz/blinkyblocks/build/src-bobby/meldinterp-runtime/core.c **** }
 580:/home/anaz/blinkyblocks/build/src-bobby/meldinterp-runtime/core.c **** 
 581:/home/anaz/blinkyblocks/build/src-bobby/meldinterp-runtime/core.c **** static inline void
 582:/home/anaz/blinkyblocks/build/src-bobby/meldinterp-runtime/core.c **** aggregate_free(tuple_t tuple, unsigned char field_aggregate,
 583:/home/anaz/blinkyblocks/build/src-bobby/meldinterp-runtime/core.c **** 	       unsigned char type_aggregate)
 584:/home/anaz/blinkyblocks/build/src-bobby/meldinterp-runtime/core.c **** {
 263               		.loc 1 584 0
 264               	.LVL34:
 265               	/* prologue: function */
 266               	/* frame size = 0 */
 267               	/* stack size = 0 */
 268               	.L__stack_usage = 0
 585:/home/anaz/blinkyblocks/build/src-bobby/meldinterp-runtime/core.c ****   switch(type_aggregate) {
 269               		.loc 1 585 0
 270 011c 4A30      		cpi r20,lo8(10)
 271 011e 00F4      		brsh .L20
 272 0120 4830      		cpi r20,lo8(8)
 273 0122 00F4      		brsh .L18
 274 0124 4130      		cpi r20,lo8(1)
 275 0126 00F0      		brlo .L16
 276 0128 0895      		ret
 277               	.L20:
 278 012a 4C30      		cpi r20,lo8(12)
 279 012c 00F4      		brsh .L16
 280 012e 00C0      		rjmp .L22
 281               	.L18:
 282               	.LVL35:
 283               	.LBB112:
 284               	.LBB113:
 586:/home/anaz/blinkyblocks/build/src-bobby/meldinterp-runtime/core.c ****   case AGG_FIRST:
 587:/home/anaz/blinkyblocks/build/src-bobby/meldinterp-runtime/core.c ****   case AGG_MIN_INT:
 588:/home/anaz/blinkyblocks/build/src-bobby/meldinterp-runtime/core.c ****   case AGG_MAX_INT:
 589:/home/anaz/blinkyblocks/build/src-bobby/meldinterp-runtime/core.c ****   case AGG_SUM_INT:
 590:/home/anaz/blinkyblocks/build/src-bobby/meldinterp-runtime/core.c ****   case AGG_MIN_FLOAT:
 591:/home/anaz/blinkyblocks/build/src-bobby/meldinterp-runtime/core.c ****   case AGG_MAX_FLOAT:
 592:/home/anaz/blinkyblocks/build/src-bobby/meldinterp-runtime/core.c ****   case AGG_SUM_FLOAT:
 593:/home/anaz/blinkyblocks/build/src-bobby/meldinterp-runtime/core.c ****     /* nothing to do */
 594:/home/anaz/blinkyblocks/build/src-bobby/meldinterp-runtime/core.c ****     break;
 595:/home/anaz/blinkyblocks/build/src-bobby/meldinterp-runtime/core.c **** 
 596:/home/anaz/blinkyblocks/build/src-bobby/meldinterp-runtime/core.c ****   case AGG_SET_UNION_INT:
 597:/home/anaz/blinkyblocks/build/src-bobby/meldinterp-runtime/core.c ****   case AGG_SET_UNION_FLOAT:
 598:/home/anaz/blinkyblocks/build/src-bobby/meldinterp-runtime/core.c ****     set_delete(MELD_SET(GET_TUPLE_FIELD(tuple, field_aggregate)));
 285               		.loc 1 598 0
 286 0130 3091 0000 		lds r19,arguments
 287 0134 2091 0000 		lds r18,arguments+1
 288 0138 FC01      		movw r30,r24
 289 013a 4081      		ld r20,Z
 290               	.LVL36:
 291 013c E32F      		mov r30,r19
 292 013e F22F      		mov r31,r18
 293 0140 E40F      		add r30,r20
 294 0142 F11D      		adc r31,__zero_reg__
 295 0144 E40F      		add r30,r20
 296 0146 F11D      		adc r31,__zero_reg__
 297 0148 4081      		ld r20,Z
 298 014a E32F      		mov r30,r19
 299 014c F22F      		mov r31,r18
 300 014e E60F      		add r30,r22
 301 0150 F11D      		adc r31,__zero_reg__
 302 0152 E60F      		add r30,r22
 303 0154 F11D      		adc r31,__zero_reg__
 304 0156 E40F      		add r30,r20
 305 0158 F11D      		adc r31,__zero_reg__
 306 015a 2181      		ldd r18,Z+1
 307 015c FC01      		movw r30,r24
 308 015e E20F      		add r30,r18
 309 0160 F11D      		adc r31,__zero_reg__
 310 0162 8181      		ldd r24,Z+1
 311 0164 9281      		ldd r25,Z+2
 312               	.LVL37:
 313 0166 0C94 0000 		jmp set_delete
 314               	.LVL38:
 315               	.L22:
 316               	.LBE113:
 317               	.LBE112:
 599:/home/anaz/blinkyblocks/build/src-bobby/meldinterp-runtime/core.c ****     break;
 600:/home/anaz/blinkyblocks/build/src-bobby/meldinterp-runtime/core.c **** 
 601:/home/anaz/blinkyblocks/build/src-bobby/meldinterp-runtime/core.c ****   case AGG_SUM_LIST_INT:
 602:/home/anaz/blinkyblocks/build/src-bobby/meldinterp-runtime/core.c ****   case AGG_SUM_LIST_FLOAT:
 603:/home/anaz/blinkyblocks/build/src-bobby/meldinterp-runtime/core.c ****     list_delete(MELD_LIST(GET_TUPLE_FIELD(tuple, field_aggregate)));
 318               		.loc 1 603 0
 319 016a 3091 0000 		lds r19,arguments
 320 016e 2091 0000 		lds r18,arguments+1
 321 0172 FC01      		movw r30,r24
 322 0174 4081      		ld r20,Z
 323               	.LVL39:
 324 0176 E32F      		mov r30,r19
 325 0178 F22F      		mov r31,r18
 326 017a E40F      		add r30,r20
 327 017c F11D      		adc r31,__zero_reg__
 328 017e E40F      		add r30,r20
 329 0180 F11D      		adc r31,__zero_reg__
 330 0182 4081      		ld r20,Z
 331 0184 E32F      		mov r30,r19
 332 0186 F22F      		mov r31,r18
 333 0188 E60F      		add r30,r22
 334 018a F11D      		adc r31,__zero_reg__
 335 018c E60F      		add r30,r22
 336 018e F11D      		adc r31,__zero_reg__
 337 0190 E40F      		add r30,r20
 338 0192 F11D      		adc r31,__zero_reg__
 339 0194 2181      		ldd r18,Z+1
 340 0196 FC01      		movw r30,r24
 341 0198 E20F      		add r30,r18
 342 019a F11D      		adc r31,__zero_reg__
 343 019c 8181      		ldd r24,Z+1
 344 019e 9281      		ldd r25,Z+2
 345               	.LVL40:
 346 01a0 0C94 0000 		jmp list_delete
 347               	.LVL41:
 348               	.L16:
 604:/home/anaz/blinkyblocks/build/src-bobby/meldinterp-runtime/core.c ****     break;
 605:/home/anaz/blinkyblocks/build/src-bobby/meldinterp-runtime/core.c **** 
 606:/home/anaz/blinkyblocks/build/src-bobby/meldinterp-runtime/core.c ****   default:
 607:/home/anaz/blinkyblocks/build/src-bobby/meldinterp-runtime/core.c ****     assert(0);
 349               		.loc 1 607 0
 350 01a4 40E0      		ldi r20,lo8(.LC0)
 351 01a6 50E0      		ldi r21,hi8(.LC0)
 352               	.LVL42:
 353 01a8 6FE5      		ldi r22,lo8(95)
 354 01aa 72E0      		ldi r23,lo8(2)
 355               	.LVL43:
 356 01ac 80E0      		ldi r24,lo8(.LC1)
 357 01ae 90E0      		ldi r25,hi8(.LC1)
 358               	.LVL44:
 359 01b0 0C94 0000 		jmp __myassert
 360               	.LVL45:
 361               	.LFE36:
 363               	.global	queue_is_empty
 365               	queue_is_empty:
 366               	.LFB20:
  32:/home/anaz/blinkyblocks/build/src-bobby/meldinterp-runtime/core.c **** {
 367               		.loc 1 32 0
 368               	.LVL46:
 369               	/* prologue: function */
 370               	/* frame size = 0 */
 371               	/* stack size = 0 */
 372               	.L__stack_usage = 0
 373 01b4 FC01      		movw r30,r24
  33:/home/anaz/blinkyblocks/build/src-bobby/meldinterp-runtime/core.c ****   return queue->head == NULL;
 374               		.loc 1 33 0
 375 01b6 81E0      		ldi r24,lo8(1)
 376               	.LVL47:
 377 01b8 2081      		ld r18,Z
 378 01ba 3181      		ldd r19,Z+1
 379 01bc 232B      		or r18,r19
 380 01be 01F0      		breq .L24
 381 01c0 80E0      		ldi r24,0
 382               	.L24:
  34:/home/anaz/blinkyblocks/build/src-bobby/meldinterp-runtime/core.c **** }
 383               		.loc 1 34 0
 384 01c2 0895      		ret
 385               	.LFE20:
 387               	.global	queue_push_tuple
 389               	queue_push_tuple:
 390               	.LFB21:
  38:/home/anaz/blinkyblocks/build/src-bobby/meldinterp-runtime/core.c **** {
 391               		.loc 1 38 0
 392               	.LVL48:
 393               	/* prologue: function */
 394               	/* frame size = 0 */
 395               	/* stack size = 0 */
 396               	.L__stack_usage = 0
 397 01c4 FC01      		movw r30,r24
  39:/home/anaz/blinkyblocks/build/src-bobby/meldinterp-runtime/core.c ****   if(queue->head == NULL)
 398               		.loc 1 39 0
 399 01c6 8081      		ld r24,Z
 400 01c8 9181      		ldd r25,Z+1
 401               	.LVL49:
 402 01ca 892B      		or r24,r25
 403 01cc 01F4      		brne .L29
  40:/home/anaz/blinkyblocks/build/src-bobby/meldinterp-runtime/core.c ****     queue->head = queue->tail = entry;
 404               		.loc 1 40 0
 405 01ce 6283      		std Z+2,r22
 406 01d0 7383      		std Z+3,r23
 407 01d2 6083      		st Z,r22
 408 01d4 7183      		std Z+1,r23
 409 01d6 0895      		ret
 410               	.L29:
  42:/home/anaz/blinkyblocks/build/src-bobby/meldinterp-runtime/core.c ****     queue->tail->next = entry;
 411               		.loc 1 42 0
 412 01d8 A281      		ldd r26,Z+2
 413 01da B381      		ldd r27,Z+3
 414 01dc 6D93      		st X+,r22
 415 01de 7C93      		st X,r23
  43:/home/anaz/blinkyblocks/build/src-bobby/meldinterp-runtime/core.c ****     queue->tail = entry;
 416               		.loc 1 43 0
 417 01e0 6283      		std Z+2,r22
 418 01e2 7383      		std Z+3,r23
 419 01e4 0895      		ret
 420               	.LFE21:
 422               	.global	queue_pop_tuple
 424               	queue_pop_tuple:
 425               	.LFB22:
  49:/home/anaz/blinkyblocks/build/src-bobby/meldinterp-runtime/core.c **** {
 426               		.loc 1 49 0
 427               	.LVL50:
 428               	/* prologue: function */
 429               	/* frame size = 0 */
 430               	/* stack size = 0 */
 431               	.L__stack_usage = 0
 432 01e6 DC01      		movw r26,r24
 433               	.LVL51:
  52:/home/anaz/blinkyblocks/build/src-bobby/meldinterp-runtime/core.c ****   if (queue->head) {
 434               		.loc 1 52 0
 435 01e8 ED91      		ld r30,X+
 436 01ea FC91      		ld r31,X
 437 01ec 1197      		sbiw r26,1
 438 01ee 3097      		sbiw r30,0
 439 01f0 01F0      		breq .L32
 440               	.LVL52:
  54:/home/anaz/blinkyblocks/build/src-bobby/meldinterp-runtime/core.c ****     queue->head = queue->head->next;
 441               		.loc 1 54 0
 442 01f2 8081      		ld r24,Z
 443 01f4 9181      		ldd r25,Z+1
 444               	.LVL53:
 445 01f6 8D93      		st X+,r24
 446 01f8 9C93      		st X,r25
 447 01fa 1197      		sbiw r26,1
  56:/home/anaz/blinkyblocks/build/src-bobby/meldinterp-runtime/core.c ****     if (queue->head == NULL)
 448               		.loc 1 56 0
 449 01fc 892B      		or r24,r25
 450 01fe 01F4      		brne .L32
  57:/home/anaz/blinkyblocks/build/src-bobby/meldinterp-runtime/core.c ****       queue->tail = NULL;
 451               		.loc 1 57 0
 452 0200 1296      		adiw r26,2
 453 0202 1D92      		st X+,__zero_reg__
 454 0204 1C92      		st X,__zero_reg__
 455 0206 1397      		sbiw r26,2+1
 456               	.LVL54:
 457               	.L32:
  61:/home/anaz/blinkyblocks/build/src-bobby/meldinterp-runtime/core.c **** }
 458               		.loc 1 61 0
 459 0208 CF01      		movw r24,r30
 460 020a 0895      		ret
 461               	.LFE22:
 463               	.global	queue_enqueue
 465               	queue_enqueue:
 466               	.LFB24:
  86:/home/anaz/blinkyblocks/build/src-bobby/meldinterp-runtime/core.c **** {
 467               		.loc 1 86 0
 468               	.LVL55:
 469 020c BF92      		push r11
 470               	.LCFI4:
 471 020e CF92      		push r12
 472               	.LCFI5:
 473 0210 DF92      		push r13
 474               	.LCFI6:
 475 0212 EF92      		push r14
 476               	.LCFI7:
 477 0214 FF92      		push r15
 478               	.LCFI8:
 479 0216 0F93      		push r16
 480               	.LCFI9:
 481 0218 1F93      		push r17
 482               	.LCFI10:
 483 021a CF93      		push r28
 484               	.LCFI11:
 485 021c DF93      		push r29
 486               	.LCFI12:
 487               	/* prologue: function */
 488               	/* frame size = 0 */
 489               	/* stack size = 9 */
 490               	.L__stack_usage = 9
 491 021e 8C01      		movw r16,r24
 492 0220 6B01      		movw r12,r22
 493 0222 7A01      		movw r14,r20
  87:/home/anaz/blinkyblocks/build/src-bobby/meldinterp-runtime/core.c ****   tuple_entry *entry = malloc(sizeof(tuple_entry));
 494               		.loc 1 87 0
 495 0224 86E0      		ldi r24,lo8(6)
 496 0226 90E0      		ldi r25,0
 497               	.LVL56:
 498 0228 0E94 0000 		call malloc
 499               	.LVL57:
 500 022c B92E      		mov r11,r25
 501 022e C82F      		mov r28,r24
 502 0230 D92F      		mov r29,r25
 503               	.LVL58:
  89:/home/anaz/blinkyblocks/build/src-bobby/meldinterp-runtime/core.c ****   entry->tuple = tuple;
 504               		.loc 1 89 0
 505 0232 CC82      		std Y+4,r12
 506 0234 DD82      		std Y+5,r13
  90:/home/anaz/blinkyblocks/build/src-bobby/meldinterp-runtime/core.c ****   entry->records = isNew;
 507               		.loc 1 90 0
 508 0236 EA82      		std Y+2,r14
 509 0238 FB82      		std Y+3,r15
 510               	.LVL59:
  91:/home/anaz/blinkyblocks/build/src-bobby/meldinterp-runtime/core.c ****   entry->next = NULL;
 511               		.loc 1 91 0
 512 023a 1882      		st Y,__zero_reg__
 513 023c 1982      		std Y+1,__zero_reg__
  93:/home/anaz/blinkyblocks/build/src-bobby/meldinterp-runtime/core.c ****   queue_push_tuple(queue, entry);
 514               		.loc 1 93 0
 515 023e BE01      		movw r22,r28
 516 0240 C801      		movw r24,r16
 517 0242 0E94 0000 		call queue_push_tuple
 518               	.LVL60:
  96:/home/anaz/blinkyblocks/build/src-bobby/meldinterp-runtime/core.c **** }
 519               		.loc 1 96 0
 520 0246 8C2F      		mov r24,r28
 521 0248 9B2D      		mov r25,r11
 522               	/* epilogue start */
 523 024a DF91      		pop r29
 524 024c CF91      		pop r28
 525               	.LVL61:
 526 024e 1F91      		pop r17
 527 0250 0F91      		pop r16
 528               	.LVL62:
 529 0252 FF90      		pop r15
 530 0254 EF90      		pop r14
 531               	.LVL63:
 532 0256 DF90      		pop r13
 533 0258 CF90      		pop r12
 534               	.LVL64:
 535 025a BF90      		pop r11
 536 025c 0895      		ret
 537               	.LFE24:
 539               	.global	queue_dequeue
 541               	queue_dequeue:
 542               	.LFB25:
 100:/home/anaz/blinkyblocks/build/src-bobby/meldinterp-runtime/core.c **** {
 543               		.loc 1 100 0
 544               	.LVL65:
 545 025e 0F93      		push r16
 546               	.LCFI13:
 547 0260 1F93      		push r17
 548               	.LCFI14:
 549 0262 CF93      		push r28
 550               	.LCFI15:
 551 0264 DF93      		push r29
 552               	.LCFI16:
 553               	/* prologue: function */
 554               	/* frame size = 0 */
 555               	/* stack size = 4 */
 556               	.L__stack_usage = 4
 557 0266 EB01      		movw r28,r22
 101:/home/anaz/blinkyblocks/build/src-bobby/meldinterp-runtime/core.c ****   tuple_entry *entry = queue_pop_tuple(queue);
 558               		.loc 1 101 0
 559 0268 0E94 0000 		call queue_pop_tuple
 560               	.LVL66:
 103:/home/anaz/blinkyblocks/build/src-bobby/meldinterp-runtime/core.c ****   tuple_t tuple = entry->tuple;
 561               		.loc 1 103 0
 562 026c FC01      		movw r30,r24
 563 026e 0481      		ldd r16,Z+4
 564 0270 1581      		ldd r17,Z+5
 565               	.LVL67:
 105:/home/anaz/blinkyblocks/build/src-bobby/meldinterp-runtime/core.c ****   if(isNew)
 566               		.loc 1 105 0
 567 0272 2097      		sbiw r28,0
 568 0274 01F0      		breq .L38
 106:/home/anaz/blinkyblocks/build/src-bobby/meldinterp-runtime/core.c ****     *isNew = entry->records.count;
 569               		.loc 1 106 0
 570 0276 2281      		ldd r18,Z+2
 571 0278 3381      		ldd r19,Z+3
 572 027a 2883      		st Y,r18
 573 027c 3983      		std Y+1,r19
 574               	.L38:
 108:/home/anaz/blinkyblocks/build/src-bobby/meldinterp-runtime/core.c ****   free(entry);
 575               		.loc 1 108 0
 576 027e 0E94 0000 		call free
 577               	.LVL68:
 111:/home/anaz/blinkyblocks/build/src-bobby/meldinterp-runtime/core.c **** }
 578               		.loc 1 111 0
 579 0282 C801      		movw r24,r16
 580               	/* epilogue start */
 581 0284 DF91      		pop r29
 582 0286 CF91      		pop r28
 583               	.LVL69:
 584 0288 1F91      		pop r17
 585               	.LVL70:
 586 028a 0F91      		pop r16
 587 028c 0895      		ret
 588               	.LFE25:
 590               	.global	p_dequeue
 592               	p_dequeue:
 593               	.LFB26:
 115:/home/anaz/blinkyblocks/build/src-bobby/meldinterp-runtime/core.c **** {
 594               		.loc 1 115 0
 595               	.LVL71:
 596               	/* prologue: function */
 597               	/* frame size = 0 */
 598               	/* stack size = 0 */
 599               	.L__stack_usage = 0
 116:/home/anaz/blinkyblocks/build/src-bobby/meldinterp-runtime/core.c ****   tuple_pentry *ret = q->queue;
 600               		.loc 1 116 0
 601 028e DC01      		movw r26,r24
 602 0290 ED91      		ld r30,X+
 603 0292 FC91      		ld r31,X
 604 0294 1197      		sbiw r26,1
 605               	.LVL72:
 118:/home/anaz/blinkyblocks/build/src-bobby/meldinterp-runtime/core.c ****   if(q->queue != NULL)
 606               		.loc 1 118 0
 607 0296 3097      		sbiw r30,0
 608 0298 01F0      		breq .L43
 119:/home/anaz/blinkyblocks/build/src-bobby/meldinterp-runtime/core.c ****     q->queue = q->queue->next;
 609               		.loc 1 119 0
 610 029a 2481      		ldd r18,Z+4
 611 029c 3581      		ldd r19,Z+5
 612 029e 2D93      		st X+,r18
 613 02a0 3C93      		st X,r19
 614               	.L43:
 122:/home/anaz/blinkyblocks/build/src-bobby/meldinterp-runtime/core.c **** }
 615               		.loc 1 122 0
 616 02a2 CF01      		movw r24,r30
 617               	.LVL73:
 618 02a4 0895      		ret
 619               	.LFE26:
 621               	.global	p_enqueue
 623               	p_enqueue:
 624               	.LFB27:
 127:/home/anaz/blinkyblocks/build/src-bobby/meldinterp-runtime/core.c **** {
 625               		.loc 1 127 0
 626               	.LVL74:
 627 02a6 AF92      		push r10
 628               	.LCFI17:
 629 02a8 BF92      		push r11
 630               	.LCFI18:
 631 02aa CF92      		push r12
 632               	.LCFI19:
 633 02ac DF92      		push r13
 634               	.LCFI20:
 635 02ae EF92      		push r14
 636               	.LCFI21:
 637 02b0 FF92      		push r15
 638               	.LCFI22:
 639 02b2 0F93      		push r16
 640               	.LCFI23:
 641 02b4 1F93      		push r17
 642               	.LCFI24:
 643 02b6 CF93      		push r28
 644               	.LCFI25:
 645 02b8 DF93      		push r29
 646               	.LCFI26:
 647 02ba 00D0      		rcall .
 648 02bc 1F92      		push __zero_reg__
 649               	.LCFI27:
 650 02be CDB7      		in r28,__SP_L__
 651 02c0 DEB7      		in r29,__SP_H__
 652               	.LCFI28:
 653               	/* prologue: function */
 654               	/* frame size = 4 */
 655               	/* stack size = 14 */
 656               	.L__stack_usage = 14
 657 02c2 6C01      		movw r12,r24
 658 02c4 5901      		movw r10,r18
 128:/home/anaz/blinkyblocks/build/src-bobby/meldinterp-runtime/core.c ****   tuple_pentry *entry = malloc(sizeof(tuple_pentry));
 659               		.loc 1 128 0
 660 02c6 8CE0      		ldi r24,lo8(12)
 661 02c8 90E0      		ldi r25,0
 662               	.LVL75:
 663 02ca 4983      		std Y+1,r20
 664 02cc 5A83      		std Y+2,r21
 665 02ce 6B83      		std Y+3,r22
 666 02d0 7C83      		std Y+4,r23
 667 02d2 0E94 0000 		call malloc
 668               	.LVL76:
 669 02d6 FC01      		movw r30,r24
 670               	.LVL77:
 130:/home/anaz/blinkyblocks/build/src-bobby/meldinterp-runtime/core.c ****   entry->tuple = tuple;
 671               		.loc 1 130 0
 672 02d8 A086      		std Z+8,r10
 673 02da B186      		std Z+9,r11
 131:/home/anaz/blinkyblocks/build/src-bobby/meldinterp-runtime/core.c ****   entry->records = isNew;
 674               		.loc 1 131 0
 675 02dc E682      		std Z+6,r14
 676 02de F782      		std Z+7,r15
 132:/home/anaz/blinkyblocks/build/src-bobby/meldinterp-runtime/core.c ****   entry->priority = priority;
 677               		.loc 1 132 0
 678 02e0 4981      		ldd r20,Y+1
 679 02e2 5A81      		ldd r21,Y+2
 680 02e4 6B81      		ldd r22,Y+3
 681 02e6 7C81      		ldd r23,Y+4
 682 02e8 4083      		st Z,r20
 683 02ea 5183      		std Z+1,r21
 684 02ec 6283      		std Z+2,r22
 685 02ee 7383      		std Z+3,r23
 133:/home/anaz/blinkyblocks/build/src-bobby/meldinterp-runtime/core.c ****   entry->rt = rt;
 686               		.loc 1 133 0
 687 02f0 0287      		std Z+10,r16
 688 02f2 1387      		std Z+11,r17
 136:/home/anaz/blinkyblocks/build/src-bobby/meldinterp-runtime/core.c ****   for (spot = &(queue->queue);
 689               		.loc 1 136 0
 690 02f4 7601      		movw r14,r12
 691               	.LVL78:
 692 02f6 00C0      		rjmp .L48
 693               	.LVL79:
 694               	.L50:
 139:/home/anaz/blinkyblocks/build/src-bobby/meldinterp-runtime/core.c ****        spot = &((*spot)->next));
 695               		.loc 1 139 0
 696 02f8 7C01      		movw r14,r24
 697               	.LVL80:
 698 02fa 24E0      		ldi r18,4
 699 02fc E20E      		add r14,r18
 700 02fe F11C      		adc r15,__zero_reg__
 701               	.LVL81:
 702               	.L48:
 137:/home/anaz/blinkyblocks/build/src-bobby/meldinterp-runtime/core.c ****        *spot != NULL &&
 703               		.loc 1 137 0 discriminator 1
 704 0300 D701      		movw r26,r14
 705 0302 8D91      		ld r24,X+
 706 0304 9C91      		ld r25,X
 136:/home/anaz/blinkyblocks/build/src-bobby/meldinterp-runtime/core.c ****   for (spot = &(queue->queue);
 707               		.loc 1 136 0 discriminator 1
 708 0306 0097      		sbiw r24,0
 709 0308 01F0      		breq .L49
 137:/home/anaz/blinkyblocks/build/src-bobby/meldinterp-runtime/core.c ****        *spot != NULL &&
 710               		.loc 1 137 0
 711 030a DC01      		movw r26,r24
 712 030c 0D91      		ld r16,X+
 713 030e 1D91      		ld r17,X+
 714 0310 2D91      		ld r18,X+
 715 0312 3C91      		ld r19,X
 716 0314 0417      		cp r16,r20
 717 0316 1507      		cpc r17,r21
 718 0318 2607      		cpc r18,r22
 719 031a 3707      		cpc r19,r23
 720 031c 04F0      		brlt .L50
 721               	.L49:
 141:/home/anaz/blinkyblocks/build/src-bobby/meldinterp-runtime/core.c ****   entry->next = *spot;
 722               		.loc 1 141 0
 723 031e 8483      		std Z+4,r24
 724 0320 9583      		std Z+5,r25
 142:/home/anaz/blinkyblocks/build/src-bobby/meldinterp-runtime/core.c ****   *spot = entry;
 725               		.loc 1 142 0
 726 0322 D701      		movw r26,r14
 727 0324 ED93      		st X+,r30
 728 0326 FC93      		st X,r31
 729               	/* epilogue start */
 143:/home/anaz/blinkyblocks/build/src-bobby/meldinterp-runtime/core.c **** }
 730               		.loc 1 143 0
 731 0328 2496      		adiw r28,4
 732 032a CDBF      		out __SP_L__,r28
 733 032c DEBF      		out __SP_H__,r29
 734 032e DF91      		pop r29
 735 0330 CF91      		pop r28
 736 0332 1F91      		pop r17
 737 0334 0F91      		pop r16
 738 0336 FF90      		pop r15
 739 0338 EF90      		pop r14
 740               	.LVL82:
 741 033a DF90      		pop r13
 742 033c CF90      		pop r12
 743               	.LVL83:
 744 033e BF90      		pop r11
 745 0340 AF90      		pop r10
 746               	.LVL84:
 747 0342 0895      		ret
 748               	.LFE27:
 750               	.global	init_deltas
 752               	init_deltas:
 753               	.LFB28:
 147:/home/anaz/blinkyblocks/build/src-bobby/meldinterp-runtime/core.c **** {
 754               		.loc 1 147 0
 755 0344 EF92      		push r14
 756               	.LCFI29:
 757 0346 FF92      		push r15
 758               	.LCFI30:
 759 0348 0F93      		push r16
 760               	.LCFI31:
 761 034a 1F93      		push r17
 762               	.LCFI32:
 763 034c CF93      		push r28
 764               	.LCFI33:
 765 034e DF93      		push r29
 766               	.LCFI34:
 767               	/* prologue: function */
 768               	/* frame size = 0 */
 769               	/* stack size = 6 */
 770               	.L__stack_usage = 6
 150:/home/anaz/blinkyblocks/build/src-bobby/meldinterp-runtime/core.c ****   deltas = (unsigned char **)malloc(sizeof(unsigned char*)*NUM_TYPES);
 771               		.loc 1 150 0
 772 0350 C091 0000 		lds r28,meld_prog
 773 0354 D0E0      		ldi r29,0
 774 0356 8E01      		movw r16,r28
 775 0358 000F      		lsl r16
 776 035a 111F      		rol r17
 777 035c C801      		movw r24,r16
 778 035e 0E94 0000 		call malloc
 779               	.LVL85:
 780 0362 7C01      		movw r14,r24
 781 0364 8093 0000 		sts deltas,r24
 782 0368 F092 0000 		sts deltas+1,r15
 151:/home/anaz/blinkyblocks/build/src-bobby/meldinterp-runtime/core.c ****   delta_sizes = (int *)malloc(sizeof(int)*NUM_TYPES);
 783               		.loc 1 151 0
 784 036c C801      		movw r24,r16
 785 036e 0E94 0000 		call malloc
 786               	.LVL86:
 787 0372 8093 0000 		sts delta_sizes,r24
 788 0376 9093 0000 		sts delta_sizes+1,r25
 789               	.LVL87:
 790 037a 60E0      		ldi r22,lo8(meld_prog+1)
 791 037c 70E0      		ldi r23,hi8(meld_prog+1)
 792 037e FC01      		movw r30,r24
 793 0380 D701      		movw r26,r14
 153:/home/anaz/blinkyblocks/build/src-bobby/meldinterp-runtime/core.c ****   for (i = 0; i < NUM_TYPES; ++i) {
 794               		.loc 1 153 0
 795 0382 20E0      		ldi r18,0
 796 0384 30E0      		ldi r19,0
 797 0386 8E01      		movw r16,r28
 798 0388 00C0      		rjmp .L55
 799               	.LVL88:
 800               	.L56:
 154:/home/anaz/blinkyblocks/build/src-bobby/meldinterp-runtime/core.c ****     delta_sizes[i] = TYPE_NODELTAS(i);
 801               		.loc 1 154 0 discriminator 2
 802 038a 2F5F      		subi r18,-1
 803 038c 3F4F      		sbci r19,-1
 804               	.LVL89:
 805 038e EB01      		movw r28,r22
 806 0390 4991      		ld r20,Y+
 807 0392 BE01      		movw r22,r28
 808 0394 50E0      		ldi r21,0
 809 0396 CA01      		movw r24,r20
 810 0398 8050      		subi r24,lo8(-(meld_prog+6))
 811 039a 9040      		sbci r25,hi8(-(meld_prog+6))
 812 039c EC01      		movw r28,r24
 813 039e 8881      		ld r24,Y
 814 03a0 8083      		st Z,r24
 815 03a2 1182      		std Z+1,__zero_reg__
 816 03a4 3296      		adiw r30,2
 155:/home/anaz/blinkyblocks/build/src-bobby/meldinterp-runtime/core.c ****     deltas[i] = (unsigned char*)TYPE_DELTAS(i);
 817               		.loc 1 155 0 discriminator 2
 818 03a6 CA01      		movw r24,r20
 819 03a8 0796      		adiw r24,7
 820 03aa 4050      		subi r20,lo8(-(meld_prog+5))
 821 03ac 5040      		sbci r21,hi8(-(meld_prog+5))
 822 03ae EA01      		movw r28,r20
 823 03b0 4881      		ld r20,Y
 824 03b2 840F      		add r24,r20
 825 03b4 911D      		adc r25,__zero_reg__
 826 03b6 8050      		subi r24,lo8(-(meld_prog))
 827 03b8 9040      		sbci r25,hi8(-(meld_prog))
 828 03ba 8D93      		st X+,r24
 829 03bc 9D93      		st X+,r25
 830               	.LVL90:
 831               	.L55:
 153:/home/anaz/blinkyblocks/build/src-bobby/meldinterp-runtime/core.c ****   for (i = 0; i < NUM_TYPES; ++i) {
 832               		.loc 1 153 0 discriminator 1
 833 03be 2017      		cp r18,r16
 834 03c0 3107      		cpc r19,r17
 835 03c2 04F0      		brlt .L56
 836               	/* epilogue start */
 157:/home/anaz/blinkyblocks/build/src-bobby/meldinterp-runtime/core.c **** }
 837               		.loc 1 157 0
 838 03c4 DF91      		pop r29
 839 03c6 CF91      		pop r28
 840 03c8 1F91      		pop r17
 841 03ca 0F91      		pop r16
 842 03cc FF90      		pop r15
 843 03ce EF90      		pop r14
 844 03d0 0895      		ret
 845               	.LFE28:
 847               	.global	init_fields
 849               	init_fields:
 850               	.LFB29:
 162:/home/anaz/blinkyblocks/build/src-bobby/meldinterp-runtime/core.c **** {
 851               		.loc 1 162 0
 852 03d2 7F92      		push r7
 853               	.LCFI35:
 854 03d4 8F92      		push r8
 855               	.LCFI36:
 856 03d6 9F92      		push r9
 857               	.LCFI37:
 858 03d8 AF92      		push r10
 859               	.LCFI38:
 860 03da BF92      		push r11
 861               	.LCFI39:
 862 03dc CF92      		push r12
 863               	.LCFI40:
 864 03de DF92      		push r13
 865               	.LCFI41:
 866 03e0 EF92      		push r14
 867               	.LCFI42:
 868 03e2 FF92      		push r15
 869               	.LCFI43:
 870 03e4 0F93      		push r16
 871               	.LCFI44:
 872 03e6 1F93      		push r17
 873               	.LCFI45:
 874 03e8 CF93      		push r28
 875               	.LCFI46:
 876 03ea DF93      		push r29
 877               	.LCFI47:
 878               	/* prologue: function */
 879               	/* frame size = 0 */
 880               	/* stack size = 13 */
 881               	.L__stack_usage = 13
 163:/home/anaz/blinkyblocks/build/src-bobby/meldinterp-runtime/core.c ****   size_t total = 2*NUM_TYPES;
 882               		.loc 1 163 0
 883 03ec E090 0000 		lds r14,meld_prog
 884 03f0 F12C      		mov r15,__zero_reg__
 885 03f2 E701      		movw r28,r14
 886 03f4 CC0F      		lsl r28
 887 03f6 DD1F      		rol r29
 888               	.LVL91:
 889 03f8 A0E0      		ldi r26,lo8(meld_prog+1)
 890 03fa B0E0      		ldi r27,hi8(meld_prog+1)
 891 03fc CE01      		movw r24,r28
 166:/home/anaz/blinkyblocks/build/src-bobby/meldinterp-runtime/core.c ****   for(i = 0; i < NUM_TYPES; ++i)
 892               		.loc 1 166 0
 893 03fe 20E0      		ldi r18,0
 894 0400 30E0      		ldi r19,0
 895 0402 00C0      		rjmp .L58
 896               	.LVL92:
 897               	.L59:
 167:/home/anaz/blinkyblocks/build/src-bobby/meldinterp-runtime/core.c ****     total += TYPE_NOARGS(i) * 2;
 898               		.loc 1 167 0 discriminator 2
 899 0404 2F5F      		subi r18,-1
 900 0406 3F4F      		sbci r19,-1
 901               	.LVL93:
 902 0408 ED91      		ld r30,X+
 903 040a F0E0      		ldi r31,0
 904 040c E050      		subi r30,lo8(-(meld_prog+5))
 905 040e F040      		sbci r31,hi8(-(meld_prog+5))
 906 0410 4081      		ld r20,Z
 907 0412 840F      		add r24,r20
 908 0414 911D      		adc r25,__zero_reg__
 909               	.LVL94:
 910 0416 840F      		add r24,r20
 911 0418 911D      		adc r25,__zero_reg__
 912               	.LVL95:
 913               	.L58:
 166:/home/anaz/blinkyblocks/build/src-bobby/meldinterp-runtime/core.c ****   for(i = 0; i < NUM_TYPES; ++i)
 914               		.loc 1 166 0 discriminator 1
 915 041a 2E15      		cp r18,r14
 916 041c 3F05      		cpc r19,r15
 917 041e 04F0      		brlt .L59
 169:/home/anaz/blinkyblocks/build/src-bobby/meldinterp-runtime/core.c ****   arguments = malloc(total);
 918               		.loc 1 169 0
 919 0420 0E94 0000 		call malloc
 920               	.LVL96:
 921 0424 8093 0000 		sts arguments,r24
 922 0428 9093 0000 		sts arguments+1,r25
 170:/home/anaz/blinkyblocks/build/src-bobby/meldinterp-runtime/core.c ****   unsigned char *start = arguments + 2*NUM_TYPES;
 923               		.loc 1 170 0
 924 042c C80F      		add r28,r24
 925 042e D91F      		adc r29,r25
 926               	.LVL97:
 173:/home/anaz/blinkyblocks/build/src-bobby/meldinterp-runtime/core.c ****   for(i = 0; i < NUM_TYPES; ++i) {
 927               		.loc 1 173 0
 928 0430 CC24      		clr r12
 929 0432 C394      		inc r12
 930 0434 D12C      		mov r13,__zero_reg__
 931 0436 80E0      		ldi r24,0
 932 0438 90E0      		ldi r25,0
 933 043a 00C0      		rjmp .L60
 934               	.LVL98:
 935               	.L67:
 174:/home/anaz/blinkyblocks/build/src-bobby/meldinterp-runtime/core.c ****     arguments[i*2] = start - arguments; /* start */
 936               		.loc 1 174 0
 937 043c 2091 0000 		lds r18,arguments
 938 0440 3091 0000 		lds r19,arguments+1
 939 0444 FC01      		movw r30,r24
 940 0446 EE0F      		lsl r30
 941 0448 FF1F      		rol r31
 942 044a E20F      		add r30,r18
 943 044c F31F      		adc r31,r19
 944 044e AE01      		movw r20,r28
 945 0450 421B      		sub r20,r18
 946 0452 530B      		sbc r21,r19
 947 0454 4083      		st Z,r20
 948               	.LVL99:
 175:/home/anaz/blinkyblocks/build/src-bobby/meldinterp-runtime/core.c ****     offset = 0;
 949               		.loc 1 175 0
 950 0456 712C      		mov r7,__zero_reg__
 177:/home/anaz/blinkyblocks/build/src-bobby/meldinterp-runtime/core.c ****     for(j = 0; j < TYPE_NOARGS(i); ++j) {
 951               		.loc 1 177 0
 952 0458 00E0      		ldi r16,0
 953 045a 10E0      		ldi r17,0
 161:/home/anaz/blinkyblocks/build/src-bobby/meldinterp-runtime/core.c **** init_fields(void)
 954               		.loc 1 161 0
 955 045c 5C01      		movw r10,r24
 956 045e 5FEF      		ldi r21,-1
 957 0460 A51A      		sub r10,r21
 958 0462 B50A      		sbc r11,r21
 959 0464 50E0      		ldi r21,lo8(meld_prog)
 960 0466 852E      		mov r8,r21
 961 0468 50E0      		ldi r21,hi8(meld_prog)
 962 046a 952E      		mov r9,r21
 963 046c 880E      		add r8,r24
 964 046e 991E      		adc r9,r25
 177:/home/anaz/blinkyblocks/build/src-bobby/meldinterp-runtime/core.c ****     for(j = 0; j < TYPE_NOARGS(i); ++j) {
 965               		.loc 1 177 0
 966 0470 00C0      		rjmp .L61
 967               	.LVL100:
 968               	.L66:
 178:/home/anaz/blinkyblocks/build/src-bobby/meldinterp-runtime/core.c ****       type = TYPE_ARG_TYPE(i, j);
 969               		.loc 1 178 0
 970 0472 E00F      		add r30,r16
 971 0474 F11F      		adc r31,r17
 972 0476 E050      		subi r30,lo8(-(meld_prog+7))
 973 0478 F040      		sbci r31,hi8(-(meld_prog+7))
 974 047a 8081      		ld r24,Z
 975 047c 8093 0000 		sts type,r24
 976 0480 1092 0000 		sts type+1,__zero_reg__
 179:/home/anaz/blinkyblocks/build/src-bobby/meldinterp-runtime/core.c ****       switch (type) {
 977               		.loc 1 179 0
 978 0484 8830      		cpi r24,lo8(8)
 979 0486 00F4      		brsh .L65
 980 0488 8230      		cpi r24,lo8(2)
 981 048a 00F4      		brsh .L68
 982 048c 00C0      		rjmp .L63
 983               	.L65:
 984 048e 8830      		cpi r24,lo8(8)
 985 0490 01F4      		brne .L72
 986               	.L63:
 183:/home/anaz/blinkyblocks/build/src-bobby/meldinterp-runtime/core.c **** 	size = sizeof(meld_int);
 987               		.loc 1 183 0
 988 0492 84E0      		ldi r24,lo8(4)
 989 0494 00C0      		rjmp .L64
 990               	.L72:
 203:/home/anaz/blinkyblocks/build/src-bobby/meldinterp-runtime/core.c **** 	assert(0);
 991               		.loc 1 203 0
 992 0496 40E0      		ldi r20,lo8(.LC0)
 993 0498 50E0      		ldi r21,hi8(.LC0)
 994 049a 6BEC      		ldi r22,lo8(-53)
 995 049c 70E0      		ldi r23,0
 996 049e 80E0      		ldi r24,lo8(.LC1)
 997 04a0 90E0      		ldi r25,hi8(.LC1)
 998 04a2 0E94 0000 		call __myassert
 999               	.LVL101:
 204:/home/anaz/blinkyblocks/build/src-bobby/meldinterp-runtime/core.c **** 	size = 0;
 1000               		.loc 1 204 0
 1001 04a6 80E0      		ldi r24,0
 205:/home/anaz/blinkyblocks/build/src-bobby/meldinterp-runtime/core.c **** 	break;
 1002               		.loc 1 205 0
 1003 04a8 00C0      		rjmp .L64
 1004               	.LVL102:
 1005               	.L68:
 191:/home/anaz/blinkyblocks/build/src-bobby/meldinterp-runtime/core.c **** 	size = sizeof(NodeID);
 1006               		.loc 1 191 0
 1007 04aa 82E0      		ldi r24,lo8(2)
 1008               	.L64:
 1009               	.LVL103:
 208:/home/anaz/blinkyblocks/build/src-bobby/meldinterp-runtime/core.c ****       start[0] = size; /* argument size */
 1010               		.loc 1 208 0
 1011 04ac 8883      		st Y,r24
 209:/home/anaz/blinkyblocks/build/src-bobby/meldinterp-runtime/core.c ****       start[1] = offset; /* argument offset */
 1012               		.loc 1 209 0
 1013 04ae 7982      		std Y+1,r7
 211:/home/anaz/blinkyblocks/build/src-bobby/meldinterp-runtime/core.c ****       offset += size;
 1014               		.loc 1 211 0
 1015 04b0 780E      		add r7,r24
 1016               	.LVL104:
 212:/home/anaz/blinkyblocks/build/src-bobby/meldinterp-runtime/core.c ****       start += 2;
 1017               		.loc 1 212 0
 1018 04b2 2296      		adiw r28,2
 1019               	.LVL105:
 177:/home/anaz/blinkyblocks/build/src-bobby/meldinterp-runtime/core.c ****     for(j = 0; j < TYPE_NOARGS(i); ++j) {
 1020               		.loc 1 177 0
 1021 04b4 0F5F      		subi r16,-1
 1022 04b6 1F4F      		sbci r17,-1
 1023               	.LVL106:
 1024               	.L61:
 177:/home/anaz/blinkyblocks/build/src-bobby/meldinterp-runtime/core.c ****     for(j = 0; j < TYPE_NOARGS(i); ++j) {
 1025               		.loc 1 177 0 is_stmt 0 discriminator 1
 1026 04b8 D401      		movw r26,r8
 1027 04ba 1196      		adiw r26,1
 1028 04bc EC91      		ld r30,X
 1029 04be F0E0      		ldi r31,0
 1030 04c0 DF01      		movw r26,r30
 1031 04c2 A050      		subi r26,lo8(-(meld_prog+5))
 1032 04c4 B040      		sbci r27,hi8(-(meld_prog+5))
 1033 04c6 8C91      		ld r24,X
 1034 04c8 90E0      		ldi r25,0
 1035 04ca 0817      		cp r16,r24
 1036 04cc 1907      		cpc r17,r25
 1037 04ce 04F0      		brlt .L66
 215:/home/anaz/blinkyblocks/build/src-bobby/meldinterp-runtime/core.c ****     arguments[i*2+1] = offset + TYPE_FIELD_SIZE; /* tuple size */
 1038               		.loc 1 215 0 is_stmt 1
 1039 04d0 E091 0000 		lds r30,arguments
 1040 04d4 F091 0000 		lds r31,arguments+1
 1041 04d8 EC0D      		add r30,r12
 1042 04da FD1D      		adc r31,r13
 1043 04dc 7394      		inc r7
 1044               	.LVL107:
 1045 04de 7082      		st Z,r7
 1046               	.LVL108:
 1047 04e0 B2E0      		ldi r27,2
 1048 04e2 CB0E      		add r12,r27
 1049 04e4 D11C      		adc r13,__zero_reg__
 1050 04e6 C501      		movw r24,r10
 1051               	.LVL109:
 1052               	.L60:
 173:/home/anaz/blinkyblocks/build/src-bobby/meldinterp-runtime/core.c ****   for(i = 0; i < NUM_TYPES; ++i) {
 1053               		.loc 1 173 0 discriminator 1
 1054 04e8 8E15      		cp r24,r14
 1055 04ea 9F05      		cpc r25,r15
 1056 04ec 04F4      		brge .+2
 1057 04ee 00C0      		rjmp .L67
 1058               	/* epilogue start */
 217:/home/anaz/blinkyblocks/build/src-bobby/meldinterp-runtime/core.c **** }
 1059               		.loc 1 217 0
 1060 04f0 DF91      		pop r29
 1061 04f2 CF91      		pop r28
 1062               	.LVL110:
 1063 04f4 1F91      		pop r17
 1064 04f6 0F91      		pop r16
 1065 04f8 FF90      		pop r15
 1066 04fa EF90      		pop r14
 1067 04fc DF90      		pop r13
 1068 04fe CF90      		pop r12
 1069 0500 BF90      		pop r11
 1070 0502 AF90      		pop r10
 1071 0504 9F90      		pop r9
 1072 0506 8F90      		pop r8
 1073 0508 7F90      		pop r7
 1074 050a 0895      		ret
 1075               	.LFE29:
 1077               		.section	.rodata.str1.1
 1078               	.LC2:
 1079 0044 5F69 6E69 		.string	"_init"
 1079      7400 
 1080               	.LC3:
 1081 004a 6564 6765 		.string	"edge"
 1081      00
 1082               	.LC4:
 1083 004f 636F 6C6F 		.string	"colocated"
 1083      6361 7465 
 1083      6400 
 1084               	.LC5:
 1085 0059 7072 6F76 		.string	"proved"
 1085      6564 00
 1086               	.LC6:
 1087 0060 7465 726D 		.string	"terminate"
 1087      696E 6174 
 1087      6500 
 1088               		.text
 1089               	.global	init_consts
 1091               	init_consts:
 1092               	.LFB30:
 220:/home/anaz/blinkyblocks/build/src-bobby/meldinterp-runtime/core.c **** {
 1093               		.loc 1 220 0
 1094 050c CF92      		push r12
 1095               	.LCFI48:
 1096 050e DF92      		push r13
 1097               	.LCFI49:
 1098 0510 EF92      		push r14
 1099               	.LCFI50:
 1100 0512 FF92      		push r15
 1101               	.LCFI51:
 1102 0514 0F93      		push r16
 1103               	.LCFI52:
 1104 0516 1F93      		push r17
 1105               	.LCFI53:
 1106 0518 CF93      		push r28
 1107               	.LCFI54:
 1108 051a DF93      		push r29
 1109               	.LCFI55:
 1110               	/* prologue: function */
 1111               	/* frame size = 0 */
 1112               	/* stack size = 8 */
 1113               	.L__stack_usage = 8
 1114               	.LVL111:
 222:/home/anaz/blinkyblocks/build/src-bobby/meldinterp-runtime/core.c ****   for (i = 0; i < NUM_TYPES; i++) {
 1115               		.loc 1 222 0
 1116 051c C090 0000 		lds r12,meld_prog
 1117 0520 D12C      		mov r13,__zero_reg__
 1118 0522 E0E0      		ldi r30,lo8(tuple_names)
 1119 0524 EE2E      		mov r14,r30
 1120 0526 E0E0      		ldi r30,hi8(tuple_names)
 1121 0528 FE2E      		mov r15,r30
 1122 052a C0E0      		ldi r28,0
 1123 052c D0E0      		ldi r29,0
 1124 052e 00C0      		rjmp .L74
 1125               	.LVL112:
 1126               	.L80:
 223:/home/anaz/blinkyblocks/build/src-bobby/meldinterp-runtime/core.c ****     if (strcmp(TYPE_NAME(i), "_init") == 0)
 1127               		.loc 1 223 0
 1128 0530 F701      		movw r30,r14
 1129 0532 0191      		ld r16,Z+
 1130 0534 1191      		ld r17,Z+
 1131 0536 7F01      		movw r14,r30
 1132 0538 60E0      		ldi r22,lo8(.LC2)
 1133 053a 70E0      		ldi r23,hi8(.LC2)
 1134 053c C801      		movw r24,r16
 1135 053e 0E94 0000 		call strcmp
 1136               	.LVL113:
 1137 0542 0097      		sbiw r24,0
 1138 0544 01F4      		brne .L75
 224:/home/anaz/blinkyblocks/build/src-bobby/meldinterp-runtime/core.c ****       TYPE_INIT = i;
 1139               		.loc 1 224 0
 1140 0546 C093 0000 		sts TYPE_INIT,r28
 1141 054a D093 0000 		sts TYPE_INIT+1,r29
 1142 054e 00C0      		rjmp .L76
 1143               	.L75:
 225:/home/anaz/blinkyblocks/build/src-bobby/meldinterp-runtime/core.c ****     else if(strcmp(TYPE_NAME(i), "edge") == 0)
 1144               		.loc 1 225 0
 1145 0550 60E0      		ldi r22,lo8(.LC3)
 1146 0552 70E0      		ldi r23,hi8(.LC3)
 1147 0554 C801      		movw r24,r16
 1148 0556 0E94 0000 		call strcmp
 1149               	.LVL114:
 1150 055a 0097      		sbiw r24,0
 1151 055c 01F4      		brne .L77
 226:/home/anaz/blinkyblocks/build/src-bobby/meldinterp-runtime/core.c ****       TYPE_EDGE = i;
 1152               		.loc 1 226 0
 1153 055e C093 0000 		sts TYPE_EDGE,r28
 1154 0562 D093 0000 		sts TYPE_EDGE+1,r29
 1155 0566 00C0      		rjmp .L76
 1156               	.L77:
 227:/home/anaz/blinkyblocks/build/src-bobby/meldinterp-runtime/core.c ****     else if(strcmp(TYPE_NAME(i), "colocated") == 0)
 1157               		.loc 1 227 0
 1158 0568 60E0      		ldi r22,lo8(.LC4)
 1159 056a 70E0      		ldi r23,hi8(.LC4)
 1160 056c C801      		movw r24,r16
 1161 056e 0E94 0000 		call strcmp
 1162               	.LVL115:
 1163 0572 0097      		sbiw r24,0
 1164 0574 01F4      		brne .L78
 228:/home/anaz/blinkyblocks/build/src-bobby/meldinterp-runtime/core.c ****       TYPE_COLOCATED = i;
 1165               		.loc 1 228 0
 1166 0576 C093 0000 		sts TYPE_COLOCATED,r28
 1167 057a D093 0000 		sts TYPE_COLOCATED+1,r29
 1168 057e 00C0      		rjmp .L76
 1169               	.L78:
 229:/home/anaz/blinkyblocks/build/src-bobby/meldinterp-runtime/core.c ****     else if(strcmp(TYPE_NAME(i), "proved") == 0)
 1170               		.loc 1 229 0
 1171 0580 60E0      		ldi r22,lo8(.LC5)
 1172 0582 70E0      		ldi r23,hi8(.LC5)
 1173 0584 C801      		movw r24,r16
 1174 0586 0E94 0000 		call strcmp
 1175               	.LVL116:
 1176 058a 0097      		sbiw r24,0
 1177 058c 01F4      		brne .L79
 230:/home/anaz/blinkyblocks/build/src-bobby/meldinterp-runtime/core.c ****       TYPE_PROVED = i;
 1178               		.loc 1 230 0
 1179 058e C093 0000 		sts TYPE_PROVED,r28
 1180 0592 D093 0000 		sts TYPE_PROVED+1,r29
 1181 0596 00C0      		rjmp .L76
 1182               	.L79:
 231:/home/anaz/blinkyblocks/build/src-bobby/meldinterp-runtime/core.c ****     else if(strcmp(TYPE_NAME(i), "terminate") == 0)
 1183               		.loc 1 231 0
 1184 0598 60E0      		ldi r22,lo8(.LC6)
 1185 059a 70E0      		ldi r23,hi8(.LC6)
 1186 059c C801      		movw r24,r16
 1187 059e 0E94 0000 		call strcmp
 1188               	.LVL117:
 1189 05a2 0097      		sbiw r24,0
 1190 05a4 01F4      		brne .L76
 232:/home/anaz/blinkyblocks/build/src-bobby/meldinterp-runtime/core.c ****       TYPE_TERMINATE = i;
 1191               		.loc 1 232 0
 1192 05a6 C093 0000 		sts TYPE_TERMINATE,r28
 1193 05aa D093 0000 		sts TYPE_TERMINATE+1,r29
 1194               	.L76:
 222:/home/anaz/blinkyblocks/build/src-bobby/meldinterp-runtime/core.c ****   for (i = 0; i < NUM_TYPES; i++) {
 1195               		.loc 1 222 0
 1196 05ae 2196      		adiw r28,1
 1197               	.LVL118:
 1198               	.L74:
 222:/home/anaz/blinkyblocks/build/src-bobby/meldinterp-runtime/core.c ****   for (i = 0; i < NUM_TYPES; i++) {
 1199               		.loc 1 222 0 is_stmt 0 discriminator 1
 1200 05b0 CC15      		cp r28,r12
 1201 05b2 DD05      		cpc r29,r13
 1202 05b4 04F4      		brge .+2
 1203 05b6 00C0      		rjmp .L80
 1204               	/* epilogue start */
 234:/home/anaz/blinkyblocks/build/src-bobby/meldinterp-runtime/core.c **** }
 1205               		.loc 1 234 0 is_stmt 1
 1206 05b8 DF91      		pop r29
 1207 05ba CF91      		pop r28
 1208               	.LVL119:
 1209 05bc 1F91      		pop r17
 1210 05be 0F91      		pop r16
 1211 05c0 FF90      		pop r15
 1212 05c2 EF90      		pop r14
 1213 05c4 DF90      		pop r13
 1214 05c6 CF90      		pop r12
 1215 05c8 0895      		ret
 1216               	.LFE30:
 1218               	.global	queue_length
 1220               	queue_length:
 1221               	.LFB41:
 608:/home/anaz/blinkyblocks/build/src-bobby/meldinterp-runtime/core.c ****     break;
 609:/home/anaz/blinkyblocks/build/src-bobby/meldinterp-runtime/core.c ****   }
 610:/home/anaz/blinkyblocks/build/src-bobby/meldinterp-runtime/core.c **** }
 611:/home/anaz/blinkyblocks/build/src-bobby/meldinterp-runtime/core.c **** 
 612:/home/anaz/blinkyblocks/build/src-bobby/meldinterp-runtime/core.c **** static inline
 613:/home/anaz/blinkyblocks/build/src-bobby/meldinterp-runtime/core.c **** void aggregate_recalc(tuple_entry *agg, Register *reg,
 614:/home/anaz/blinkyblocks/build/src-bobby/meldinterp-runtime/core.c **** 		      bool first_run)
 615:/home/anaz/blinkyblocks/build/src-bobby/meldinterp-runtime/core.c **** {
 616:/home/anaz/blinkyblocks/build/src-bobby/meldinterp-runtime/core.c ****   tuple_type type = TUPLE_TYPE(agg->tuple);
 617:/home/anaz/blinkyblocks/build/src-bobby/meldinterp-runtime/core.c **** 
 618:/home/anaz/blinkyblocks/build/src-bobby/meldinterp-runtime/core.c ****   tuple_entry *cur;
 619:/home/anaz/blinkyblocks/build/src-bobby/meldinterp-runtime/core.c **** 	
 620:/home/anaz/blinkyblocks/build/src-bobby/meldinterp-runtime/core.c ****   int agg_type = AGG_AGG(TYPE_AGGREGATE(type));
 621:/home/anaz/blinkyblocks/build/src-bobby/meldinterp-runtime/core.c ****   int agg_field = AGG_FIELD(TYPE_AGGREGATE(type));
 622:/home/anaz/blinkyblocks/build/src-bobby/meldinterp-runtime/core.c ****   tuple_queue *agg_queue = agg->records.agg_queue;
 623:/home/anaz/blinkyblocks/build/src-bobby/meldinterp-runtime/core.c ****   tuple_entry *agg_list = agg_queue->head;
 624:/home/anaz/blinkyblocks/build/src-bobby/meldinterp-runtime/core.c ****   tuple_t tuple = agg_list->tuple;
 625:/home/anaz/blinkyblocks/build/src-bobby/meldinterp-runtime/core.c ****   
 626:/home/anaz/blinkyblocks/build/src-bobby/meldinterp-runtime/core.c ****   void* start = GET_TUPLE_FIELD(tuple, agg_field);
 627:/home/anaz/blinkyblocks/build/src-bobby/meldinterp-runtime/core.c **** 
 628:/home/anaz/blinkyblocks/build/src-bobby/meldinterp-runtime/core.c ****   /* make copy */
 629:/home/anaz/blinkyblocks/build/src-bobby/meldinterp-runtime/core.c ****   size_t size = TYPE_ARG_SIZE(type, agg_field);
 630:/home/anaz/blinkyblocks/build/src-bobby/meldinterp-runtime/core.c ****   void* accumulator = malloc(size);
 631:/home/anaz/blinkyblocks/build/src-bobby/meldinterp-runtime/core.c **** 
 632:/home/anaz/blinkyblocks/build/src-bobby/meldinterp-runtime/core.c ****   aggregate_seed(agg_type, accumulator, start, agg_list->records.count, size);
 633:/home/anaz/blinkyblocks/build/src-bobby/meldinterp-runtime/core.c **** 	
 634:/home/anaz/blinkyblocks/build/src-bobby/meldinterp-runtime/core.c ****   /* calculate offsets to copy right side to aggregated tuple */
 635:/home/anaz/blinkyblocks/build/src-bobby/meldinterp-runtime/core.c ****   size_t size_offset = TYPE_FIELD_SIZE + TYPE_ARG_OFFSET(type, agg_field) + TYPE_ARG_SIZE(type, agg
 636:/home/anaz/blinkyblocks/build/src-bobby/meldinterp-runtime/core.c ****   size_t total_copy = TYPE_SIZE(type) - size_offset;
 637:/home/anaz/blinkyblocks/build/src-bobby/meldinterp-runtime/core.c ****   tuple_t target_tuple = NULL;
 638:/home/anaz/blinkyblocks/build/src-bobby/meldinterp-runtime/core.c ****   
 639:/home/anaz/blinkyblocks/build/src-bobby/meldinterp-runtime/core.c ****   if (total_copy > 0)
 640:/home/anaz/blinkyblocks/build/src-bobby/meldinterp-runtime/core.c ****     target_tuple = tuple;
 641:/home/anaz/blinkyblocks/build/src-bobby/meldinterp-runtime/core.c **** 
 642:/home/anaz/blinkyblocks/build/src-bobby/meldinterp-runtime/core.c ****   for (cur = agg_list->next; cur != NULL; cur = cur->next) {
 643:/home/anaz/blinkyblocks/build/src-bobby/meldinterp-runtime/core.c ****     if(aggregate_accumulate(agg_type, accumulator,
 644:/home/anaz/blinkyblocks/build/src-bobby/meldinterp-runtime/core.c **** 			    GET_TUPLE_FIELD(cur->tuple, agg_field), cur->records.count))
 645:/home/anaz/blinkyblocks/build/src-bobby/meldinterp-runtime/core.c ****       target_tuple = cur->tuple;
 646:/home/anaz/blinkyblocks/build/src-bobby/meldinterp-runtime/core.c ****   }
 647:/home/anaz/blinkyblocks/build/src-bobby/meldinterp-runtime/core.c **** 
 648:/home/anaz/blinkyblocks/build/src-bobby/meldinterp-runtime/core.c ****   void *acc_area = GET_TUPLE_FIELD(agg->tuple, agg_field);
 649:/home/anaz/blinkyblocks/build/src-bobby/meldinterp-runtime/core.c **** 
 650:/home/anaz/blinkyblocks/build/src-bobby/meldinterp-runtime/core.c ****   if(first_run)
 651:/home/anaz/blinkyblocks/build/src-bobby/meldinterp-runtime/core.c ****     memcpy(acc_area, accumulator, size);
 652:/home/anaz/blinkyblocks/build/src-bobby/meldinterp-runtime/core.c ****   else if (aggregate_changed(agg_type, acc_area, accumulator)) {
 653:/home/anaz/blinkyblocks/build/src-bobby/meldinterp-runtime/core.c ****     tuple_process(agg->tuple, TYPE_START(type), -1, reg);
 654:/home/anaz/blinkyblocks/build/src-bobby/meldinterp-runtime/core.c ****     aggregate_free(agg->tuple, agg_field, agg_type);
 655:/home/anaz/blinkyblocks/build/src-bobby/meldinterp-runtime/core.c ****     memcpy(acc_area, accumulator, size);
 656:/home/anaz/blinkyblocks/build/src-bobby/meldinterp-runtime/core.c ****     if (total_copy > 0) /* copy right side from target tuple */
 657:/home/anaz/blinkyblocks/build/src-bobby/meldinterp-runtime/core.c ****       memcpy(((unsigned char *)agg->tuple) + size_offset, ((unsigned char *)target_tuple) + size_of
 658:/home/anaz/blinkyblocks/build/src-bobby/meldinterp-runtime/core.c ****     tuple_process(agg->tuple, TYPE_START(type), 1, reg);
 659:/home/anaz/blinkyblocks/build/src-bobby/meldinterp-runtime/core.c ****   }
 660:/home/anaz/blinkyblocks/build/src-bobby/meldinterp-runtime/core.c **** 
 661:/home/anaz/blinkyblocks/build/src-bobby/meldinterp-runtime/core.c ****   free(accumulator);
 662:/home/anaz/blinkyblocks/build/src-bobby/meldinterp-runtime/core.c **** }
 663:/home/anaz/blinkyblocks/build/src-bobby/meldinterp-runtime/core.c **** 
 664:/home/anaz/blinkyblocks/build/src-bobby/meldinterp-runtime/core.c **** static inline
 665:/home/anaz/blinkyblocks/build/src-bobby/meldinterp-runtime/core.c **** void process_deltas(tuple_t tuple, tuple_type type, Register *reg)
 666:/home/anaz/blinkyblocks/build/src-bobby/meldinterp-runtime/core.c **** {
 667:/home/anaz/blinkyblocks/build/src-bobby/meldinterp-runtime/core.c ****   void *old = OLDTUPLES[type];
 668:/home/anaz/blinkyblocks/build/src-bobby/meldinterp-runtime/core.c ****   
 669:/home/anaz/blinkyblocks/build/src-bobby/meldinterp-runtime/core.c ****   if(old == NULL)
 670:/home/anaz/blinkyblocks/build/src-bobby/meldinterp-runtime/core.c ****     return;
 671:/home/anaz/blinkyblocks/build/src-bobby/meldinterp-runtime/core.c ****     
 672:/home/anaz/blinkyblocks/build/src-bobby/meldinterp-runtime/core.c ****   OLDTUPLES[type] = NULL;
 673:/home/anaz/blinkyblocks/build/src-bobby/meldinterp-runtime/core.c **** 
 674:/home/anaz/blinkyblocks/build/src-bobby/meldinterp-runtime/core.c ****   int i;
 675:/home/anaz/blinkyblocks/build/src-bobby/meldinterp-runtime/core.c ****   for(i = 0; i < DELTA_TOTAL(type); ++i) {
 676:/home/anaz/blinkyblocks/build/src-bobby/meldinterp-runtime/core.c ****     int delta_type = DELTA_TYPE(type, i);
 677:/home/anaz/blinkyblocks/build/src-bobby/meldinterp-runtime/core.c ****     int delta_pos = DELTA_POSITION(type, i);
 678:/home/anaz/blinkyblocks/build/src-bobby/meldinterp-runtime/core.c ****     void *delta_tuple = ALLOC_TUPLE(TYPE_SIZE(delta_type));
 679:/home/anaz/blinkyblocks/build/src-bobby/meldinterp-runtime/core.c **** 
 680:/home/anaz/blinkyblocks/build/src-bobby/meldinterp-runtime/core.c ****     memcpy(delta_tuple, old, TYPE_SIZE(delta_type));
 681:/home/anaz/blinkyblocks/build/src-bobby/meldinterp-runtime/core.c ****     TUPLE_TYPE(delta_tuple) = delta_type;
 682:/home/anaz/blinkyblocks/build/src-bobby/meldinterp-runtime/core.c **** 
 683:/home/anaz/blinkyblocks/build/src-bobby/meldinterp-runtime/core.c ****     void *field_delta = GET_TUPLE_FIELD(delta_tuple, delta_pos);
 684:/home/anaz/blinkyblocks/build/src-bobby/meldinterp-runtime/core.c ****     void *field_old = GET_TUPLE_FIELD(old, delta_pos);
 685:/home/anaz/blinkyblocks/build/src-bobby/meldinterp-runtime/core.c ****     void *field_new = GET_TUPLE_FIELD(tuple, delta_pos);
 686:/home/anaz/blinkyblocks/build/src-bobby/meldinterp-runtime/core.c **** 
 687:/home/anaz/blinkyblocks/build/src-bobby/meldinterp-runtime/core.c ****     switch(TYPE_ARG_TYPE(type, delta_pos)) {
 688:/home/anaz/blinkyblocks/build/src-bobby/meldinterp-runtime/core.c ****     case FIELD_INT:
 689:/home/anaz/blinkyblocks/build/src-bobby/meldinterp-runtime/core.c ****       MELD_INT(field_delta) = MELD_INT(field_new) - MELD_INT(field_old);
 690:/home/anaz/blinkyblocks/build/src-bobby/meldinterp-runtime/core.c ****       break;
 691:/home/anaz/blinkyblocks/build/src-bobby/meldinterp-runtime/core.c ****     case FIELD_FLOAT:
 692:/home/anaz/blinkyblocks/build/src-bobby/meldinterp-runtime/core.c ****       MELD_FLOAT(field_delta) = MELD_FLOAT(field_new) - MELD_FLOAT(field_old);
 693:/home/anaz/blinkyblocks/build/src-bobby/meldinterp-runtime/core.c ****       break;
 694:/home/anaz/blinkyblocks/build/src-bobby/meldinterp-runtime/core.c ****     default:
 695:/home/anaz/blinkyblocks/build/src-bobby/meldinterp-runtime/core.c ****       assert(0);
 696:/home/anaz/blinkyblocks/build/src-bobby/meldinterp-runtime/core.c ****       break;
 697:/home/anaz/blinkyblocks/build/src-bobby/meldinterp-runtime/core.c ****     }
 698:/home/anaz/blinkyblocks/build/src-bobby/meldinterp-runtime/core.c **** 
 699:/home/anaz/blinkyblocks/build/src-bobby/meldinterp-runtime/core.c ****     tuple_process(delta_tuple, TYPE_START(TUPLE_TYPE(delta_tuple)), 1, reg);
 700:/home/anaz/blinkyblocks/build/src-bobby/meldinterp-runtime/core.c ****   }
 701:/home/anaz/blinkyblocks/build/src-bobby/meldinterp-runtime/core.c **** 
 702:/home/anaz/blinkyblocks/build/src-bobby/meldinterp-runtime/core.c ****   FREE_TUPLE(old);
 703:/home/anaz/blinkyblocks/build/src-bobby/meldinterp-runtime/core.c **** }
 704:/home/anaz/blinkyblocks/build/src-bobby/meldinterp-runtime/core.c **** 
 705:/home/anaz/blinkyblocks/build/src-bobby/meldinterp-runtime/core.c **** static inline tuple_t
 706:/home/anaz/blinkyblocks/build/src-bobby/meldinterp-runtime/core.c **** tuple_build_proved(tuple_type type, meld_int total)
 707:/home/anaz/blinkyblocks/build/src-bobby/meldinterp-runtime/core.c **** {
 708:/home/anaz/blinkyblocks/build/src-bobby/meldinterp-runtime/core.c ****   tuple_t tuple = tuple_alloc(TYPE_PROVED);
 709:/home/anaz/blinkyblocks/build/src-bobby/meldinterp-runtime/core.c ****   meld_int type_int = (meld_int)type;
 710:/home/anaz/blinkyblocks/build/src-bobby/meldinterp-runtime/core.c ****   
 711:/home/anaz/blinkyblocks/build/src-bobby/meldinterp-runtime/core.c ****   SET_TUPLE_FIELD(tuple, 0, &type_int);
 712:/home/anaz/blinkyblocks/build/src-bobby/meldinterp-runtime/core.c ****   SET_TUPLE_FIELD(tuple, 1, &total);
 713:/home/anaz/blinkyblocks/build/src-bobby/meldinterp-runtime/core.c ****   
 714:/home/anaz/blinkyblocks/build/src-bobby/meldinterp-runtime/core.c ****   return tuple;
 715:/home/anaz/blinkyblocks/build/src-bobby/meldinterp-runtime/core.c **** }
 716:/home/anaz/blinkyblocks/build/src-bobby/meldinterp-runtime/core.c **** 
 717:/home/anaz/blinkyblocks/build/src-bobby/meldinterp-runtime/core.c **** void tuple_do_handle(tuple_type type,	tuple_t tuple, int isNew, Register *reg)
 718:/home/anaz/blinkyblocks/build/src-bobby/meldinterp-runtime/core.c **** {
 719:/home/anaz/blinkyblocks/build/src-bobby/meldinterp-runtime/core.c ****   if(TYPE_IS_PROVED(type)) {
 720:/home/anaz/blinkyblocks/build/src-bobby/meldinterp-runtime/core.c ****     PROVED[type] += (meld_int)isNew;
 721:/home/anaz/blinkyblocks/build/src-bobby/meldinterp-runtime/core.c ****     tuple_t _proved = tuple_build_proved(type, PROVED[type]);
 722:/home/anaz/blinkyblocks/build/src-bobby/meldinterp-runtime/core.c **** #ifdef DEBUG_PROVED_TUPLES
 723:/home/anaz/blinkyblocks/build/src-bobby/meldinterp-runtime/core.c ****     printf("New proved for tuple %s: %d\n", tuple_names[type], PROVED[type]);
 724:/home/anaz/blinkyblocks/build/src-bobby/meldinterp-runtime/core.c **** #endif
 725:/home/anaz/blinkyblocks/build/src-bobby/meldinterp-runtime/core.c ****     PUSH_NEW_TUPLE(_proved);
 726:/home/anaz/blinkyblocks/build/src-bobby/meldinterp-runtime/core.c ****   } else if(type == TYPE_PROVED) {
 727:/home/anaz/blinkyblocks/build/src-bobby/meldinterp-runtime/core.c ****     tuple_process(tuple, TYPE_START(type), isNew, reg);
 728:/home/anaz/blinkyblocks/build/src-bobby/meldinterp-runtime/core.c ****     FREE_TUPLE(tuple);
 729:/home/anaz/blinkyblocks/build/src-bobby/meldinterp-runtime/core.c ****     return;
 730:/home/anaz/blinkyblocks/build/src-bobby/meldinterp-runtime/core.c ****   } else if(type == TYPE_TERMINATE) {
 731:/home/anaz/blinkyblocks/build/src-bobby/meldinterp-runtime/core.c ****     FREE_TUPLE(tuple);
 732:/home/anaz/blinkyblocks/build/src-bobby/meldinterp-runtime/core.c ****     TERMINATE_CURRENT();
 733:/home/anaz/blinkyblocks/build/src-bobby/meldinterp-runtime/core.c ****     return;
 734:/home/anaz/blinkyblocks/build/src-bobby/meldinterp-runtime/core.c ****   }
 735:/home/anaz/blinkyblocks/build/src-bobby/meldinterp-runtime/core.c ****   
 736:/home/anaz/blinkyblocks/build/src-bobby/meldinterp-runtime/core.c ****   if(!TYPE_IS_AGG(type) && TYPE_IS_PERSISTENT(type)) {
 737:/home/anaz/blinkyblocks/build/src-bobby/meldinterp-runtime/core.c ****     persistent_set *persistents = &PERSISTENT[type];
 738:/home/anaz/blinkyblocks/build/src-bobby/meldinterp-runtime/core.c ****     int i;
 739:/home/anaz/blinkyblocks/build/src-bobby/meldinterp-runtime/core.c ****     int size = TYPE_SIZE(type);
 740:/home/anaz/blinkyblocks/build/src-bobby/meldinterp-runtime/core.c ****     
 741:/home/anaz/blinkyblocks/build/src-bobby/meldinterp-runtime/core.c ****     if(isNew < 0) {
 742:/home/anaz/blinkyblocks/build/src-bobby/meldinterp-runtime/core.c ****       fprintf(stderr, "meld: persistent types can't be deleted\n");
 743:/home/anaz/blinkyblocks/build/src-bobby/meldinterp-runtime/core.c ****       exit(EXIT_FAILURE);
 744:/home/anaz/blinkyblocks/build/src-bobby/meldinterp-runtime/core.c ****     }
 745:/home/anaz/blinkyblocks/build/src-bobby/meldinterp-runtime/core.c ****     
 746:/home/anaz/blinkyblocks/build/src-bobby/meldinterp-runtime/core.c ****     for(i = 0; i < persistents->total; ++i) {
 747:/home/anaz/blinkyblocks/build/src-bobby/meldinterp-runtime/core.c ****       void *stored_tuple = persistents->array + i * size;
 748:/home/anaz/blinkyblocks/build/src-bobby/meldinterp-runtime/core.c ****       
 749:/home/anaz/blinkyblocks/build/src-bobby/meldinterp-runtime/core.c ****       if(memcmp(stored_tuple, tuple, size) == 0) {
 750:/home/anaz/blinkyblocks/build/src-bobby/meldinterp-runtime/core.c ****         FREE_TUPLE(tuple);
 751:/home/anaz/blinkyblocks/build/src-bobby/meldinterp-runtime/core.c ****         return;
 752:/home/anaz/blinkyblocks/build/src-bobby/meldinterp-runtime/core.c ****       }
 753:/home/anaz/blinkyblocks/build/src-bobby/meldinterp-runtime/core.c ****     }
 754:/home/anaz/blinkyblocks/build/src-bobby/meldinterp-runtime/core.c ****     
 755:/home/anaz/blinkyblocks/build/src-bobby/meldinterp-runtime/core.c ****     /* new tuple */
 756:/home/anaz/blinkyblocks/build/src-bobby/meldinterp-runtime/core.c ****     if(persistents->total == persistents->current) {
 757:/home/anaz/blinkyblocks/build/src-bobby/meldinterp-runtime/core.c ****       if(persistents->total == 0)
 758:/home/anaz/blinkyblocks/build/src-bobby/meldinterp-runtime/core.c ****         persistents->total = PERSISTENT_INITIAL;
 759:/home/anaz/blinkyblocks/build/src-bobby/meldinterp-runtime/core.c ****       else
 760:/home/anaz/blinkyblocks/build/src-bobby/meldinterp-runtime/core.c ****         persistents->total *= 2;
 761:/home/anaz/blinkyblocks/build/src-bobby/meldinterp-runtime/core.c ****         
 762:/home/anaz/blinkyblocks/build/src-bobby/meldinterp-runtime/core.c ****       persistents->array = realloc(persistents->array, size * persistents->total);
 763:/home/anaz/blinkyblocks/build/src-bobby/meldinterp-runtime/core.c ****     }
 764:/home/anaz/blinkyblocks/build/src-bobby/meldinterp-runtime/core.c ****     
 765:/home/anaz/blinkyblocks/build/src-bobby/meldinterp-runtime/core.c ****     memcpy(persistents->array + persistents->current * size, tuple, size);
 766:/home/anaz/blinkyblocks/build/src-bobby/meldinterp-runtime/core.c ****     ++persistents->current;
 767:/home/anaz/blinkyblocks/build/src-bobby/meldinterp-runtime/core.c ****     
 768:/home/anaz/blinkyblocks/build/src-bobby/meldinterp-runtime/core.c ****     tuple_process(tuple, TYPE_START(type), isNew, reg);
 769:/home/anaz/blinkyblocks/build/src-bobby/meldinterp-runtime/core.c ****     
 770:/home/anaz/blinkyblocks/build/src-bobby/meldinterp-runtime/core.c ****     return;
 771:/home/anaz/blinkyblocks/build/src-bobby/meldinterp-runtime/core.c ****   }
 772:/home/anaz/blinkyblocks/build/src-bobby/meldinterp-runtime/core.c ****   
 773:/home/anaz/blinkyblocks/build/src-bobby/meldinterp-runtime/core.c ****   if (!TYPE_IS_AGG(type) || TYPE_IS_LINEAR(type))
 774:/home/anaz/blinkyblocks/build/src-bobby/meldinterp-runtime/core.c ****     {
 775:/home/anaz/blinkyblocks/build/src-bobby/meldinterp-runtime/core.c ****       tuple_queue *queue = &TUPLES[type];
 776:/home/anaz/blinkyblocks/build/src-bobby/meldinterp-runtime/core.c ****       tuple_entry** current;
 777:/home/anaz/blinkyblocks/build/src-bobby/meldinterp-runtime/core.c ****       tuple_entry* cur;
 778:/home/anaz/blinkyblocks/build/src-bobby/meldinterp-runtime/core.c **** 		
 779:/home/anaz/blinkyblocks/build/src-bobby/meldinterp-runtime/core.c ****       for (current = &queue->head;
 780:/home/anaz/blinkyblocks/build/src-bobby/meldinterp-runtime/core.c **** 	   *current != NULL;
 781:/home/anaz/blinkyblocks/build/src-bobby/meldinterp-runtime/core.c **** 	   current = &(*current)->next)
 782:/home/anaz/blinkyblocks/build/src-bobby/meldinterp-runtime/core.c **** 	{
 783:/home/anaz/blinkyblocks/build/src-bobby/meldinterp-runtime/core.c **** 	  cur = *current;
 784:/home/anaz/blinkyblocks/build/src-bobby/meldinterp-runtime/core.c **** 
 785:/home/anaz/blinkyblocks/build/src-bobby/meldinterp-runtime/core.c **** 	  if (memcmp(cur->tuple,
 786:/home/anaz/blinkyblocks/build/src-bobby/meldinterp-runtime/core.c **** 		     tuple,
 787:/home/anaz/blinkyblocks/build/src-bobby/meldinterp-runtime/core.c **** 		     TYPE_SIZE(type)) == 0)
 788:/home/anaz/blinkyblocks/build/src-bobby/meldinterp-runtime/core.c **** 	    {
 789:/home/anaz/blinkyblocks/build/src-bobby/meldinterp-runtime/core.c **** 	      cur->records.count += isNew;
 790:/home/anaz/blinkyblocks/build/src-bobby/meldinterp-runtime/core.c **** 
 791:/home/anaz/blinkyblocks/build/src-bobby/meldinterp-runtime/core.c **** 	      if (cur->records.count <= 0) {
 792:/home/anaz/blinkyblocks/build/src-bobby/meldinterp-runtime/core.c **** 		/* only process if it isn't linear */
 793:/home/anaz/blinkyblocks/build/src-bobby/meldinterp-runtime/core.c **** 		if (!TYPE_IS_LINEAR(type)) {
 794:/home/anaz/blinkyblocks/build/src-bobby/meldinterp-runtime/core.c **** 		  tuple_process(tuple, TYPE_START(TUPLE_TYPE(tuple)), -1, reg);
 795:/home/anaz/blinkyblocks/build/src-bobby/meldinterp-runtime/core.c **** 		  FREE_TUPLE(queue_dequeue_pos(queue, current));
 796:/home/anaz/blinkyblocks/build/src-bobby/meldinterp-runtime/core.c **** 		} else {
 797:/home/anaz/blinkyblocks/build/src-bobby/meldinterp-runtime/core.c **** 		  if(DELTA_WITH(type)) {
 798:/home/anaz/blinkyblocks/build/src-bobby/meldinterp-runtime/core.c **** 		    if(OLDTUPLES[type])
 799:/home/anaz/blinkyblocks/build/src-bobby/meldinterp-runtime/core.c **** 		      FREE_TUPLE(OLDTUPLES[type]);
 800:/home/anaz/blinkyblocks/build/src-bobby/meldinterp-runtime/core.c ****                 
 801:/home/anaz/blinkyblocks/build/src-bobby/meldinterp-runtime/core.c **** 		    OLDTUPLES[type] = queue_dequeue_pos(queue, current);
 802:/home/anaz/blinkyblocks/build/src-bobby/meldinterp-runtime/core.c **** 		  } else
 803:/home/anaz/blinkyblocks/build/src-bobby/meldinterp-runtime/core.c **** 		    FREE_TUPLE(queue_dequeue_pos(queue, current));
 804:/home/anaz/blinkyblocks/build/src-bobby/meldinterp-runtime/core.c **** 		}
 805:/home/anaz/blinkyblocks/build/src-bobby/meldinterp-runtime/core.c **** 	      }
 806:/home/anaz/blinkyblocks/build/src-bobby/meldinterp-runtime/core.c **** 
 807:/home/anaz/blinkyblocks/build/src-bobby/meldinterp-runtime/core.c **** 	      FREE_TUPLE(tuple);
 808:/home/anaz/blinkyblocks/build/src-bobby/meldinterp-runtime/core.c **** 
 809:/home/anaz/blinkyblocks/build/src-bobby/meldinterp-runtime/core.c **** 	      return;
 810:/home/anaz/blinkyblocks/build/src-bobby/meldinterp-runtime/core.c **** 	    }
 811:/home/anaz/blinkyblocks/build/src-bobby/meldinterp-runtime/core.c **** 	}
 812:/home/anaz/blinkyblocks/build/src-bobby/meldinterp-runtime/core.c **** 
 813:/home/anaz/blinkyblocks/build/src-bobby/meldinterp-runtime/core.c ****       // if deleting, return
 814:/home/anaz/blinkyblocks/build/src-bobby/meldinterp-runtime/core.c ****       if (isNew <= 0) {
 815:/home/anaz/blinkyblocks/build/src-bobby/meldinterp-runtime/core.c **** 	FREE_TUPLE(tuple);
 816:/home/anaz/blinkyblocks/build/src-bobby/meldinterp-runtime/core.c **** 	return;
 817:/home/anaz/blinkyblocks/build/src-bobby/meldinterp-runtime/core.c ****       }
 818:/home/anaz/blinkyblocks/build/src-bobby/meldinterp-runtime/core.c **** 
 819:/home/anaz/blinkyblocks/build/src-bobby/meldinterp-runtime/core.c ****       queue_enqueue(queue, tuple, (record_type) isNew);
 820:/home/anaz/blinkyblocks/build/src-bobby/meldinterp-runtime/core.c **** 
 821:/home/anaz/blinkyblocks/build/src-bobby/meldinterp-runtime/core.c ****       if(TYPE_IS_LINEAR(type) && DELTA_WITH(type))
 822:/home/anaz/blinkyblocks/build/src-bobby/meldinterp-runtime/core.c **** 	process_deltas(tuple, type, reg);
 823:/home/anaz/blinkyblocks/build/src-bobby/meldinterp-runtime/core.c **** 
 824:/home/anaz/blinkyblocks/build/src-bobby/meldinterp-runtime/core.c ****       tuple_process(tuple, TYPE_START(TUPLE_TYPE(tuple)), isNew, reg);
 825:/home/anaz/blinkyblocks/build/src-bobby/meldinterp-runtime/core.c **** 
 826:/home/anaz/blinkyblocks/build/src-bobby/meldinterp-runtime/core.c ****       return;
 827:/home/anaz/blinkyblocks/build/src-bobby/meldinterp-runtime/core.c ****     }
 828:/home/anaz/blinkyblocks/build/src-bobby/meldinterp-runtime/core.c **** 
 829:/home/anaz/blinkyblocks/build/src-bobby/meldinterp-runtime/core.c ****   unsigned char type_aggregate = TYPE_AGGREGATE(type);
 830:/home/anaz/blinkyblocks/build/src-bobby/meldinterp-runtime/core.c ****   unsigned char field_aggregate = AGG_FIELD(type_aggregate);
 831:/home/anaz/blinkyblocks/build/src-bobby/meldinterp-runtime/core.c **** 
 832:/home/anaz/blinkyblocks/build/src-bobby/meldinterp-runtime/core.c ****   tuple_entry **current;
 833:/home/anaz/blinkyblocks/build/src-bobby/meldinterp-runtime/core.c ****   tuple_entry *cur;
 834:/home/anaz/blinkyblocks/build/src-bobby/meldinterp-runtime/core.c ****   tuple_queue *queue = &(TUPLES[type]);
 835:/home/anaz/blinkyblocks/build/src-bobby/meldinterp-runtime/core.c **** 	
 836:/home/anaz/blinkyblocks/build/src-bobby/meldinterp-runtime/core.c ****   for (current = &queue->head;
 837:/home/anaz/blinkyblocks/build/src-bobby/meldinterp-runtime/core.c ****        (*current) != NULL;
 838:/home/anaz/blinkyblocks/build/src-bobby/meldinterp-runtime/core.c ****        current = &(*current)->next)
 839:/home/anaz/blinkyblocks/build/src-bobby/meldinterp-runtime/core.c ****     {
 840:/home/anaz/blinkyblocks/build/src-bobby/meldinterp-runtime/core.c ****       cur = *current;
 841:/home/anaz/blinkyblocks/build/src-bobby/meldinterp-runtime/core.c ****     
 842:/home/anaz/blinkyblocks/build/src-bobby/meldinterp-runtime/core.c ****       size_t sizeBegin = TYPE_FIELD_SIZE + TYPE_ARG_OFFSET(type, field_aggregate);
 843:/home/anaz/blinkyblocks/build/src-bobby/meldinterp-runtime/core.c ****       char *start = (char*)(cur->tuple);
 844:/home/anaz/blinkyblocks/build/src-bobby/meldinterp-runtime/core.c **** 
 845:/home/anaz/blinkyblocks/build/src-bobby/meldinterp-runtime/core.c ****       if(memcmp(start, tuple, sizeBegin))
 846:/home/anaz/blinkyblocks/build/src-bobby/meldinterp-runtime/core.c **** 	continue;
 847:/home/anaz/blinkyblocks/build/src-bobby/meldinterp-runtime/core.c **** 
 848:/home/anaz/blinkyblocks/build/src-bobby/meldinterp-runtime/core.c ****       /*
 849:/home/anaz/blinkyblocks/build/src-bobby/meldinterp-runtime/core.c **** 	size_t sizeOffset = sizeBegin + TYPE_ARG_SIZE(type, field_aggregate);
 850:/home/anaz/blinkyblocks/build/src-bobby/meldinterp-runtime/core.c **** 	size_t sizeEnd = TYPE_SIZE(type) - sizeOffset;
 851:/home/anaz/blinkyblocks/build/src-bobby/meldinterp-runtime/core.c **** 
 852:/home/anaz/blinkyblocks/build/src-bobby/meldinterp-runtime/core.c **** 	if (memcmp(start + sizeOffset, (char*)tuple + sizeOffset, sizeEnd))
 853:/home/anaz/blinkyblocks/build/src-bobby/meldinterp-runtime/core.c **** 	continue;*/
 854:/home/anaz/blinkyblocks/build/src-bobby/meldinterp-runtime/core.c **** 
 855:/home/anaz/blinkyblocks/build/src-bobby/meldinterp-runtime/core.c ****       tuple_queue *agg_queue = cur->records.agg_queue;
 856:/home/anaz/blinkyblocks/build/src-bobby/meldinterp-runtime/core.c **** 
 857:/home/anaz/blinkyblocks/build/src-bobby/meldinterp-runtime/core.c ****       /* AGG_FIRST aggregate optimization */
 858:/home/anaz/blinkyblocks/build/src-bobby/meldinterp-runtime/core.c ****       if(AGG_AGG(type_aggregate) == AGG_FIRST
 859:/home/anaz/blinkyblocks/build/src-bobby/meldinterp-runtime/core.c **** 	 && isNew > 0
 860:/home/anaz/blinkyblocks/build/src-bobby/meldinterp-runtime/core.c **** 	 && !queue_is_empty(agg_queue))
 861:/home/anaz/blinkyblocks/build/src-bobby/meldinterp-runtime/core.c **** 	{
 862:/home/anaz/blinkyblocks/build/src-bobby/meldinterp-runtime/core.c **** 	  FREE_TUPLE(tuple);
 863:/home/anaz/blinkyblocks/build/src-bobby/meldinterp-runtime/core.c **** 	  return;
 864:/home/anaz/blinkyblocks/build/src-bobby/meldinterp-runtime/core.c **** 	}
 865:/home/anaz/blinkyblocks/build/src-bobby/meldinterp-runtime/core.c **** 
 866:/home/anaz/blinkyblocks/build/src-bobby/meldinterp-runtime/core.c ****       tuple_entry** current2;
 867:/home/anaz/blinkyblocks/build/src-bobby/meldinterp-runtime/core.c ****       tuple_entry* cur2;
 868:/home/anaz/blinkyblocks/build/src-bobby/meldinterp-runtime/core.c **** 		
 869:/home/anaz/blinkyblocks/build/src-bobby/meldinterp-runtime/core.c ****       for (current2 = &agg_queue->head;
 870:/home/anaz/blinkyblocks/build/src-bobby/meldinterp-runtime/core.c **** 	   *current2 != NULL;
 871:/home/anaz/blinkyblocks/build/src-bobby/meldinterp-runtime/core.c **** 	   current2 = &(*current2)->next)
 872:/home/anaz/blinkyblocks/build/src-bobby/meldinterp-runtime/core.c **** 	{
 873:/home/anaz/blinkyblocks/build/src-bobby/meldinterp-runtime/core.c **** 	  cur2 = *current2;
 874:/home/anaz/blinkyblocks/build/src-bobby/meldinterp-runtime/core.c **** 
 875:/home/anaz/blinkyblocks/build/src-bobby/meldinterp-runtime/core.c **** 	  if (memcmp(cur2->tuple, tuple, TYPE_SIZE(type)) == 0)
 876:/home/anaz/blinkyblocks/build/src-bobby/meldinterp-runtime/core.c **** 	    {
 877:/home/anaz/blinkyblocks/build/src-bobby/meldinterp-runtime/core.c **** 	      cur2->records.count += isNew;
 878:/home/anaz/blinkyblocks/build/src-bobby/meldinterp-runtime/core.c **** 
 879:/home/anaz/blinkyblocks/build/src-bobby/meldinterp-runtime/core.c **** 	      if (cur2->records.count <= 0) {
 880:/home/anaz/blinkyblocks/build/src-bobby/meldinterp-runtime/core.c **** 		// remove it
 881:/home/anaz/blinkyblocks/build/src-bobby/meldinterp-runtime/core.c **** 		FREE_TUPLE(queue_dequeue_pos(agg_queue, current2));
 882:/home/anaz/blinkyblocks/build/src-bobby/meldinterp-runtime/core.c **** 
 883:/home/anaz/blinkyblocks/build/src-bobby/meldinterp-runtime/core.c **** 		if (queue_is_empty(agg_queue)) {
 884:/home/anaz/blinkyblocks/build/src-bobby/meldinterp-runtime/core.c **** 		  /* aggregate is removed */
 885:/home/anaz/blinkyblocks/build/src-bobby/meldinterp-runtime/core.c **** 		  void *aggTuple = queue_dequeue_pos(queue, current);
 886:/home/anaz/blinkyblocks/build/src-bobby/meldinterp-runtime/core.c **** 						
 887:/home/anaz/blinkyblocks/build/src-bobby/meldinterp-runtime/core.c **** 		  /* delete queue */
 888:/home/anaz/blinkyblocks/build/src-bobby/meldinterp-runtime/core.c **** 		  free(agg_queue);
 889:/home/anaz/blinkyblocks/build/src-bobby/meldinterp-runtime/core.c **** 
 890:/home/anaz/blinkyblocks/build/src-bobby/meldinterp-runtime/core.c **** 		  tuple_process(aggTuple, TYPE_START(TUPLE_TYPE(aggTuple)), -1, reg);
 891:/home/anaz/blinkyblocks/build/src-bobby/meldinterp-runtime/core.c **** 		  aggregate_free(aggTuple, field_aggregate, AGG_AGG(type_aggregate));
 892:/home/anaz/blinkyblocks/build/src-bobby/meldinterp-runtime/core.c **** 		  FREE_TUPLE(aggTuple);
 893:/home/anaz/blinkyblocks/build/src-bobby/meldinterp-runtime/core.c **** 		} else
 894:/home/anaz/blinkyblocks/build/src-bobby/meldinterp-runtime/core.c **** 		  aggregate_recalc(cur, reg, false);
 895:/home/anaz/blinkyblocks/build/src-bobby/meldinterp-runtime/core.c **** 	      } else
 896:/home/anaz/blinkyblocks/build/src-bobby/meldinterp-runtime/core.c **** 		aggregate_recalc(cur, reg, false);
 897:/home/anaz/blinkyblocks/build/src-bobby/meldinterp-runtime/core.c **** 
 898:/home/anaz/blinkyblocks/build/src-bobby/meldinterp-runtime/core.c **** 	      FREE_TUPLE(tuple);
 899:/home/anaz/blinkyblocks/build/src-bobby/meldinterp-runtime/core.c **** 	      return;
 900:/home/anaz/blinkyblocks/build/src-bobby/meldinterp-runtime/core.c **** 	    }
 901:/home/anaz/blinkyblocks/build/src-bobby/meldinterp-runtime/core.c **** 	}
 902:/home/anaz/blinkyblocks/build/src-bobby/meldinterp-runtime/core.c **** 
 903:/home/anaz/blinkyblocks/build/src-bobby/meldinterp-runtime/core.c ****       // if deleting, return
 904:/home/anaz/blinkyblocks/build/src-bobby/meldinterp-runtime/core.c ****       if (isNew <= 0) {
 905:/home/anaz/blinkyblocks/build/src-bobby/meldinterp-runtime/core.c **** 	FREE_TUPLE(tuple);
 906:/home/anaz/blinkyblocks/build/src-bobby/meldinterp-runtime/core.c **** 	return;
 907:/home/anaz/blinkyblocks/build/src-bobby/meldinterp-runtime/core.c ****       }
 908:/home/anaz/blinkyblocks/build/src-bobby/meldinterp-runtime/core.c **** 
 909:/home/anaz/blinkyblocks/build/src-bobby/meldinterp-runtime/core.c ****       queue_enqueue(agg_queue, tuple, (record_type) isNew);
 910:/home/anaz/blinkyblocks/build/src-bobby/meldinterp-runtime/core.c ****       aggregate_recalc(cur, reg, false);
 911:/home/anaz/blinkyblocks/build/src-bobby/meldinterp-runtime/core.c **** 		
 912:/home/anaz/blinkyblocks/build/src-bobby/meldinterp-runtime/core.c ****       return;
 913:/home/anaz/blinkyblocks/build/src-bobby/meldinterp-runtime/core.c ****     }
 914:/home/anaz/blinkyblocks/build/src-bobby/meldinterp-runtime/core.c **** 
 915:/home/anaz/blinkyblocks/build/src-bobby/meldinterp-runtime/core.c ****   // if deleting, return
 916:/home/anaz/blinkyblocks/build/src-bobby/meldinterp-runtime/core.c ****   if (isNew <= 0) {
 917:/home/anaz/blinkyblocks/build/src-bobby/meldinterp-runtime/core.c ****     FREE_TUPLE(tuple);
 918:/home/anaz/blinkyblocks/build/src-bobby/meldinterp-runtime/core.c ****     return;
 919:/home/anaz/blinkyblocks/build/src-bobby/meldinterp-runtime/core.c ****   }
 920:/home/anaz/blinkyblocks/build/src-bobby/meldinterp-runtime/core.c **** 
 921:/home/anaz/blinkyblocks/build/src-bobby/meldinterp-runtime/core.c ****   // So now we know we have a new tuple
 922:/home/anaz/blinkyblocks/build/src-bobby/meldinterp-runtime/core.c ****   tuple_t tuple_cpy = ALLOC_TUPLE(TYPE_SIZE(type));
 923:/home/anaz/blinkyblocks/build/src-bobby/meldinterp-runtime/core.c ****   memcpy(tuple_cpy, tuple, TYPE_SIZE(type));
 924:/home/anaz/blinkyblocks/build/src-bobby/meldinterp-runtime/core.c **** 
 925:/home/anaz/blinkyblocks/build/src-bobby/meldinterp-runtime/core.c ****   /* create aggregate queue */
 926:/home/anaz/blinkyblocks/build/src-bobby/meldinterp-runtime/core.c ****   tuple_queue *agg_queue = malloc(sizeof(tuple_queue));
 927:/home/anaz/blinkyblocks/build/src-bobby/meldinterp-runtime/core.c ****   
 928:/home/anaz/blinkyblocks/build/src-bobby/meldinterp-runtime/core.c ****   queue_init(agg_queue);
 929:/home/anaz/blinkyblocks/build/src-bobby/meldinterp-runtime/core.c ****   
 930:/home/anaz/blinkyblocks/build/src-bobby/meldinterp-runtime/core.c ****   queue_enqueue(agg_queue, tuple, (record_type) isNew);
 931:/home/anaz/blinkyblocks/build/src-bobby/meldinterp-runtime/core.c ****   tuple_entry *entry =
 932:/home/anaz/blinkyblocks/build/src-bobby/meldinterp-runtime/core.c ****     queue_enqueue(&TUPLES[type], tuple_cpy, (record_type)agg_queue);
 933:/home/anaz/blinkyblocks/build/src-bobby/meldinterp-runtime/core.c **** 
 934:/home/anaz/blinkyblocks/build/src-bobby/meldinterp-runtime/core.c ****   aggregate_recalc(entry, reg, true);
 935:/home/anaz/blinkyblocks/build/src-bobby/meldinterp-runtime/core.c ****   tuple_process(tuple, TYPE_START(type), isNew, reg);
 936:/home/anaz/blinkyblocks/build/src-bobby/meldinterp-runtime/core.c **** }
 937:/home/anaz/blinkyblocks/build/src-bobby/meldinterp-runtime/core.c **** 
 938:/home/anaz/blinkyblocks/build/src-bobby/meldinterp-runtime/core.c **** int
 939:/home/anaz/blinkyblocks/build/src-bobby/meldinterp-runtime/core.c **** queue_length (tuple_queue *queue)
 940:/home/anaz/blinkyblocks/build/src-bobby/meldinterp-runtime/core.c **** {
 1222               		.loc 1 940 0
 1223               	.LVL120:
 1224               	/* prologue: function */
 1225               	/* frame size = 0 */
 1226               	/* stack size = 0 */
 1227               	.L__stack_usage = 0
 941:/home/anaz/blinkyblocks/build/src-bobby/meldinterp-runtime/core.c ****   int i;
 942:/home/anaz/blinkyblocks/build/src-bobby/meldinterp-runtime/core.c ****   tuple_entry *entry = queue->head;
 1228               		.loc 1 942 0
 1229 05ca DC01      		movw r26,r24
 1230 05cc ED91      		ld r30,X+
 1231 05ce FC91      		ld r31,X
 1232               	.LVL121:
 943:/home/anaz/blinkyblocks/build/src-bobby/meldinterp-runtime/core.c ****   
 944:/home/anaz/blinkyblocks/build/src-bobby/meldinterp-runtime/core.c ****   for (i = 0; entry != NULL; entry = entry->next, i++);
 1233               		.loc 1 944 0
 1234 05d0 20E0      		ldi r18,0
 1235 05d2 30E0      		ldi r19,0
 1236 05d4 00C0      		rjmp .L82
 1237               	.LVL122:
 1238               	.L83:
 1239               		.loc 1 944 0 is_stmt 0 discriminator 2
 1240 05d6 0190      		ld __tmp_reg__,Z+
 1241 05d8 F081      		ld r31,Z
 1242 05da E02D      		mov r30,__tmp_reg__
 1243               	.LVL123:
 1244 05dc 2F5F      		subi r18,-1
 1245 05de 3F4F      		sbci r19,-1
 1246               	.LVL124:
 1247               	.L82:
 1248               		.loc 1 944 0 discriminator 1
 1249 05e0 3097      		sbiw r30,0
 1250 05e2 01F4      		brne .L83
 945:/home/anaz/blinkyblocks/build/src-bobby/meldinterp-runtime/core.c **** 
 946:/home/anaz/blinkyblocks/build/src-bobby/meldinterp-runtime/core.c ****   return i;
 947:/home/anaz/blinkyblocks/build/src-bobby/meldinterp-runtime/core.c **** }
 1251               		.loc 1 947 0 is_stmt 1
 1252 05e4 C901      		movw r24,r18
 1253               	.LVL125:
 1254 05e6 0895      		ret
 1255               	.LFE41:
 1257               		.section	.rodata.str1.1
 1258               	.LC7:
 1259 006a 454C 5345 		.string	"ELSE NOT IMPLEMENTED YET!\n"
 1259      204E 4F54 
 1259      2049 4D50 
 1259      4C45 4D45 
 1259      4E54 4544 
 1260               	.LC8:
 1261 0085 494E 5641 		.string	"INVALID INSTRUCTION %u"
 1261      4C49 4420 
 1261      494E 5354 
 1261      5255 4354 
 1261      494F 4E20 
 1262               	.LC9:
 1263 009c 4341 4C4C 		.string	"CALL_ARGS(pc) <= 5"
 1263      5F41 5247 
 1263      5328 7063 
 1263      2920 3C3D 
 1263      2035 00
 1264               	.global	__nesf2
 1265               	.global	__eqsf2
 1266               	.global	__ltsf2
 1267               	.global	__lesf2
 1268               	.global	__gtsf2
 1269               	.global	__gesf2
 1270               	.global	__addsf3
 1271               	.global	__subsf3
 1272               	.global	__mulsf3
 1273               	.global	__divsf3
 1274               		.text
 1275               	.global	tuple_process
 1277               	tuple_process:
 1278               	.LFB42:
 948:/home/anaz/blinkyblocks/build/src-bobby/meldinterp-runtime/core.c **** 
 949:/home/anaz/blinkyblocks/build/src-bobby/meldinterp-runtime/core.c **** int tuple_process(tuple_t tuple, const unsigned char *pc,
 950:/home/anaz/blinkyblocks/build/src-bobby/meldinterp-runtime/core.c **** 		  int isNew, Register *reg)
 951:/home/anaz/blinkyblocks/build/src-bobby/meldinterp-runtime/core.c **** {
 1279               		.loc 1 951 0
 1280               	.LVL126:
 1281 05e8 2F92      		push r2
 1282               	.LCFI56:
 1283 05ea 3F92      		push r3
 1284               	.LCFI57:
 1285 05ec 4F92      		push r4
 1286               	.LCFI58:
 1287 05ee 5F92      		push r5
 1288               	.LCFI59:
 1289 05f0 6F92      		push r6
 1290               	.LCFI60:
 1291 05f2 7F92      		push r7
 1292               	.LCFI61:
 1293 05f4 8F92      		push r8
 1294               	.LCFI62:
 1295 05f6 9F92      		push r9
 1296               	.LCFI63:
 1297 05f8 AF92      		push r10
 1298               	.LCFI64:
 1299 05fa BF92      		push r11
 1300               	.LCFI65:
 1301 05fc CF92      		push r12
 1302               	.LCFI66:
 1303 05fe DF92      		push r13
 1304               	.LCFI67:
 1305 0600 EF92      		push r14
 1306               	.LCFI68:
 1307 0602 FF92      		push r15
 1308               	.LCFI69:
 1309 0604 0F93      		push r16
 1310               	.LCFI70:
 1311 0606 1F93      		push r17
 1312               	.LCFI71:
 1313 0608 CF93      		push r28
 1314               	.LCFI72:
 1315 060a DF93      		push r29
 1316               	.LCFI73:
 1317 060c CDB7      		in r28,__SP_L__
 1318 060e DEB7      		in r29,__SP_H__
 1319               	.LCFI74:
 1320 0610 6697      		sbiw r28,22
 1321               	.LCFI75:
 1322 0612 CDBF      		out __SP_L__,r28
 1323 0614 DEBF      		out __SP_H__,r29
 1324               	/* prologue: function */
 1325               	/* frame size = 22 */
 1326               	/* stack size = 40 */
 1327               	.L__stack_usage = 40
 1328 0616 8B83      		std Y+3,r24
 1329 0618 9C83      		std Y+4,r25
 1330 061a 5B01      		movw r10,r22
 1331 061c 4B87      		std Y+11,r20
 1332 061e 5C87      		std Y+12,r21
 1333 0620 2901      		movw r4,r18
 952:/home/anaz/blinkyblocks/build/src-bobby/meldinterp-runtime/core.c ****   for (;;) {
 953:/home/anaz/blinkyblocks/build/src-bobby/meldinterp-runtime/core.c ****     switch (0xf0 & *(const unsigned char*)pc) {
 954:/home/anaz/blinkyblocks/build/src-bobby/meldinterp-runtime/core.c **** 
 955:/home/anaz/blinkyblocks/build/src-bobby/meldinterp-runtime/core.c ****     case 0x00: // some '8-bit' instruction
 956:/home/anaz/blinkyblocks/build/src-bobby/meldinterp-runtime/core.c ****       switch (0x0f & *(const unsigned char*)pc) {
 957:/home/anaz/blinkyblocks/build/src-bobby/meldinterp-runtime/core.c **** 
 958:/home/anaz/blinkyblocks/build/src-bobby/meldinterp-runtime/core.c ****       case 0x00: // RETURN
 959:/home/anaz/blinkyblocks/build/src-bobby/meldinterp-runtime/core.c **** #ifdef DEBUG_INSTRS
 960:/home/anaz/blinkyblocks/build/src-bobby/meldinterp-runtime/core.c **** 	printf("RETURN\n");
 961:/home/anaz/blinkyblocks/build/src-bobby/meldinterp-runtime/core.c **** #endif
 962:/home/anaz/blinkyblocks/build/src-bobby/meldinterp-runtime/core.c **** 	return RET_RET;
 963:/home/anaz/blinkyblocks/build/src-bobby/meldinterp-runtime/core.c **** 	break;
 964:/home/anaz/blinkyblocks/build/src-bobby/meldinterp-runtime/core.c **** 
 965:/home/anaz/blinkyblocks/build/src-bobby/meldinterp-runtime/core.c ****       case 0x01: // NEXT
 966:/home/anaz/blinkyblocks/build/src-bobby/meldinterp-runtime/core.c **** #ifdef DEBUG_INSTRS
 967:/home/anaz/blinkyblocks/build/src-bobby/meldinterp-runtime/core.c **** 	printf("NEXT\n");
 968:/home/anaz/blinkyblocks/build/src-bobby/meldinterp-runtime/core.c **** #endif
 969:/home/anaz/blinkyblocks/build/src-bobby/meldinterp-runtime/core.c **** 	return RET_NEXT;
 970:/home/anaz/blinkyblocks/build/src-bobby/meldinterp-runtime/core.c **** 	break;
 971:/home/anaz/blinkyblocks/build/src-bobby/meldinterp-runtime/core.c **** 
 972:/home/anaz/blinkyblocks/build/src-bobby/meldinterp-runtime/core.c ****       case 0x02: // ELSE
 973:/home/anaz/blinkyblocks/build/src-bobby/meldinterp-runtime/core.c **** 	fprintf(stderr, "ELSE NOT IMPLEMENTED YET!\n");
 974:/home/anaz/blinkyblocks/build/src-bobby/meldinterp-runtime/core.c **** 	assert(0);
 975:/home/anaz/blinkyblocks/build/src-bobby/meldinterp-runtime/core.c **** 	break;
 976:/home/anaz/blinkyblocks/build/src-bobby/meldinterp-runtime/core.c **** 
 977:/home/anaz/blinkyblocks/build/src-bobby/meldinterp-runtime/core.c ****       case 0x03: // NOP
 978:/home/anaz/blinkyblocks/build/src-bobby/meldinterp-runtime/core.c **** 	pc++;
 979:/home/anaz/blinkyblocks/build/src-bobby/meldinterp-runtime/core.c **** 	break;
 980:/home/anaz/blinkyblocks/build/src-bobby/meldinterp-runtime/core.c **** 
 981:/home/anaz/blinkyblocks/build/src-bobby/meldinterp-runtime/core.c ****       case 0x08: // SEND
 982:/home/anaz/blinkyblocks/build/src-bobby/meldinterp-runtime/core.c ****       case 0x09: // SEND
 983:/home/anaz/blinkyblocks/build/src-bobby/meldinterp-runtime/core.c ****       case 0x0a: // SEND
 984:/home/anaz/blinkyblocks/build/src-bobby/meldinterp-runtime/core.c ****       case 0x0b: // SEND
 985:/home/anaz/blinkyblocks/build/src-bobby/meldinterp-runtime/core.c **** 	{
 986:/home/anaz/blinkyblocks/build/src-bobby/meldinterp-runtime/core.c **** 	const unsigned char *new_pc = pc+3;
 987:/home/anaz/blinkyblocks/build/src-bobby/meldinterp-runtime/core.c **** 	Register send_reg = reg[SEND_MSG(pc)];
 988:/home/anaz/blinkyblocks/build/src-bobby/meldinterp-runtime/core.c **** 	Register send_rt = reg[SEND_RT(pc)];
 989:/home/anaz/blinkyblocks/build/src-bobby/meldinterp-runtime/core.c **** 
 990:/home/anaz/blinkyblocks/build/src-bobby/meldinterp-runtime/core.c **** #ifdef DEBUG_INSTRS
 991:/home/anaz/blinkyblocks/build/src-bobby/meldinterp-runtime/core.c **** 	printf("SEND\n");
 992:/home/anaz/blinkyblocks/build/src-bobby/meldinterp-runtime/core.c **** #endif
 993:/home/anaz/blinkyblocks/build/src-bobby/meldinterp-runtime/core.c **** 
 994:/home/anaz/blinkyblocks/build/src-bobby/meldinterp-runtime/core.c **** 	tuple_send((tuple_t)MELD_CONVERT_REG_TO_PTR(send_reg),
 995:/home/anaz/blinkyblocks/build/src-bobby/meldinterp-runtime/core.c **** 		   MELD_CONVERT_REG_TO_PTR(send_rt),
 996:/home/anaz/blinkyblocks/build/src-bobby/meldinterp-runtime/core.c **** 		   MELD_INT(eval(SEND_DELAY(pc), &tuple, &new_pc, reg)), isNew);
 997:/home/anaz/blinkyblocks/build/src-bobby/meldinterp-runtime/core.c **** 
 998:/home/anaz/blinkyblocks/build/src-bobby/meldinterp-runtime/core.c **** 	// Advance the program counter past the send instruction
 999:/home/anaz/blinkyblocks/build/src-bobby/meldinterp-runtime/core.c **** 	pc = new_pc;
1000:/home/anaz/blinkyblocks/build/src-bobby/meldinterp-runtime/core.c **** 	break;
1001:/home/anaz/blinkyblocks/build/src-bobby/meldinterp-runtime/core.c **** 	}
1002:/home/anaz/blinkyblocks/build/src-bobby/meldinterp-runtime/core.c **** 
1003:/home/anaz/blinkyblocks/build/src-bobby/meldinterp-runtime/core.c ****       default:
1004:/home/anaz/blinkyblocks/build/src-bobby/meldinterp-runtime/core.c **** 	fprintf(stderr, "INVALID INSTRUCTION %u", *pc);
1005:/home/anaz/blinkyblocks/build/src-bobby/meldinterp-runtime/core.c **** 	assert(0);
1006:/home/anaz/blinkyblocks/build/src-bobby/meldinterp-runtime/core.c **** 	break;
1007:/home/anaz/blinkyblocks/build/src-bobby/meldinterp-runtime/core.c ****       }
1008:/home/anaz/blinkyblocks/build/src-bobby/meldinterp-runtime/core.c ****       break;
1009:/home/anaz/blinkyblocks/build/src-bobby/meldinterp-runtime/core.c **** 
1010:/home/anaz/blinkyblocks/build/src-bobby/meldinterp-runtime/core.c ****     case 0x20: // CALL
1011:/home/anaz/blinkyblocks/build/src-bobby/meldinterp-runtime/core.c ****       {
1012:/home/anaz/blinkyblocks/build/src-bobby/meldinterp-runtime/core.c ****       Register *dst = &reg[CALL_DST(pc)];
1013:/home/anaz/blinkyblocks/build/src-bobby/meldinterp-runtime/core.c ****       Register args[CALL_ARGS(pc)];
1014:/home/anaz/blinkyblocks/build/src-bobby/meldinterp-runtime/core.c **** 
1015:/home/anaz/blinkyblocks/build/src-bobby/meldinterp-runtime/core.c ****       assert(CALL_ARGS(pc) <= 5);
1016:/home/anaz/blinkyblocks/build/src-bobby/meldinterp-runtime/core.c **** 
1017:/home/anaz/blinkyblocks/build/src-bobby/meldinterp-runtime/core.c **** #ifdef DEBUG_INSTRS
1018:/home/anaz/blinkyblocks/build/src-bobby/meldinterp-runtime/core.c ****       printf("CALL %d (%d)\n", CALL_ID(pc), CALL_ARGS(pc));
1019:/home/anaz/blinkyblocks/build/src-bobby/meldinterp-runtime/core.c **** #endif
1020:/home/anaz/blinkyblocks/build/src-bobby/meldinterp-runtime/core.c ****         
1021:/home/anaz/blinkyblocks/build/src-bobby/meldinterp-runtime/core.c ****       int i;
1022:/home/anaz/blinkyblocks/build/src-bobby/meldinterp-runtime/core.c ****       const unsigned char *new_pc = pc+2;
1023:/home/anaz/blinkyblocks/build/src-bobby/meldinterp-runtime/core.c ****       for (i = 0; i < CALL_ARGS(pc); i++) {
1024:/home/anaz/blinkyblocks/build/src-bobby/meldinterp-runtime/core.c **** 	unsigned char value = CALL_VAL(new_pc);
1025:/home/anaz/blinkyblocks/build/src-bobby/meldinterp-runtime/core.c **** 	new_pc++;
1026:/home/anaz/blinkyblocks/build/src-bobby/meldinterp-runtime/core.c **** 	args[i] = MELD_CONVERT_PTR_TO_REG(eval(value, &tuple, &new_pc, reg));
1027:/home/anaz/blinkyblocks/build/src-bobby/meldinterp-runtime/core.c ****       }
1028:/home/anaz/blinkyblocks/build/src-bobby/meldinterp-runtime/core.c **** 
1029:/home/anaz/blinkyblocks/build/src-bobby/meldinterp-runtime/core.c ****       switch (CALL_ARGS(pc)) {
1030:/home/anaz/blinkyblocks/build/src-bobby/meldinterp-runtime/core.c ****       default:
1031:/home/anaz/blinkyblocks/build/src-bobby/meldinterp-runtime/core.c **** 	break;
1032:/home/anaz/blinkyblocks/build/src-bobby/meldinterp-runtime/core.c ****       case 0:
1033:/home/anaz/blinkyblocks/build/src-bobby/meldinterp-runtime/core.c **** 	*dst = CALL_FUNC(pc)();
1034:/home/anaz/blinkyblocks/build/src-bobby/meldinterp-runtime/core.c **** 	break;
1035:/home/anaz/blinkyblocks/build/src-bobby/meldinterp-runtime/core.c ****       case 1:
1036:/home/anaz/blinkyblocks/build/src-bobby/meldinterp-runtime/core.c **** 	*dst = CALL_FUNC(pc)(args[0]);
1037:/home/anaz/blinkyblocks/build/src-bobby/meldinterp-runtime/core.c **** 	break;
1038:/home/anaz/blinkyblocks/build/src-bobby/meldinterp-runtime/core.c ****       case 2:
1039:/home/anaz/blinkyblocks/build/src-bobby/meldinterp-runtime/core.c **** 	*dst = CALL_FUNC(pc)(args[0], args[1]);
1040:/home/anaz/blinkyblocks/build/src-bobby/meldinterp-runtime/core.c **** 	break;
1041:/home/anaz/blinkyblocks/build/src-bobby/meldinterp-runtime/core.c ****       case 3:
1042:/home/anaz/blinkyblocks/build/src-bobby/meldinterp-runtime/core.c **** 	*dst = CALL_FUNC(pc)(args[0], args[1], args[2]);
1043:/home/anaz/blinkyblocks/build/src-bobby/meldinterp-runtime/core.c **** 	break;
1044:/home/anaz/blinkyblocks/build/src-bobby/meldinterp-runtime/core.c ****       case 4:
1045:/home/anaz/blinkyblocks/build/src-bobby/meldinterp-runtime/core.c **** 	*dst = CALL_FUNC(pc)(args[0], args[1], args[2], args[3]);
1046:/home/anaz/blinkyblocks/build/src-bobby/meldinterp-runtime/core.c **** 	break;
1047:/home/anaz/blinkyblocks/build/src-bobby/meldinterp-runtime/core.c ****       case 5:
1048:/home/anaz/blinkyblocks/build/src-bobby/meldinterp-runtime/core.c **** 	*dst = CALL_FUNC(pc)(args[0], args[1], args[2], args[3], args[4]);
1049:/home/anaz/blinkyblocks/build/src-bobby/meldinterp-runtime/core.c **** 	break;
1050:/home/anaz/blinkyblocks/build/src-bobby/meldinterp-runtime/core.c ****       }
1051:/home/anaz/blinkyblocks/build/src-bobby/meldinterp-runtime/core.c ****       // Advance the program counter past the instruction
1052:/home/anaz/blinkyblocks/build/src-bobby/meldinterp-runtime/core.c ****       pc = new_pc;
1053:/home/anaz/blinkyblocks/build/src-bobby/meldinterp-runtime/core.c ****       break;
1054:/home/anaz/blinkyblocks/build/src-bobby/meldinterp-runtime/core.c ****       }
1055:/home/anaz/blinkyblocks/build/src-bobby/meldinterp-runtime/core.c **** 
1056:/home/anaz/blinkyblocks/build/src-bobby/meldinterp-runtime/core.c ****     case 0x30: // MOVE
1057:/home/anaz/blinkyblocks/build/src-bobby/meldinterp-runtime/core.c ****       {
1058:/home/anaz/blinkyblocks/build/src-bobby/meldinterp-runtime/core.c **** 	const unsigned char *new_pc = pc+2;
1059:/home/anaz/blinkyblocks/build/src-bobby/meldinterp-runtime/core.c **** 
1060:/home/anaz/blinkyblocks/build/src-bobby/meldinterp-runtime/core.c **** #ifdef DEBUG_INSTRS
1061:/home/anaz/blinkyblocks/build/src-bobby/meldinterp-runtime/core.c **** 	{
1062:/home/anaz/blinkyblocks/build/src-bobby/meldinterp-runtime/core.c **** 	  char src = MOVE_SRC(pc);
1063:/home/anaz/blinkyblocks/build/src-bobby/meldinterp-runtime/core.c **** 	  char dst = MOVE_DST(pc);
1064:/home/anaz/blinkyblocks/build/src-bobby/meldinterp-runtime/core.c **** 	  
1065:/home/anaz/blinkyblocks/build/src-bobby/meldinterp-runtime/core.c **** 	  printf("MOVE ");
1066:/home/anaz/blinkyblocks/build/src-bobby/meldinterp-runtime/core.c **** 	  if(VAL_IS_TUPLE(src))
1067:/home/anaz/blinkyblocks/build/src-bobby/meldinterp-runtime/core.c **** 	    printf("tuple");
1068:/home/anaz/blinkyblocks/build/src-bobby/meldinterp-runtime/core.c **** 	  else if(VAL_IS_REG(src))
1069:/home/anaz/blinkyblocks/build/src-bobby/meldinterp-runtime/core.c **** 	    printf("reg %d", VAL_REG(src));
1070:/home/anaz/blinkyblocks/build/src-bobby/meldinterp-runtime/core.c **** 	  else if(VAL_IS_HOST(src))
1071:/home/anaz/blinkyblocks/build/src-bobby/meldinterp-runtime/core.c **** 	    printf("host");
1072:/home/anaz/blinkyblocks/build/src-bobby/meldinterp-runtime/core.c **** 	  else if(VAL_IS_FIELD(src))
1073:/home/anaz/blinkyblocks/build/src-bobby/meldinterp-runtime/core.c **** 	    printf("FIELD");
1074:/home/anaz/blinkyblocks/build/src-bobby/meldinterp-runtime/core.c **** 	  else if(VAL_IS_INT(src))
1075:/home/anaz/blinkyblocks/build/src-bobby/meldinterp-runtime/core.c **** 	    printf("INT");
1076:/home/anaz/blinkyblocks/build/src-bobby/meldinterp-runtime/core.c **** 	  else if(VAL_IS_FLOAT(src))
1077:/home/anaz/blinkyblocks/build/src-bobby/meldinterp-runtime/core.c **** 	    printf("float");
1078:/home/anaz/blinkyblocks/build/src-bobby/meldinterp-runtime/core.c **** 	  else if(VAL_IS_REVERSE(src))
1079:/home/anaz/blinkyblocks/build/src-bobby/meldinterp-runtime/core.c **** 	    printf("reverse");
1080:/home/anaz/blinkyblocks/build/src-bobby/meldinterp-runtime/core.c **** 	  else printf("??");
1081:/home/anaz/blinkyblocks/build/src-bobby/meldinterp-runtime/core.c **** 
1082:/home/anaz/blinkyblocks/build/src-bobby/meldinterp-runtime/core.c **** 	  printf(" ");
1083:/home/anaz/blinkyblocks/build/src-bobby/meldinterp-runtime/core.c **** 	  
1084:/home/anaz/blinkyblocks/build/src-bobby/meldinterp-runtime/core.c **** 	  if(VAL_IS_TUPLE(dst))
1085:/home/anaz/blinkyblocks/build/src-bobby/meldinterp-runtime/core.c **** 	    printf("tuple");
1086:/home/anaz/blinkyblocks/build/src-bobby/meldinterp-runtime/core.c **** 	  else if(VAL_IS_REG(dst))
1087:/home/anaz/blinkyblocks/build/src-bobby/meldinterp-runtime/core.c **** 	    printf("reg %d", VAL_REG(dst));
1088:/home/anaz/blinkyblocks/build/src-bobby/meldinterp-runtime/core.c **** 	  else if(VAL_IS_HOST(dst))
1089:/home/anaz/blinkyblocks/build/src-bobby/meldinterp-runtime/core.c **** 	    printf("host");
1090:/home/anaz/blinkyblocks/build/src-bobby/meldinterp-runtime/core.c **** 	  else if(VAL_IS_FIELD(dst))
1091:/home/anaz/blinkyblocks/build/src-bobby/meldinterp-runtime/core.c **** 	    printf("FIELD");
1092:/home/anaz/blinkyblocks/build/src-bobby/meldinterp-runtime/core.c **** 	  else if(VAL_IS_INT(dst))
1093:/home/anaz/blinkyblocks/build/src-bobby/meldinterp-runtime/core.c **** 	    printf("INT");
1094:/home/anaz/blinkyblocks/build/src-bobby/meldinterp-runtime/core.c **** 	  else if(VAL_IS_FLOAT(dst))
1095:/home/anaz/blinkyblocks/build/src-bobby/meldinterp-runtime/core.c **** 	    printf("float");
1096:/home/anaz/blinkyblocks/build/src-bobby/meldinterp-runtime/core.c **** 	  else if(VAL_IS_REVERSE(dst))
1097:/home/anaz/blinkyblocks/build/src-bobby/meldinterp-runtime/core.c **** 	    printf("reverse");
1098:/home/anaz/blinkyblocks/build/src-bobby/meldinterp-runtime/core.c **** 	  else printf("??");
1099:/home/anaz/blinkyblocks/build/src-bobby/meldinterp-runtime/core.c **** 
1100:/home/anaz/blinkyblocks/build/src-bobby/meldinterp-runtime/core.c **** 	  printf("\n");
1101:/home/anaz/blinkyblocks/build/src-bobby/meldinterp-runtime/core.c **** 	}
1102:/home/anaz/blinkyblocks/build/src-bobby/meldinterp-runtime/core.c **** #endif
1103:/home/anaz/blinkyblocks/build/src-bobby/meldinterp-runtime/core.c **** 	size_t size = 0;
1104:/home/anaz/blinkyblocks/build/src-bobby/meldinterp-runtime/core.c **** 	
1105:/home/anaz/blinkyblocks/build/src-bobby/meldinterp-runtime/core.c **** 	Register *src = eval(MOVE_SRC(pc), &tuple, &new_pc, reg);
1106:/home/anaz/blinkyblocks/build/src-bobby/meldinterp-runtime/core.c **** 	Register *dst = eval_dst(MOVE_DST(pc), &new_pc, reg, &size);
1107:/home/anaz/blinkyblocks/build/src-bobby/meldinterp-runtime/core.c **** 
1108:/home/anaz/blinkyblocks/build/src-bobby/meldinterp-runtime/core.c **** 	memcpy(dst, src, size);
1109:/home/anaz/blinkyblocks/build/src-bobby/meldinterp-runtime/core.c **** 	// Advance the program counter past the instruction
1110:/home/anaz/blinkyblocks/build/src-bobby/meldinterp-runtime/core.c **** 	pc = new_pc;
1111:/home/anaz/blinkyblocks/build/src-bobby/meldinterp-runtime/core.c **** 	break;
1112:/home/anaz/blinkyblocks/build/src-bobby/meldinterp-runtime/core.c ****       }
1113:/home/anaz/blinkyblocks/build/src-bobby/meldinterp-runtime/core.c **** 
1114:/home/anaz/blinkyblocks/build/src-bobby/meldinterp-runtime/core.c ****     case 0x40: // ALLOC
1115:/home/anaz/blinkyblocks/build/src-bobby/meldinterp-runtime/core.c ****     case 0x50: // ALLOC
1116:/home/anaz/blinkyblocks/build/src-bobby/meldinterp-runtime/core.c ****       {
1117:/home/anaz/blinkyblocks/build/src-bobby/meldinterp-runtime/core.c **** 	const unsigned char *new_pc = pc+2;
1118:/home/anaz/blinkyblocks/build/src-bobby/meldinterp-runtime/core.c **** 	tuple_t *dst;
1119:/home/anaz/blinkyblocks/build/src-bobby/meldinterp-runtime/core.c **** 	tuple_type type = ALLOC_TYPE(pc);
1120:/home/anaz/blinkyblocks/build/src-bobby/meldinterp-runtime/core.c ****       
1121:/home/anaz/blinkyblocks/build/src-bobby/meldinterp-runtime/core.c **** #if defined(DEBUG_INSTRS) || defined(DEBUG_ALLOCS)
1122:/home/anaz/blinkyblocks/build/src-bobby/meldinterp-runtime/core.c **** 	{
1123:/home/anaz/blinkyblocks/build/src-bobby/meldinterp-runtime/core.c **** 	  printf("ALLOC %s\n", tuple_names[type]);
1124:/home/anaz/blinkyblocks/build/src-bobby/meldinterp-runtime/core.c **** 	}
1125:/home/anaz/blinkyblocks/build/src-bobby/meldinterp-runtime/core.c **** #endif
1126:/home/anaz/blinkyblocks/build/src-bobby/meldinterp-runtime/core.c **** 
1127:/home/anaz/blinkyblocks/build/src-bobby/meldinterp-runtime/core.c **** 	dst = eval(ALLOC_DST(pc), &tuple, &new_pc, reg);
1128:/home/anaz/blinkyblocks/build/src-bobby/meldinterp-runtime/core.c **** 			
1129:/home/anaz/blinkyblocks/build/src-bobby/meldinterp-runtime/core.c **** 	*dst = ALLOC_TUPLE(TYPE_SIZE(type));
1130:/home/anaz/blinkyblocks/build/src-bobby/meldinterp-runtime/core.c **** 	memset(*dst, 0, TYPE_SIZE(type));
1131:/home/anaz/blinkyblocks/build/src-bobby/meldinterp-runtime/core.c **** 	TUPLE_TYPE(*dst) = type;
1132:/home/anaz/blinkyblocks/build/src-bobby/meldinterp-runtime/core.c **** 	// Advance the program counter past the instruction
1133:/home/anaz/blinkyblocks/build/src-bobby/meldinterp-runtime/core.c **** 	pc = new_pc;
1134:/home/anaz/blinkyblocks/build/src-bobby/meldinterp-runtime/core.c **** 	break;
1135:/home/anaz/blinkyblocks/build/src-bobby/meldinterp-runtime/core.c ****       }
1136:/home/anaz/blinkyblocks/build/src-bobby/meldinterp-runtime/core.c **** 
1137:/home/anaz/blinkyblocks/build/src-bobby/meldinterp-runtime/core.c ****     case 0x60: // IF
1138:/home/anaz/blinkyblocks/build/src-bobby/meldinterp-runtime/core.c ****     case 0x70: // IF
1139:/home/anaz/blinkyblocks/build/src-bobby/meldinterp-runtime/core.c **** #ifdef DEBUG_INSTRS
1140:/home/anaz/blinkyblocks/build/src-bobby/meldinterp-runtime/core.c ****       printf("IF reg %d ", IF_REG(pc));
1141:/home/anaz/blinkyblocks/build/src-bobby/meldinterp-runtime/core.c **** #endif
1142:/home/anaz/blinkyblocks/build/src-bobby/meldinterp-runtime/core.c ****       if (!reg[IF_REG(pc)]) {
1143:/home/anaz/blinkyblocks/build/src-bobby/meldinterp-runtime/core.c **** #ifdef DEBUG_INSTRS
1144:/home/anaz/blinkyblocks/build/src-bobby/meldinterp-runtime/core.c **** 	printf("no\n");
1145:/home/anaz/blinkyblocks/build/src-bobby/meldinterp-runtime/core.c **** #endif
1146:/home/anaz/blinkyblocks/build/src-bobby/meldinterp-runtime/core.c **** 	pc += IF_JUMP(pc);
1147:/home/anaz/blinkyblocks/build/src-bobby/meldinterp-runtime/core.c **** 	break;
1148:/home/anaz/blinkyblocks/build/src-bobby/meldinterp-runtime/core.c ****       }
1149:/home/anaz/blinkyblocks/build/src-bobby/meldinterp-runtime/core.c **** 
1150:/home/anaz/blinkyblocks/build/src-bobby/meldinterp-runtime/core.c **** #ifdef DEBUG_INSTRS
1151:/home/anaz/blinkyblocks/build/src-bobby/meldinterp-runtime/core.c ****       printf("yes\n");
1152:/home/anaz/blinkyblocks/build/src-bobby/meldinterp-runtime/core.c **** #endif
1153:/home/anaz/blinkyblocks/build/src-bobby/meldinterp-runtime/core.c ****       // Advance the program counter past the instruction
1154:/home/anaz/blinkyblocks/build/src-bobby/meldinterp-runtime/core.c ****       pc += IF_BASE;
1155:/home/anaz/blinkyblocks/build/src-bobby/meldinterp-runtime/core.c ****       break;
1156:/home/anaz/blinkyblocks/build/src-bobby/meldinterp-runtime/core.c **** 
1157:/home/anaz/blinkyblocks/build/src-bobby/meldinterp-runtime/core.c ****     case 0x80: // REMOVE
1158:/home/anaz/blinkyblocks/build/src-bobby/meldinterp-runtime/core.c ****     case 0x90: // REMOVE
1159:/home/anaz/blinkyblocks/build/src-bobby/meldinterp-runtime/core.c ****       if (isNew > 0) {
1160:/home/anaz/blinkyblocks/build/src-bobby/meldinterp-runtime/core.c ****         int reg_remove = REMOVE_REG(pc);
1161:/home/anaz/blinkyblocks/build/src-bobby/meldinterp-runtime/core.c **** 	int size = TYPE_SIZE(TUPLE_TYPE(MELD_CONVERT_REG_TO_PTR(reg[reg_remove])));
1162:/home/anaz/blinkyblocks/build/src-bobby/meldinterp-runtime/core.c **** 
1163:/home/anaz/blinkyblocks/build/src-bobby/meldinterp-runtime/core.c **** 	tuple_handle(memcpy(malloc(size),MELD_CONVERT_REG_TO_PTR(reg[reg_remove]), size), -1, reg);
1164:/home/anaz/blinkyblocks/build/src-bobby/meldinterp-runtime/core.c **** 	reg[REMOVE_REG(pc)] = 0;
1165:/home/anaz/blinkyblocks/build/src-bobby/meldinterp-runtime/core.c ****       }	
1166:/home/anaz/blinkyblocks/build/src-bobby/meldinterp-runtime/core.c ****       // Advance the program counter past the instruction
1167:/home/anaz/blinkyblocks/build/src-bobby/meldinterp-runtime/core.c ****       pc += 1;
1168:/home/anaz/blinkyblocks/build/src-bobby/meldinterp-runtime/core.c ****       break;
1169:/home/anaz/blinkyblocks/build/src-bobby/meldinterp-runtime/core.c **** 
1170:/home/anaz/blinkyblocks/build/src-bobby/meldinterp-runtime/core.c ****     case 0xa0: // ITER
1171:/home/anaz/blinkyblocks/build/src-bobby/meldinterp-runtime/core.c ****       {
1172:/home/anaz/blinkyblocks/build/src-bobby/meldinterp-runtime/core.c ****       const tuple_type type = ITER_TYPE(pc);
1173:/home/anaz/blinkyblocks/build/src-bobby/meldinterp-runtime/core.c ****       int i, length;
1174:/home/anaz/blinkyblocks/build/src-bobby/meldinterp-runtime/core.c ****       void **list;
1175:/home/anaz/blinkyblocks/build/src-bobby/meldinterp-runtime/core.c ****       const unsigned char *jump = pc + ITER_JUMP(pc);
1176:/home/anaz/blinkyblocks/build/src-bobby/meldinterp-runtime/core.c ****       int size = TYPE_SIZE(type);
1177:/home/anaz/blinkyblocks/build/src-bobby/meldinterp-runtime/core.c **** 			
1178:/home/anaz/blinkyblocks/build/src-bobby/meldinterp-runtime/core.c ****       /* produce a random ordering for all tuples of the appropriate type */
1179:/home/anaz/blinkyblocks/build/src-bobby/meldinterp-runtime/core.c **** 			
1180:/home/anaz/blinkyblocks/build/src-bobby/meldinterp-runtime/core.c ****       if(TYPE_IS_PERSISTENT(type) && !TYPE_IS_AGG(type)) {
1181:/home/anaz/blinkyblocks/build/src-bobby/meldinterp-runtime/core.c **** 	/* persistent aggregate types not supported */
1182:/home/anaz/blinkyblocks/build/src-bobby/meldinterp-runtime/core.c ****         persistent_set *persistents = &PERSISTENT[type];
1183:/home/anaz/blinkyblocks/build/src-bobby/meldinterp-runtime/core.c ****         
1184:/home/anaz/blinkyblocks/build/src-bobby/meldinterp-runtime/core.c ****         length = persistents->current;
1185:/home/anaz/blinkyblocks/build/src-bobby/meldinterp-runtime/core.c ****         list = malloc(sizeof(tuple_t) * length);
1186:/home/anaz/blinkyblocks/build/src-bobby/meldinterp-runtime/core.c **** 
1187:/home/anaz/blinkyblocks/build/src-bobby/meldinterp-runtime/core.c ****         for(i = 0; i < length; i++) {
1188:/home/anaz/blinkyblocks/build/src-bobby/meldinterp-runtime/core.c ****           int j = random() % (i + 1);
1189:/home/anaz/blinkyblocks/build/src-bobby/meldinterp-runtime/core.c ****           
1190:/home/anaz/blinkyblocks/build/src-bobby/meldinterp-runtime/core.c ****           list[i] = list[j];
1191:/home/anaz/blinkyblocks/build/src-bobby/meldinterp-runtime/core.c ****           list[j] = persistents->array + i * size;
1192:/home/anaz/blinkyblocks/build/src-bobby/meldinterp-runtime/core.c ****         }
1193:/home/anaz/blinkyblocks/build/src-bobby/meldinterp-runtime/core.c ****       } else {
1194:/home/anaz/blinkyblocks/build/src-bobby/meldinterp-runtime/core.c **** 	/* non-persistent type */
1195:/home/anaz/blinkyblocks/build/src-bobby/meldinterp-runtime/core.c **** 	tuple_entry *entry = TUPLES[type].head;
1196:/home/anaz/blinkyblocks/build/src-bobby/meldinterp-runtime/core.c **** 		    
1197:/home/anaz/blinkyblocks/build/src-bobby/meldinterp-runtime/core.c **** 	length = queue_length(&TUPLES[ITER_TYPE(pc)]);
1198:/home/anaz/blinkyblocks/build/src-bobby/meldinterp-runtime/core.c **** 	list = malloc(sizeof(tuple_t) * length);
1199:/home/anaz/blinkyblocks/build/src-bobby/meldinterp-runtime/core.c **** 		    
1200:/home/anaz/blinkyblocks/build/src-bobby/meldinterp-runtime/core.c **** 	for (i = 0; i < length; i++) {
1201:/home/anaz/blinkyblocks/build/src-bobby/meldinterp-runtime/core.c **** 	  int j = random() % (i+1);
1202:/home/anaz/blinkyblocks/build/src-bobby/meldinterp-runtime/core.c **** 
1203:/home/anaz/blinkyblocks/build/src-bobby/meldinterp-runtime/core.c **** 	  list[i] = list[j];
1204:/home/anaz/blinkyblocks/build/src-bobby/meldinterp-runtime/core.c **** 	  list[j] = entry->tuple;
1205:/home/anaz/blinkyblocks/build/src-bobby/meldinterp-runtime/core.c **** 
1206:/home/anaz/blinkyblocks/build/src-bobby/meldinterp-runtime/core.c **** 	  entry = entry->next;
1207:/home/anaz/blinkyblocks/build/src-bobby/meldinterp-runtime/core.c **** 	}
1208:/home/anaz/blinkyblocks/build/src-bobby/meldinterp-runtime/core.c ****       }
1209:/home/anaz/blinkyblocks/build/src-bobby/meldinterp-runtime/core.c **** 			
1210:/home/anaz/blinkyblocks/build/src-bobby/meldinterp-runtime/core.c **** #ifdef DEBUG_INSTRS
1211:/home/anaz/blinkyblocks/build/src-bobby/meldinterp-runtime/core.c ****       printf("ITER %s len=%d\n", tuple_names[type], length);
1212:/home/anaz/blinkyblocks/build/src-bobby/meldinterp-runtime/core.c **** #endif
1213:/home/anaz/blinkyblocks/build/src-bobby/meldinterp-runtime/core.c **** 
1214:/home/anaz/blinkyblocks/build/src-bobby/meldinterp-runtime/core.c ****       if(length == 0) {
1215:/home/anaz/blinkyblocks/build/src-bobby/meldinterp-runtime/core.c ****         /* no need to execute any further code, just jump! */
1216:/home/anaz/blinkyblocks/build/src-bobby/meldinterp-runtime/core.c ****         pc = jump;
1217:/home/anaz/blinkyblocks/build/src-bobby/meldinterp-runtime/core.c **** 	break;
1218:/home/anaz/blinkyblocks/build/src-bobby/meldinterp-runtime/core.c ****       }
1219:/home/anaz/blinkyblocks/build/src-bobby/meldinterp-runtime/core.c **** 
1220:/home/anaz/blinkyblocks/build/src-bobby/meldinterp-runtime/core.c ****       /* iterate over all tuples of the appropriate type */
1221:/home/anaz/blinkyblocks/build/src-bobby/meldinterp-runtime/core.c ****       void *next_tuple;
1222:/home/anaz/blinkyblocks/build/src-bobby/meldinterp-runtime/core.c ****       
1223:/home/anaz/blinkyblocks/build/src-bobby/meldinterp-runtime/core.c ****       for (i = 0; i < length; i++) {
1224:/home/anaz/blinkyblocks/build/src-bobby/meldinterp-runtime/core.c **** 	next_tuple = list[i];
1225:/home/anaz/blinkyblocks/build/src-bobby/meldinterp-runtime/core.c **** 
1226:/home/anaz/blinkyblocks/build/src-bobby/meldinterp-runtime/core.c **** 	unsigned char matched = 1;
1227:/home/anaz/blinkyblocks/build/src-bobby/meldinterp-runtime/core.c **** 	const unsigned char *tmppc;
1228:/home/anaz/blinkyblocks/build/src-bobby/meldinterp-runtime/core.c **** 
1229:/home/anaz/blinkyblocks/build/src-bobby/meldinterp-runtime/core.c ****         tmppc = pc + ITER_BASE;
1230:/home/anaz/blinkyblocks/build/src-bobby/meldinterp-runtime/core.c **** 
1231:/home/anaz/blinkyblocks/build/src-bobby/meldinterp-runtime/core.c ****         if(!ITER_MATCH_NONE(tmppc)) {
1232:/home/anaz/blinkyblocks/build/src-bobby/meldinterp-runtime/core.c **** 	  /* check to see if it matches */
1233:/home/anaz/blinkyblocks/build/src-bobby/meldinterp-runtime/core.c ****           while (1) {
1234:/home/anaz/blinkyblocks/build/src-bobby/meldinterp-runtime/core.c ****             const unsigned char *new_pc = tmppc + 2;
1235:/home/anaz/blinkyblocks/build/src-bobby/meldinterp-runtime/core.c **** 	    const unsigned char fieldnum = ITER_MATCH_FIELD(tmppc);
1236:/home/anaz/blinkyblocks/build/src-bobby/meldinterp-runtime/core.c **** 	    const unsigned char type_size = TYPE_ARG_SIZE(type, fieldnum);
1237:/home/anaz/blinkyblocks/build/src-bobby/meldinterp-runtime/core.c **** 
1238:/home/anaz/blinkyblocks/build/src-bobby/meldinterp-runtime/core.c ****             Register *field = GET_TUPLE_FIELD(next_tuple, fieldnum);
1239:/home/anaz/blinkyblocks/build/src-bobby/meldinterp-runtime/core.c ****             Register *val = eval(ITER_MATCH_VAL(tmppc), &tuple, &new_pc, reg);
1240:/home/anaz/blinkyblocks/build/src-bobby/meldinterp-runtime/core.c ****             
1241:/home/anaz/blinkyblocks/build/src-bobby/meldinterp-runtime/core.c ****             matched = matched && (memcmp(field, val, type_size) == 0);
1242:/home/anaz/blinkyblocks/build/src-bobby/meldinterp-runtime/core.c **** 
1243:/home/anaz/blinkyblocks/build/src-bobby/meldinterp-runtime/core.c ****             if(ITER_MATCH_END(tmppc))
1244:/home/anaz/blinkyblocks/build/src-bobby/meldinterp-runtime/core.c ****               break;
1245:/home/anaz/blinkyblocks/build/src-bobby/meldinterp-runtime/core.c **** 
1246:/home/anaz/blinkyblocks/build/src-bobby/meldinterp-runtime/core.c ****             tmppc = new_pc;
1247:/home/anaz/blinkyblocks/build/src-bobby/meldinterp-runtime/core.c ****           }
1248:/home/anaz/blinkyblocks/build/src-bobby/meldinterp-runtime/core.c **** 	}
1249:/home/anaz/blinkyblocks/build/src-bobby/meldinterp-runtime/core.c **** 
1250:/home/anaz/blinkyblocks/build/src-bobby/meldinterp-runtime/core.c **** #ifdef DEBUG_INSTRS
1251:/home/anaz/blinkyblocks/build/src-bobby/meldinterp-runtime/core.c **** 	printf("MATCHED: %d %d\n", matched, length);
1252:/home/anaz/blinkyblocks/build/src-bobby/meldinterp-runtime/core.c **** #endif
1253:/home/anaz/blinkyblocks/build/src-bobby/meldinterp-runtime/core.c ****           
1254:/home/anaz/blinkyblocks/build/src-bobby/meldinterp-runtime/core.c **** 	if (matched) {
1255:/home/anaz/blinkyblocks/build/src-bobby/meldinterp-runtime/core.c **** 	  const unsigned char* iter_pc = pc + ITER_BASE;
1256:/home/anaz/blinkyblocks/build/src-bobby/meldinterp-runtime/core.c ****     
1257:/home/anaz/blinkyblocks/build/src-bobby/meldinterp-runtime/core.c **** 	  if(ITER_MATCH_NONE(iter_pc))
1258:/home/anaz/blinkyblocks/build/src-bobby/meldinterp-runtime/core.c **** 	    iter_pc += 2;
1259:/home/anaz/blinkyblocks/build/src-bobby/meldinterp-runtime/core.c **** 	  else {
1260:/home/anaz/blinkyblocks/build/src-bobby/meldinterp-runtime/core.c **** 	    const unsigned char *old;
1261:/home/anaz/blinkyblocks/build/src-bobby/meldinterp-runtime/core.c **** 	    while(1) {
1262:/home/anaz/blinkyblocks/build/src-bobby/meldinterp-runtime/core.c **** 	      old = iter_pc;
1263:/home/anaz/blinkyblocks/build/src-bobby/meldinterp-runtime/core.c **** 	      
1264:/home/anaz/blinkyblocks/build/src-bobby/meldinterp-runtime/core.c **** 	      if (VAL_IS_FLOAT(ITER_MATCH_VAL(iter_pc)))
1265:/home/anaz/blinkyblocks/build/src-bobby/meldinterp-runtime/core.c **** 		iter_pc += sizeof(meld_float);
1266:/home/anaz/blinkyblocks/build/src-bobby/meldinterp-runtime/core.c **** 	      else if (VAL_IS_INT(ITER_MATCH_VAL(iter_pc)))
1267:/home/anaz/blinkyblocks/build/src-bobby/meldinterp-runtime/core.c **** 		iter_pc += sizeof(meld_int);
1268:/home/anaz/blinkyblocks/build/src-bobby/meldinterp-runtime/core.c **** 	      else if (VAL_IS_FIELD(ITER_MATCH_VAL(iter_pc)))
1269:/home/anaz/blinkyblocks/build/src-bobby/meldinterp-runtime/core.c **** 		iter_pc += 2;
1270:/home/anaz/blinkyblocks/build/src-bobby/meldinterp-runtime/core.c **** 	      else if (VAL_IS_REVERSE(ITER_MATCH_VAL(iter_pc)))
1271:/home/anaz/blinkyblocks/build/src-bobby/meldinterp-runtime/core.c **** 		iter_pc += 2;
1272:/home/anaz/blinkyblocks/build/src-bobby/meldinterp-runtime/core.c **** 	      else {
1273:/home/anaz/blinkyblocks/build/src-bobby/meldinterp-runtime/core.c **** 		assert(0);
1274:/home/anaz/blinkyblocks/build/src-bobby/meldinterp-runtime/core.c **** 		exit(1);
1275:/home/anaz/blinkyblocks/build/src-bobby/meldinterp-runtime/core.c **** 	      }
1276:/home/anaz/blinkyblocks/build/src-bobby/meldinterp-runtime/core.c **** 
1277:/home/anaz/blinkyblocks/build/src-bobby/meldinterp-runtime/core.c **** 	      iter_pc += 2;
1278:/home/anaz/blinkyblocks/build/src-bobby/meldinterp-runtime/core.c **** 
1279:/home/anaz/blinkyblocks/build/src-bobby/meldinterp-runtime/core.c **** 	      if(ITER_MATCH_END(old))
1280:/home/anaz/blinkyblocks/build/src-bobby/meldinterp-runtime/core.c **** 		break;
1281:/home/anaz/blinkyblocks/build/src-bobby/meldinterp-runtime/core.c **** 	    }
1282:/home/anaz/blinkyblocks/build/src-bobby/meldinterp-runtime/core.c **** 	  }
1283:/home/anaz/blinkyblocks/build/src-bobby/meldinterp-runtime/core.c **** 
1284:/home/anaz/blinkyblocks/build/src-bobby/meldinterp-runtime/core.c **** 	  if (RET_RET == tuple_process(next_tuple, iter_pc, isNew, reg)) {
1285:/home/anaz/blinkyblocks/build/src-bobby/meldinterp-runtime/core.c **** 	    free(list);
1286:/home/anaz/blinkyblocks/build/src-bobby/meldinterp-runtime/core.c **** 	    return RET_RET;
1287:/home/anaz/blinkyblocks/build/src-bobby/meldinterp-runtime/core.c **** 	  }
1288:/home/anaz/blinkyblocks/build/src-bobby/meldinterp-runtime/core.c **** 	}
1289:/home/anaz/blinkyblocks/build/src-bobby/meldinterp-runtime/core.c ****       }
1290:/home/anaz/blinkyblocks/build/src-bobby/meldinterp-runtime/core.c **** 
1291:/home/anaz/blinkyblocks/build/src-bobby/meldinterp-runtime/core.c ****       free(list);
1292:/home/anaz/blinkyblocks/build/src-bobby/meldinterp-runtime/core.c **** 
1293:/home/anaz/blinkyblocks/build/src-bobby/meldinterp-runtime/core.c ****       /* advance the pc to the end of the loop */
1294:/home/anaz/blinkyblocks/build/src-bobby/meldinterp-runtime/core.c ****       pc = jump;
1295:/home/anaz/blinkyblocks/build/src-bobby/meldinterp-runtime/core.c ****       break;
1296:/home/anaz/blinkyblocks/build/src-bobby/meldinterp-runtime/core.c ****       }
1297:/home/anaz/blinkyblocks/build/src-bobby/meldinterp-runtime/core.c **** 
1298:/home/anaz/blinkyblocks/build/src-bobby/meldinterp-runtime/core.c ****     case 0xc0: // OP
1299:/home/anaz/blinkyblocks/build/src-bobby/meldinterp-runtime/core.c ****     case 0xd0: // OP
1300:/home/anaz/blinkyblocks/build/src-bobby/meldinterp-runtime/core.c ****     case 0xe0: // OP
1301:/home/anaz/blinkyblocks/build/src-bobby/meldinterp-runtime/core.c ****     case 0xf0: // OP
1302:/home/anaz/blinkyblocks/build/src-bobby/meldinterp-runtime/core.c ****       {
1303:/home/anaz/blinkyblocks/build/src-bobby/meldinterp-runtime/core.c **** 	const unsigned char *new_pc = pc+3;
1304:/home/anaz/blinkyblocks/build/src-bobby/meldinterp-runtime/core.c **** 			
1305:/home/anaz/blinkyblocks/build/src-bobby/meldinterp-runtime/core.c **** #ifdef DEBUG_INSTRS
1306:/home/anaz/blinkyblocks/build/src-bobby/meldinterp-runtime/core.c **** 	printf("OP to %d\n", OP_DST(pc));
1307:/home/anaz/blinkyblocks/build/src-bobby/meldinterp-runtime/core.c **** #endif
1308:/home/anaz/blinkyblocks/build/src-bobby/meldinterp-runtime/core.c **** 
1309:/home/anaz/blinkyblocks/build/src-bobby/meldinterp-runtime/core.c **** 	Register *arg1, *arg2;
1310:/home/anaz/blinkyblocks/build/src-bobby/meldinterp-runtime/core.c ****       
1311:/home/anaz/blinkyblocks/build/src-bobby/meldinterp-runtime/core.c **** 	arg1 = eval(OP_ARG1(pc), &tuple, &new_pc, reg);
1312:/home/anaz/blinkyblocks/build/src-bobby/meldinterp-runtime/core.c **** 	arg2 = eval(OP_ARG2(pc), &tuple, &new_pc, reg);
1313:/home/anaz/blinkyblocks/build/src-bobby/meldinterp-runtime/core.c ****       
1314:/home/anaz/blinkyblocks/build/src-bobby/meldinterp-runtime/core.c **** #ifdef DEBUG_INSTRS
1315:/home/anaz/blinkyblocks/build/src-bobby/meldinterp-runtime/core.c **** 	printf ("%ld", MELD_INT(arg1));
1316:/home/anaz/blinkyblocks/build/src-bobby/meldinterp-runtime/core.c **** 	printf ("OP");
1317:/home/anaz/blinkyblocks/build/src-bobby/meldinterp-runtime/core.c **** 	printf ("%ld", MELD_INT(arg2));
1318:/home/anaz/blinkyblocks/build/src-bobby/meldinterp-runtime/core.c **** 	printf ("\n");
1319:/home/anaz/blinkyblocks/build/src-bobby/meldinterp-runtime/core.c **** #endif
1320:/home/anaz/blinkyblocks/build/src-bobby/meldinterp-runtime/core.c **** 
1321:/home/anaz/blinkyblocks/build/src-bobby/meldinterp-runtime/core.c **** 	Register *dest = reg + OP_DST(pc);
1322:/home/anaz/blinkyblocks/build/src-bobby/meldinterp-runtime/core.c ****       
1323:/home/anaz/blinkyblocks/build/src-bobby/meldinterp-runtime/core.c **** 	switch(OP_OP(pc)) {
1324:/home/anaz/blinkyblocks/build/src-bobby/meldinterp-runtime/core.c **** 	case OP_NEQI: *dest = (MELD_INT(arg1) != MELD_INT(arg2)); break;
1325:/home/anaz/blinkyblocks/build/src-bobby/meldinterp-runtime/core.c **** 	case OP_EQI: *dest = (MELD_INT(arg1) == MELD_INT(arg2)); break;
1326:/home/anaz/blinkyblocks/build/src-bobby/meldinterp-runtime/core.c **** 	case OP_LESSI: *dest = (MELD_INT(arg1) < MELD_INT(arg2)); break;
1327:/home/anaz/blinkyblocks/build/src-bobby/meldinterp-runtime/core.c **** 	case OP_LESSEQI: *dest = (MELD_INT(arg1) <= MELD_INT(arg2)); break;
1328:/home/anaz/blinkyblocks/build/src-bobby/meldinterp-runtime/core.c **** 	case OP_GREATERI: *dest = (MELD_INT(arg1) > MELD_INT(arg2)); break;
1329:/home/anaz/blinkyblocks/build/src-bobby/meldinterp-runtime/core.c **** 	case OP_GREATEREQI: *dest = (MELD_INT(arg1) >= MELD_INT(arg2)); break;
1330:/home/anaz/blinkyblocks/build/src-bobby/meldinterp-runtime/core.c **** 	case OP_MODI: MELD_INT(dest) = (MELD_INT(arg1) % MELD_INT(arg2)); break;
1331:/home/anaz/blinkyblocks/build/src-bobby/meldinterp-runtime/core.c **** 	case OP_PLUSI: MELD_INT(dest) = (MELD_INT(arg1) + MELD_INT(arg2)); break;
1332:/home/anaz/blinkyblocks/build/src-bobby/meldinterp-runtime/core.c **** 	case OP_MINUSI: MELD_INT(dest) = (MELD_INT(arg1) - MELD_INT(arg2)); break;
1333:/home/anaz/blinkyblocks/build/src-bobby/meldinterp-runtime/core.c **** 	case OP_TIMESI: MELD_INT(dest) = (MELD_INT(arg1) * MELD_INT(arg2)); break;
1334:/home/anaz/blinkyblocks/build/src-bobby/meldinterp-runtime/core.c **** 	case OP_DIVI: MELD_INT(dest) = (MELD_INT(arg1) / MELD_INT(arg2)); break;
1335:/home/anaz/blinkyblocks/build/src-bobby/meldinterp-runtime/core.c **** 	case OP_NEQF: *dest = (MELD_FLOAT(arg1) != MELD_FLOAT(arg2)); break;
1336:/home/anaz/blinkyblocks/build/src-bobby/meldinterp-runtime/core.c **** 	case OP_EQF: *dest = (MELD_FLOAT(arg1) == MELD_FLOAT(arg2)); break;
1337:/home/anaz/blinkyblocks/build/src-bobby/meldinterp-runtime/core.c **** 	case OP_LESSF: *dest = (MELD_FLOAT(arg1) < MELD_FLOAT(arg2)); break;
1338:/home/anaz/blinkyblocks/build/src-bobby/meldinterp-runtime/core.c **** 	case OP_LESSEQF: *dest = (MELD_FLOAT(arg1) <= MELD_FLOAT(arg2)); break;
1339:/home/anaz/blinkyblocks/build/src-bobby/meldinterp-runtime/core.c **** 	case OP_GREATERF: *dest = (MELD_FLOAT(arg1) > MELD_FLOAT(arg2)); break;
1340:/home/anaz/blinkyblocks/build/src-bobby/meldinterp-runtime/core.c **** 	case OP_GREATEREQF: *dest = (MELD_FLOAT(arg1) >= MELD_FLOAT(arg2)); break;
1341:/home/anaz/blinkyblocks/build/src-bobby/meldinterp-runtime/core.c **** 	case OP_MODF: MELD_FLOAT(dest) = fmod(MELD_FLOAT(arg1), MELD_FLOAT(arg2)); break;
1342:/home/anaz/blinkyblocks/build/src-bobby/meldinterp-runtime/core.c **** 	case OP_PLUSF: MELD_FLOAT(dest) = (MELD_FLOAT(arg1) + MELD_FLOAT(arg2)); break;
1343:/home/anaz/blinkyblocks/build/src-bobby/meldinterp-runtime/core.c **** 	case OP_MINUSF: MELD_FLOAT(dest) = (MELD_FLOAT(arg1) - MELD_FLOAT(arg2)); break;
1344:/home/anaz/blinkyblocks/build/src-bobby/meldinterp-runtime/core.c **** 	case OP_TIMESF: MELD_FLOAT(dest) = (MELD_FLOAT(arg1) * MELD_FLOAT(arg2)); break;
1345:/home/anaz/blinkyblocks/build/src-bobby/meldinterp-runtime/core.c **** 	case OP_DIVF: MELD_FLOAT(dest) = (MELD_FLOAT(arg1) / MELD_FLOAT(arg2)); break;
1346:/home/anaz/blinkyblocks/build/src-bobby/meldinterp-runtime/core.c **** 	case OP_NEQA: *dest = (MELD_PTR(arg1) != MELD_PTR(arg2)); break;
1347:/home/anaz/blinkyblocks/build/src-bobby/meldinterp-runtime/core.c **** 	case OP_EQA: *dest = (MELD_PTR(arg1) == MELD_PTR(arg2)); break;
1348:/home/anaz/blinkyblocks/build/src-bobby/meldinterp-runtime/core.c **** 	}
1349:/home/anaz/blinkyblocks/build/src-bobby/meldinterp-runtime/core.c **** 	// Advance the program counter past the send instruction
1350:/home/anaz/blinkyblocks/build/src-bobby/meldinterp-runtime/core.c **** 	pc = new_pc;
1351:/home/anaz/blinkyblocks/build/src-bobby/meldinterp-runtime/core.c **** 	break;
1352:/home/anaz/blinkyblocks/build/src-bobby/meldinterp-runtime/core.c ****       }
1353:/home/anaz/blinkyblocks/build/src-bobby/meldinterp-runtime/core.c **** 
1354:/home/anaz/blinkyblocks/build/src-bobby/meldinterp-runtime/core.c ****     default:
1355:/home/anaz/blinkyblocks/build/src-bobby/meldinterp-runtime/core.c ****       fprintf(stderr, "INVALID INSTRUCTION %u", *pc);
1356:/home/anaz/blinkyblocks/build/src-bobby/meldinterp-runtime/core.c ****       assert(0);
1357:/home/anaz/blinkyblocks/build/src-bobby/meldinterp-runtime/core.c ****       break;
1358:/home/anaz/blinkyblocks/build/src-bobby/meldinterp-runtime/core.c ****     }
1359:/home/anaz/blinkyblocks/build/src-bobby/meldinterp-runtime/core.c ****   }
1360:/home/anaz/blinkyblocks/build/src-bobby/meldinterp-runtime/core.c **** 
1361:/home/anaz/blinkyblocks/build/src-bobby/meldinterp-runtime/core.c ****   return RET_RET;
1362:/home/anaz/blinkyblocks/build/src-bobby/meldinterp-runtime/core.c **** }
 1334               		.loc 1 1362 0
 1335 0622 2DB7      		in r18,__SP_L__
 1336 0624 3EB7      		in r19,__SP_H__
 1337               	.LVL127:
 1338 0626 2A8B      		std Y+18,r18
 1339 0628 3B8B      		std Y+19,r19
 1340 062a 00C0      		rjmp .L234
 1341               	.LVL128:
 1342               	.L191:
 1343               	.LBB133:
1216:/home/anaz/blinkyblocks/build/src-bobby/meldinterp-runtime/core.c ****         pc = jump;
 1344               		.loc 1 1216 0
 1345 062c AF80      		ldd r10,Y+7
 1346 062e B884      		ldd r11,Y+8
 1347               	.LVL129:
 1348               	.L234:
 1349               	.LBE133:
 953:/home/anaz/blinkyblocks/build/src-bobby/meldinterp-runtime/core.c ****     switch (0xf0 & *(const unsigned char*)pc) {
 1350               		.loc 1 953 0
 1351 0630 D501      		movw r26,r10
 1352 0632 EC91      		ld r30,X
 1353 0634 8E2F      		mov r24,r30
 1354 0636 807F      		andi r24,lo8(-16)
 1355 0638 8037      		cpi r24,lo8(112)
 1356 063a 01F4      		brne .+2
 1357 063c 00C0      		rjmp .L91
 1358 063e 00F4      		brsh .L95
 1359 0640 8033      		cpi r24,lo8(48)
 1360 0642 01F4      		brne .+2
 1361 0644 00C0      		rjmp .L89
 1362 0646 00F4      		brsh .L96
 1363 0648 8823      		tst r24
 1364 064a 01F0      		breq .L87
 1365 064c 8032      		cpi r24,lo8(32)
 1366 064e 01F0      		breq .+2
 1367 0650 00C0      		rjmp .L86
 1368 0652 00C0      		rjmp .L88
 1369               	.L96:
 1370 0654 8035      		cpi r24,lo8(80)
 1371 0656 01F4      		brne .+2
 1372 0658 00C0      		rjmp .L90
 1373 065a 8036      		cpi r24,lo8(96)
 1374 065c 01F4      		brne .+2
 1375 065e 00C0      		rjmp .L91
 1376 0660 8034      		cpi r24,lo8(64)
 1377 0662 01F0      		breq .+2
 1378 0664 00C0      		rjmp .L86
 1379 0666 00C0      		rjmp .L90
 1380               	.L95:
 1381 0668 803C      		cpi r24,lo8(-64)
 1382 066a 01F4      		brne .+2
 1383 066c 00C0      		rjmp .L94
 1384 066e 00F4      		brsh .L97
 1385 0670 8039      		cpi r24,lo8(-112)
 1386 0672 01F4      		brne .+2
 1387 0674 00C0      		rjmp .L92
 1388 0676 803A      		cpi r24,lo8(-96)
 1389 0678 01F4      		brne .+2
 1390 067a 00C0      		rjmp .L93
 1391 067c 8038      		cpi r24,lo8(-128)
 1392 067e 01F0      		breq .+2
 1393 0680 00C0      		rjmp .L86
 1394 0682 00C0      		rjmp .L92
 1395               	.L97:
 1396 0684 803E      		cpi r24,lo8(-32)
 1397 0686 01F4      		brne .+2
 1398 0688 00C0      		rjmp .L94
 1399 068a 803F      		cpi r24,lo8(-16)
 1400 068c 01F4      		brne .+2
 1401 068e 00C0      		rjmp .L94
 1402 0690 803D      		cpi r24,lo8(-48)
 1403 0692 01F0      		breq .+2
 1404 0694 00C0      		rjmp .L86
 1405 0696 00C0      		rjmp .L94
 1406               	.L87:
 956:/home/anaz/blinkyblocks/build/src-bobby/meldinterp-runtime/core.c ****       switch (0x0f & *(const unsigned char*)pc) {
 1407               		.loc 1 956 0
 1408 0698 8E2F      		mov r24,r30
 1409 069a 8F70      		andi r24,lo8(15)
 1410 069c 8230      		cpi r24,lo8(2)
 1411 069e 01F0      		breq .L101
 1412 06a0 00F4      		brsh .L104
 1413 06a2 8823      		tst r24
 1414 06a4 01F4      		brne .+2
 1415 06a6 00C0      		rjmp .L190
 1416 06a8 8130      		cpi r24,lo8(1)
 1417 06aa 01F0      		breq .+2
 1418 06ac 00C0      		rjmp .L98
 1419 06ae 00C0      		rjmp .L100
 1420               	.L104:
 1421 06b0 8330      		cpi r24,lo8(3)
 1422 06b2 01F0      		breq .L102
 1423 06b4 8850      		subi r24,lo8(-(-8))
 1424 06b6 8430      		cpi r24,lo8(4)
 1425 06b8 00F0      		brlo .+2
 1426 06ba 00C0      		rjmp .L98
 1427 06bc 00C0      		rjmp .L235
 1428               	.L100:
 969:/home/anaz/blinkyblocks/build/src-bobby/meldinterp-runtime/core.c **** 	return RET_NEXT;
 1429               		.loc 1 969 0
 1430 06be 21E0      		ldi r18,lo8(1)
 1431 06c0 30E0      		ldi r19,0
 1432 06c2 00C0      		rjmp .L99
 1433               	.L101:
 973:/home/anaz/blinkyblocks/build/src-bobby/meldinterp-runtime/core.c **** 	fprintf(stderr, "ELSE NOT IMPLEMENTED YET!\n");
 1434               		.loc 1 973 0
 1435 06c4 6091 0000 		lds r22,__iob+4
 1436 06c8 7091 0000 		lds r23,__iob+4+1
 1437 06cc 80E0      		ldi r24,lo8(.LC7)
 1438 06ce 90E0      		ldi r25,hi8(.LC7)
 1439 06d0 0E94 0000 		call fputs
 1440               	.LVL130:
 974:/home/anaz/blinkyblocks/build/src-bobby/meldinterp-runtime/core.c **** 	assert(0);
 1441               		.loc 1 974 0
 1442 06d4 40E0      		ldi r20,lo8(.LC0)
 1443 06d6 50E0      		ldi r21,hi8(.LC0)
 1444 06d8 6EEC      		ldi r22,lo8(-50)
 1445 06da 73E0      		ldi r23,lo8(3)
 1446 06dc 80E0      		ldi r24,lo8(.LC1)
 1447 06de 90E0      		ldi r25,hi8(.LC1)
 1448 06e0 0E94 0000 		call __myassert
 1449               	.LVL131:
 975:/home/anaz/blinkyblocks/build/src-bobby/meldinterp-runtime/core.c **** 	break;
 1450               		.loc 1 975 0
 1451 06e4 00C0      		rjmp .L234
 1452               	.L102:
 978:/home/anaz/blinkyblocks/build/src-bobby/meldinterp-runtime/core.c **** 	pc++;
 1453               		.loc 1 978 0
 1454 06e6 BFEF      		ldi r27,-1
 1455 06e8 AB1A      		sub r10,r27
 1456 06ea BB0A      		sbc r11,r27
 1457               	.LVL132:
 979:/home/anaz/blinkyblocks/build/src-bobby/meldinterp-runtime/core.c **** 	break;
 1458               		.loc 1 979 0
 1459 06ec 00C0      		rjmp .L234
 1460               	.L235:
 1461               	.LBB144:
 986:/home/anaz/blinkyblocks/build/src-bobby/meldinterp-runtime/core.c **** 	const unsigned char *new_pc = pc+3;
 1462               		.loc 1 986 0
 1463 06ee C501      		movw r24,r10
 1464 06f0 0396      		adiw r24,3
 1465 06f2 8983      		std Y+1,r24
 1466 06f4 9A83      		std Y+2,r25
 987:/home/anaz/blinkyblocks/build/src-bobby/meldinterp-runtime/core.c **** 	Register send_reg = reg[SEND_MSG(pc)];
 1467               		.loc 1 987 0
 1468 06f6 F501      		movw r30,r10
 1469 06f8 8181      		ldd r24,Z+1
 1470 06fa E081      		ld r30,Z
 1471 06fc E370      		andi r30,lo8(3)
 1472 06fe 28E0      		ldi r18,lo8(8)
 1473 0700 E29F      		mul r30,r18
 1474 0702 F001      		movw r30,r0
 1475 0704 1124      		clr __zero_reg__
 1476 0706 982F      		mov r25,r24
 1477 0708 9295      		swap r25
 1478 070a 9695      		lsr r25
 1479 070c 9770      		andi r25,lo8(7)
 1480 070e E92B      		or r30,r25
 1481 0710 EE0F      		lsl r30
 1482 0712 FF1F      		rol r31
 1483 0714 EE0F      		lsl r30
 1484 0716 FF1F      		rol r31
 1485 0718 E40D      		add r30,r4
 1486 071a F51D      		adc r31,r5
 1487 071c C080      		ld r12,Z
 1488 071e D180      		ldd r13,Z+1
 1489 0720 E280      		ldd r14,Z+2
 1490 0722 F380      		ldd r15,Z+3
 988:/home/anaz/blinkyblocks/build/src-bobby/meldinterp-runtime/core.c **** 	Register send_rt = reg[SEND_RT(pc)];
 1491               		.loc 1 988 0
 1492 0724 8F71      		andi r24,lo8(31)
 1493 0726 F201      		movw r30,r4
 1494 0728 34E0      		ldi r19,lo8(4)
 1495 072a 839F      		mul r24,r19
 1496 072c E00D      		add r30,r0
 1497 072e F11D      		adc r31,r1
 1498 0730 1124      		clr __zero_reg__
 1499 0732 6080      		ld r6,Z
 1500 0734 7180      		ldd r7,Z+1
 1501 0736 8280      		ldd r8,Z+2
 1502 0738 9380      		ldd r9,Z+3
 996:/home/anaz/blinkyblocks/build/src-bobby/meldinterp-runtime/core.c **** 		   MELD_INT(eval(SEND_DELAY(pc), &tuple, &new_pc, reg)), isNew);
 1503               		.loc 1 996 0
 1504 073a 9201      		movw r18,r4
 1505 073c AE01      		movw r20,r28
 1506 073e 4F5F      		subi r20,-1
 1507 0740 5F4F      		sbci r21,-1
 1508 0742 BE01      		movw r22,r28
 1509 0744 6D5F      		subi r22,-3
 1510 0746 7F4F      		sbci r23,-1
 1511 0748 D501      		movw r26,r10
 1512 074a 1296      		adiw r26,2
 1513 074c 8C91      		ld r24,X
 1514 074e 0E94 0000 		call eval
 1515               	.LVL133:
 994:/home/anaz/blinkyblocks/build/src-bobby/meldinterp-runtime/core.c **** 	tuple_send((tuple_t)MELD_CONVERT_REG_TO_PTR(send_reg),
 1516               		.loc 1 994 0
 1517 0752 FC01      		movw r30,r24
 1518 0754 2081      		ld r18,Z
 1519 0756 3181      		ldd r19,Z+1
 1520 0758 4281      		ldd r20,Z+2
 1521 075a 5381      		ldd r21,Z+3
 1522 075c 0B85      		ldd r16,Y+11
 1523 075e 1C85      		ldd r17,Y+12
 1524 0760 B301      		movw r22,r6
 1525 0762 C601      		movw r24,r12
 1526 0764 0E94 0000 		call tuple_send
 1527               	.LVL134:
 1528 0768 00C0      		rjmp .L150
 1529               	.L98:
 1530               	.LBE144:
1004:/home/anaz/blinkyblocks/build/src-bobby/meldinterp-runtime/core.c **** 	fprintf(stderr, "INVALID INSTRUCTION %u", *pc);
 1531               		.loc 1 1004 0
 1532 076a 1F92      		push __zero_reg__
 1533 076c EF93      		push r30
 1534 076e 20E0      		ldi r18,lo8(.LC8)
 1535 0770 30E0      		ldi r19,hi8(.LC8)
 1536 0772 3F93      		push r19
 1537 0774 2F93      		push r18
 1538 0776 8091 0000 		lds r24,__iob+5
 1539 077a 8F93      		push r24
 1540 077c 8091 0000 		lds r24,__iob+4
 1541 0780 8F93      		push r24
 1542 0782 0E94 0000 		call fprintf
 1543               	.LVL135:
1005:/home/anaz/blinkyblocks/build/src-bobby/meldinterp-runtime/core.c **** 	assert(0);
 1544               		.loc 1 1005 0
 1545 0786 40E0      		ldi r20,lo8(.LC0)
 1546 0788 50E0      		ldi r21,hi8(.LC0)
 1547 078a 6DEE      		ldi r22,lo8(-19)
 1548 078c 73E0      		ldi r23,lo8(3)
 1549 078e 00C0      		rjmp .L236
 1550               	.L88:
 1551 0790 6DB6      		in r6,__SP_L__
 1552 0792 7EB6      		in r7,__SP_H__
 1553               	.LBB145:
1012:/home/anaz/blinkyblocks/build/src-bobby/meldinterp-runtime/core.c ****       Register *dst = &reg[CALL_DST(pc)];
 1554               		.loc 1 1012 0
 1555 0794 D501      		movw r26,r10
 1556 0796 1196      		adiw r26,1
 1557 0798 8C91      		ld r24,X
 1558 079a 982F      		mov r25,r24
 1559 079c 9F71      		andi r25,lo8(31)
 1560 079e 4201      		movw r8,r4
 1561 07a0 B4E0      		ldi r27,lo8(4)
 1562 07a2 9B9F      		mul r25,r27
 1563 07a4 800C      		add r8,r0
 1564 07a6 911C      		adc r9,r1
 1565 07a8 1124      		clr __zero_reg__
 1566               	.LVL136:
1013:/home/anaz/blinkyblocks/build/src-bobby/meldinterp-runtime/core.c ****       Register args[CALL_ARGS(pc)];
 1567               		.loc 1 1013 0
 1568 07aa EF70      		andi r30,lo8(15)
 1569 07ac 28E0      		ldi r18,lo8(8)
 1570 07ae E29F      		mul r30,r18
 1571 07b0 F001      		movw r30,r0
 1572 07b2 1124      		clr __zero_reg__
 1573 07b4 8295      		swap r24
 1574 07b6 8695      		lsr r24
 1575 07b8 8770      		andi r24,lo8(7)
 1576 07ba E82B      		or r30,r24
 1577 07bc EE0F      		lsl r30
 1578 07be FF1F      		rol r31
 1579 07c0 E050      		subi r30,lo8(-(extern_functs_args))
 1580 07c2 F040      		sbci r31,hi8(-(extern_functs_args))
 1581 07c4 8081      		ld r24,Z
 1582 07c6 9181      		ldd r25,Z+1
 1583               	.LVL137:
 1584 07c8 9C01      		movw r18,r24
 1585 07ca 220F      		lsl r18
 1586 07cc 331F      		rol r19
 1587 07ce 220F      		lsl r18
 1588 07d0 331F      		rol r19
 1589 07d2 4DB7      		in r20,__SP_L__
 1590 07d4 5EB7      		in r21,__SP_H__
 1591 07d6 421B      		sub r20,r18
 1592 07d8 530B      		sbc r21,r19
 1593 07da 4DBF      		out __SP_L__,r20
 1594 07dc 5EBF      		out __SP_H__,r21
 1595 07de 2DB6      		in r2,__SP_L__
 1596 07e0 3EB6      		in r3,__SP_H__
 1597 07e2 AFEF      		ldi r26,-1
 1598 07e4 2A1A      		sub r2,r26
 1599 07e6 3A0A      		sbc r3,r26
 1600               	.LVL138:
1015:/home/anaz/blinkyblocks/build/src-bobby/meldinterp-runtime/core.c ****       assert(CALL_ARGS(pc) <= 5);
 1601               		.loc 1 1015 0
 1602 07e8 0697      		sbiw r24,6
 1603 07ea 04F0      		brlt .L106
1015:/home/anaz/blinkyblocks/build/src-bobby/meldinterp-runtime/core.c ****       assert(CALL_ARGS(pc) <= 5);
 1604               		.loc 1 1015 0 is_stmt 0 discriminator 1
 1605 07ec 40E0      		ldi r20,lo8(.LC9)
 1606 07ee 50E0      		ldi r21,hi8(.LC9)
 1607 07f0 67EF      		ldi r22,lo8(-9)
 1608 07f2 73E0      		ldi r23,lo8(3)
 1609 07f4 80E0      		ldi r24,lo8(.LC1)
 1610 07f6 90E0      		ldi r25,hi8(.LC1)
 1611               	.LVL139:
 1612 07f8 0E94 0000 		call __myassert
 1613               	.LVL140:
 1614               	.L106:
1022:/home/anaz/blinkyblocks/build/src-bobby/meldinterp-runtime/core.c ****       const unsigned char *new_pc = pc+2;
 1615               		.loc 1 1022 0 is_stmt 1
 1616 07fc C501      		movw r24,r10
 1617 07fe 0296      		adiw r24,2
 1618 0800 8983      		std Y+1,r24
 1619 0802 9A83      		std Y+2,r25
 1620               	.LVL141:
 1621 0804 6101      		movw r12,r2
1023:/home/anaz/blinkyblocks/build/src-bobby/meldinterp-runtime/core.c ****       for (i = 0; i < CALL_ARGS(pc); i++) {
 1622               		.loc 1 1023 0
 1623 0806 E12C      		mov r14,__zero_reg__
 1624 0808 F12C      		mov r15,__zero_reg__
 1625 080a 00C0      		rjmp .L107
 1626               	.LVL142:
 1627               	.L108:
 1628               	.LBB146:
1024:/home/anaz/blinkyblocks/build/src-bobby/meldinterp-runtime/core.c **** 	unsigned char value = CALL_VAL(new_pc);
 1629               		.loc 1 1024 0 discriminator 2
 1630 080c E981      		ldd r30,Y+1
 1631 080e FA81      		ldd r31,Y+2
 1632 0810 8191      		ld r24,Z+
 1633               	.LVL143:
1025:/home/anaz/blinkyblocks/build/src-bobby/meldinterp-runtime/core.c **** 	new_pc++;
 1634               		.loc 1 1025 0 discriminator 2
 1635 0812 E983      		std Y+1,r30
 1636 0814 FA83      		std Y+2,r31
1026:/home/anaz/blinkyblocks/build/src-bobby/meldinterp-runtime/core.c **** 	args[i] = MELD_CONVERT_PTR_TO_REG(eval(value, &tuple, &new_pc, reg));
 1637               		.loc 1 1026 0 discriminator 2
 1638 0816 9201      		movw r18,r4
 1639 0818 AE01      		movw r20,r28
 1640 081a 4F5F      		subi r20,-1
 1641 081c 5F4F      		sbci r21,-1
 1642 081e BE01      		movw r22,r28
 1643 0820 6D5F      		subi r22,-3
 1644 0822 7F4F      		sbci r23,-1
 1645 0824 0E94 0000 		call eval
 1646               	.LVL144:
 1647 0828 AA27      		clr r26
 1648 082a 97FD      		sbrc r25,7
 1649 082c A095      		com r26
 1650 082e BA2F      		mov r27,r26
 1651 0830 F601      		movw r30,r12
 1652 0832 8193      		st Z+,r24
 1653 0834 9193      		st Z+,r25
 1654 0836 A193      		st Z+,r26
 1655 0838 B193      		st Z+,r27
 1656 083a 6F01      		movw r12,r30
 1657               	.LBE146:
1023:/home/anaz/blinkyblocks/build/src-bobby/meldinterp-runtime/core.c ****       for (i = 0; i < CALL_ARGS(pc); i++) {
 1658               		.loc 1 1023 0 discriminator 2
 1659 083c FFEF      		ldi r31,-1
 1660 083e EF1A      		sub r14,r31
 1661 0840 FF0A      		sbc r15,r31
 1662               	.LVL145:
 1663               	.L107:
1023:/home/anaz/blinkyblocks/build/src-bobby/meldinterp-runtime/core.c ****       for (i = 0; i < CALL_ARGS(pc); i++) {
 1664               		.loc 1 1023 0 is_stmt 0 discriminator 1
 1665 0842 D501      		movw r26,r10
 1666 0844 EC91      		ld r30,X
 1667 0846 EF70      		andi r30,lo8(15)
 1668 0848 B8E0      		ldi r27,lo8(8)
 1669 084a EB9F      		mul r30,r27
 1670 084c F001      		movw r30,r0
 1671 084e 1124      		clr __zero_reg__
 1672 0850 D501      		movw r26,r10
 1673 0852 1196      		adiw r26,1
 1674 0854 8C91      		ld r24,X
 1675 0856 8295      		swap r24
 1676 0858 8695      		lsr r24
 1677 085a 8770      		andi r24,lo8(7)
 1678 085c E82B      		or r30,r24
 1679 085e EE0F      		lsl r30
 1680 0860 FF1F      		rol r31
 1681 0862 DF01      		movw r26,r30
 1682 0864 A050      		subi r26,lo8(-(extern_functs_args))
 1683 0866 B040      		sbci r27,hi8(-(extern_functs_args))
 1684 0868 8D91      		ld r24,X+
 1685 086a 9C91      		ld r25,X
 1686 086c E816      		cp r14,r24
 1687 086e F906      		cpc r15,r25
 1688 0870 04F0      		brlt .L108
1029:/home/anaz/blinkyblocks/build/src-bobby/meldinterp-runtime/core.c ****       switch (CALL_ARGS(pc)) {
 1689               		.loc 1 1029 0 is_stmt 1
 1690 0872 8230      		cpi r24,2
 1691 0874 9105      		cpc r25,__zero_reg__
 1692 0876 01F0      		breq .L112
 1693 0878 04F4      		brge .L116
 1694 087a 0097      		sbiw r24,0
 1695 087c 01F0      		breq .L110
 1696 087e 0197      		sbiw r24,1
 1697 0880 01F0      		breq .+2
 1698 0882 00C0      		rjmp .L109
 1699 0884 00C0      		rjmp .L111
 1700               	.L116:
 1701 0886 8430      		cpi r24,4
 1702 0888 9105      		cpc r25,__zero_reg__
 1703 088a 01F4      		brne .+2
 1704 088c 00C0      		rjmp .L114
 1705 088e 04F0      		brlt .L113
 1706 0890 0597      		sbiw r24,5
 1707 0892 01F0      		breq .+2
 1708 0894 00C0      		rjmp .L109
 1709 0896 00C0      		rjmp .L115
 1710               	.L110:
1033:/home/anaz/blinkyblocks/build/src-bobby/meldinterp-runtime/core.c **** 	*dst = CALL_FUNC(pc)();
 1711               		.loc 1 1033 0
 1712 0898 E050      		subi r30,lo8(-(extern_functs))
 1713 089a F040      		sbci r31,hi8(-(extern_functs))
 1714 089c 0190      		ld __tmp_reg__,Z+
 1715 089e F081      		ld r31,Z
 1716 08a0 E02D      		mov r30,__tmp_reg__
 1717 08a2 1995      		eicall
 1718               	.LVL146:
 1719 08a4 00C0      		rjmp .L237
 1720               	.L111:
1036:/home/anaz/blinkyblocks/build/src-bobby/meldinterp-runtime/core.c **** 	*dst = CALL_FUNC(pc)(args[0]);
 1721               		.loc 1 1036 0
 1722 08a6 E050      		subi r30,lo8(-(extern_functs))
 1723 08a8 F040      		sbci r31,hi8(-(extern_functs))
 1724 08aa D101      		movw r26,r2
 1725 08ac 6D91      		ld r22,X+
 1726 08ae 7D91      		ld r23,X+
 1727 08b0 8D91      		ld r24,X+
 1728 08b2 9C91      		ld r25,X
 1729 08b4 0190      		ld __tmp_reg__,Z+
 1730 08b6 F081      		ld r31,Z
 1731 08b8 E02D      		mov r30,__tmp_reg__
 1732 08ba 1995      		eicall
 1733               	.LVL147:
 1734               	.L237:
 1735 08bc F401      		movw r30,r8
 1736 08be 6083      		st Z,r22
 1737 08c0 7183      		std Z+1,r23
 1738 08c2 8283      		std Z+2,r24
 1739 08c4 9383      		std Z+3,r25
1037:/home/anaz/blinkyblocks/build/src-bobby/meldinterp-runtime/core.c **** 	break;
 1740               		.loc 1 1037 0
 1741 08c6 00C0      		rjmp .L109
 1742               	.LVL148:
 1743               	.L112:
1039:/home/anaz/blinkyblocks/build/src-bobby/meldinterp-runtime/core.c **** 	*dst = CALL_FUNC(pc)(args[0], args[1]);
 1744               		.loc 1 1039 0
 1745 08c8 E050      		subi r30,lo8(-(extern_functs))
 1746 08ca F040      		sbci r31,hi8(-(extern_functs))
 1747 08cc D101      		movw r26,r2
 1748 08ce 1496      		adiw r26,4
 1749 08d0 2D91      		ld r18,X+
 1750 08d2 3D91      		ld r19,X+
 1751 08d4 4D91      		ld r20,X+
 1752 08d6 5C91      		ld r21,X
 1753 08d8 1797      		sbiw r26,4+3
 1754 08da 6D91      		ld r22,X+
 1755 08dc 7D91      		ld r23,X+
 1756 08de 8D91      		ld r24,X+
 1757 08e0 9C91      		ld r25,X
 1758 08e2 0190      		ld __tmp_reg__,Z+
 1759 08e4 F081      		ld r31,Z
 1760 08e6 E02D      		mov r30,__tmp_reg__
 1761 08e8 1995      		eicall
 1762               	.LVL149:
 1763 08ea 00C0      		rjmp .L237
 1764               	.L113:
1042:/home/anaz/blinkyblocks/build/src-bobby/meldinterp-runtime/core.c **** 	*dst = CALL_FUNC(pc)(args[0], args[1], args[2]);
 1765               		.loc 1 1042 0
 1766 08ec E050      		subi r30,lo8(-(extern_functs))
 1767 08ee F040      		sbci r31,hi8(-(extern_functs))
 1768 08f0 D101      		movw r26,r2
 1769 08f2 1896      		adiw r26,8
 1770 08f4 ED90      		ld r14,X+
 1771 08f6 FD90      		ld r15,X+
 1772 08f8 0D91      		ld r16,X+
 1773 08fa 1C91      		ld r17,X
 1774 08fc 1B97      		sbiw r26,8+3
 1775               	.LVL150:
 1776 08fe 1496      		adiw r26,4
 1777 0900 2D91      		ld r18,X+
 1778 0902 3D91      		ld r19,X+
 1779 0904 4D91      		ld r20,X+
 1780 0906 5C91      		ld r21,X
 1781 0908 1797      		sbiw r26,4+3
 1782 090a 6D91      		ld r22,X+
 1783 090c 7D91      		ld r23,X+
 1784 090e 8D91      		ld r24,X+
 1785 0910 9C91      		ld r25,X
 1786 0912 0190      		ld __tmp_reg__,Z+
 1787 0914 F081      		ld r31,Z
 1788 0916 E02D      		mov r30,__tmp_reg__
 1789 0918 1995      		eicall
 1790               	.LVL151:
 1791 091a 00C0      		rjmp .L237
 1792               	.LVL152:
 1793               	.L114:
1045:/home/anaz/blinkyblocks/build/src-bobby/meldinterp-runtime/core.c **** 	*dst = CALL_FUNC(pc)(args[0], args[1], args[2], args[3]);
 1794               		.loc 1 1045 0
 1795 091c E050      		subi r30,lo8(-(extern_functs))
 1796 091e F040      		sbci r31,hi8(-(extern_functs))
 1797 0920 D101      		movw r26,r2
 1798 0922 1C96      		adiw r26,12
 1799 0924 AD90      		ld r10,X+
 1800 0926 BD90      		ld r11,X+
 1801 0928 CD90      		ld r12,X+
 1802 092a DC90      		ld r13,X
 1803 092c 1F97      		sbiw r26,12+3
 1804               	.LVL153:
 1805 092e 1896      		adiw r26,8
 1806 0930 ED90      		ld r14,X+
 1807 0932 FD90      		ld r15,X+
 1808 0934 0D91      		ld r16,X+
 1809 0936 1C91      		ld r17,X
 1810 0938 1B97      		sbiw r26,8+3
 1811               	.LVL154:
 1812 093a 1496      		adiw r26,4
 1813 093c 2D91      		ld r18,X+
 1814 093e 3D91      		ld r19,X+
 1815 0940 4D91      		ld r20,X+
 1816 0942 5C91      		ld r21,X
 1817 0944 1797      		sbiw r26,4+3
 1818 0946 6D91      		ld r22,X+
 1819 0948 7D91      		ld r23,X+
 1820 094a 8D91      		ld r24,X+
 1821 094c 9C91      		ld r25,X
 1822 094e 0190      		ld __tmp_reg__,Z+
 1823 0950 F081      		ld r31,Z
 1824 0952 E02D      		mov r30,__tmp_reg__
 1825 0954 1995      		eicall
 1826               	.LVL155:
 1827 0956 00C0      		rjmp .L237
 1828               	.LVL156:
 1829               	.L115:
1048:/home/anaz/blinkyblocks/build/src-bobby/meldinterp-runtime/core.c **** 	*dst = CALL_FUNC(pc)(args[0], args[1], args[2], args[3], args[4]);
 1830               		.loc 1 1048 0
 1831 0958 E050      		subi r30,lo8(-(extern_functs))
 1832 095a F040      		sbci r31,hi8(-(extern_functs))
 1833 095c D101      		movw r26,r2
 1834 095e 1C96      		adiw r26,12
 1835 0960 AD90      		ld r10,X+
 1836 0962 BD90      		ld r11,X+
 1837 0964 CD90      		ld r12,X+
 1838 0966 DC90      		ld r13,X
 1839 0968 1F97      		sbiw r26,12+3
 1840               	.LVL157:
 1841 096a 1896      		adiw r26,8
 1842 096c ED90      		ld r14,X+
 1843 096e FD90      		ld r15,X+
 1844 0970 0D91      		ld r16,X+
 1845 0972 1C91      		ld r17,X
 1846 0974 1B97      		sbiw r26,8+3
 1847               	.LVL158:
 1848 0976 1496      		adiw r26,4
 1849 0978 2D91      		ld r18,X+
 1850 097a 3D91      		ld r19,X+
 1851 097c 4D91      		ld r20,X+
 1852 097e 5C91      		ld r21,X
 1853 0980 1797      		sbiw r26,4+3
 1854 0982 6D91      		ld r22,X+
 1855 0984 7D91      		ld r23,X+
 1856 0986 8D91      		ld r24,X+
 1857 0988 9C91      		ld r25,X
 1858 098a 1397      		sbiw r26,3
 1859 098c 5396      		adiw r26,19
 1860 098e BC91      		ld r27,X
 1861 0990 BF93      		push r27
 1862 0992 D101      		movw r26,r2
 1863 0994 5296      		adiw r26,18
 1864 0996 BC91      		ld r27,X
 1865 0998 BF93      		push r27
 1866 099a D101      		movw r26,r2
 1867 099c 5196      		adiw r26,17
 1868 099e BC91      		ld r27,X
 1869 09a0 BF93      		push r27
 1870 09a2 D101      		movw r26,r2
 1871 09a4 5096      		adiw r26,16
 1872 09a6 3C90      		ld r3,X
 1873 09a8 3F92      		push r3
 1874 09aa 0190      		ld __tmp_reg__,Z+
 1875 09ac F081      		ld r31,Z
 1876 09ae E02D      		mov r30,__tmp_reg__
 1877 09b0 1995      		eicall
 1878               	.LVL159:
 1879 09b2 F401      		movw r30,r8
 1880 09b4 6083      		st Z,r22
 1881 09b6 7183      		std Z+1,r23
 1882 09b8 8283      		std Z+2,r24
 1883 09ba 9383      		std Z+3,r25
1049:/home/anaz/blinkyblocks/build/src-bobby/meldinterp-runtime/core.c **** 	break;
 1884               		.loc 1 1049 0
 1885 09bc 0F90      		pop __tmp_reg__
 1886 09be 0F90      		pop __tmp_reg__
 1887 09c0 0F90      		pop __tmp_reg__
 1888 09c2 0F90      		pop __tmp_reg__
 1889               	.L109:
1052:/home/anaz/blinkyblocks/build/src-bobby/meldinterp-runtime/core.c ****       pc = new_pc;
 1890               		.loc 1 1052 0
 1891 09c4 A980      		ldd r10,Y+1
 1892 09c6 BA80      		ldd r11,Y+2
 1893               	.LVL160:
 1894 09c8 862D      		mov r24,r6
 1895 09ca 972D      		mov r25,r7
 1896 09cc 8DBF      		out __SP_L__,r24
 1897 09ce 9EBF      		out __SP_H__,r25
 1898 09d0 00C0      		rjmp .L234
 1899               	.LVL161:
 1900               	.L89:
 1901               	.LBE145:
 1902               	.LBB147:
1058:/home/anaz/blinkyblocks/build/src-bobby/meldinterp-runtime/core.c **** 	const unsigned char *new_pc = pc+2;
 1903               		.loc 1 1058 0
 1904 09d2 C501      		movw r24,r10
 1905 09d4 0296      		adiw r24,2
 1906 09d6 8983      		std Y+1,r24
 1907 09d8 9A83      		std Y+2,r25
 1908               	.LVL162:
1105:/home/anaz/blinkyblocks/build/src-bobby/meldinterp-runtime/core.c **** 	Register *src = eval(MOVE_SRC(pc), &tuple, &new_pc, reg);
 1909               		.loc 1 1105 0
 1910 09da D501      		movw r26,r10
 1911 09dc 8C91      		ld r24,X
 1912 09de 8F70      		andi r24,lo8(15)
 1913 09e0 B4E0      		ldi r27,lo8(4)
 1914 09e2 8B9F      		mul r24,r27
 1915 09e4 C001      		movw r24,r0
 1916 09e6 1124      		clr __zero_reg__
 1917 09e8 F501      		movw r30,r10
 1918 09ea 9181      		ldd r25,Z+1
 1919 09ec 9295      		swap r25
 1920 09ee 9695      		lsr r25
 1921 09f0 9695      		lsr r25
 1922 09f2 9370      		andi r25,lo8(3)
 1923 09f4 9201      		movw r18,r4
 1924 09f6 AE01      		movw r20,r28
 1925 09f8 4F5F      		subi r20,-1
 1926 09fa 5F4F      		sbci r21,-1
 1927 09fc BE01      		movw r22,r28
 1928 09fe 6D5F      		subi r22,-3
 1929 0a00 7F4F      		sbci r23,-1
 1930 0a02 892B      		or r24,r25
 1931 0a04 0E94 0000 		call eval
 1932               	.LVL163:
 1933 0a08 8C01      		movw r16,r24
 1934               	.LVL164:
1106:/home/anaz/blinkyblocks/build/src-bobby/meldinterp-runtime/core.c **** 	Register *dst = eval_dst(MOVE_DST(pc), &new_pc, reg, &size);
 1935               		.loc 1 1106 0
 1936 0a0a D501      		movw r26,r10
 1937 0a0c 1196      		adiw r26,1
 1938 0a0e 8C91      		ld r24,X
 1939               	.LVL165:
 1940               	.LBB148:
 1941               	.LBB149:
 240:/home/anaz/blinkyblocks/build/src-bobby/meldinterp-runtime/core.c ****   if (VAL_IS_REG(value)) {
 1942               		.loc 1 240 0
 1943 0a10 85FF      		sbrs r24,5
 1944 0a12 00C0      		rjmp .L117
 1945               	.LVL166:
 1946               	.LBE149:
 242:/home/anaz/blinkyblocks/build/src-bobby/meldinterp-runtime/core.c ****     return &(reg)[VAL_REG(value)];
 1947               		.loc 1 242 0
 1948 0a14 8F71      		andi r24,lo8(31)
 1949               	.LVL167:
 1950               	.LBB152:
 1951 0a16 9201      		movw r18,r4
 1952 0a18 B4E0      		ldi r27,lo8(4)
 1953 0a1a 8B9F      		mul r24,r27
 1954 0a1c 200D      		add r18,r0
 1955 0a1e 311D      		adc r19,r1
 1956 0a20 1124      		clr __zero_reg__
 241:/home/anaz/blinkyblocks/build/src-bobby/meldinterp-runtime/core.c ****     *size = sizeof(Register);
 1957               		.loc 1 241 0
 1958 0a22 84E0      		ldi r24,lo8(4)
 1959 0a24 90E0      		ldi r25,0
 1960 0a26 00C0      		rjmp .L118
 1961               	.LVL168:
 1962               	.L117:
 1963               	.LBE152:
 1964               	.LBE148:
1106:/home/anaz/blinkyblocks/build/src-bobby/meldinterp-runtime/core.c **** 	Register *dst = eval_dst(MOVE_DST(pc), &new_pc, reg, &size);
 1965               		.loc 1 1106 0
 1966 0a28 8F73      		andi r24,lo8(63)
 1967               	.LVL169:
 1968               	.LBB155:
 1969               	.LBB153:
 243:/home/anaz/blinkyblocks/build/src-bobby/meldinterp-runtime/core.c ****   } else if (VAL_IS_FIELD(value)) {
 1970               		.loc 1 243 0
 1971 0a2a 8230      		cpi r24,lo8(2)
 1972 0a2c 01F4      		brne .L119
 1973               	.LBB150:
 244:/home/anaz/blinkyblocks/build/src-bobby/meldinterp-runtime/core.c ****     int reg_index = VAL_FIELD_REG(*pc);
 1974               		.loc 1 244 0
 1975 0a2e 4981      		ldd r20,Y+1
 1976 0a30 5A81      		ldd r21,Y+2
 1977               	.LBE150:
 1978               	.LBE153:
 1979 0a32 FA01      		movw r30,r20
 1980 0a34 8181      		ldd r24,Z+1
 1981 0a36 8F71      		andi r24,lo8(31)
 1982               	.LVL170:
 1983               	.LBB154:
 1984               	.LBB151:
 245:/home/anaz/blinkyblocks/build/src-bobby/meldinterp-runtime/core.c ****     int field_num = VAL_FIELD_NUM(*pc);
 1985               		.loc 1 245 0
 1986 0a38 9081      		ld r25,Z
 1987               	.LVL171:
 246:/home/anaz/blinkyblocks/build/src-bobby/meldinterp-runtime/core.c ****     tuple_t tuple = (tuple_t)MELD_CONVERT_REG_TO_PTR(reg[reg_index]);
 1988               		.loc 1 246 0
 1989 0a3a F201      		movw r30,r4
 1990 0a3c 24E0      		ldi r18,lo8(4)
 1991 0a3e 829F      		mul r24,r18
 1992 0a40 E00D      		add r30,r0
 1993 0a42 F11D      		adc r31,r1
 1994 0a44 1124      		clr __zero_reg__
 1995 0a46 A081      		ld r26,Z
 1996 0a48 B181      		ldd r27,Z+1
 1997               	.LVL172:
 247:/home/anaz/blinkyblocks/build/src-bobby/meldinterp-runtime/core.c ****     tuple_type type = TUPLE_TYPE(tuple);
 1998               		.loc 1 247 0
 1999 0a4a 8C91      		ld r24,X
 2000               	.LVL173:
 249:/home/anaz/blinkyblocks/build/src-bobby/meldinterp-runtime/core.c ****     *size = TYPE_ARG_SIZE(type, field_num);
 2001               		.loc 1 249 0
 2002 0a4c 7091 0000 		lds r23,arguments
 2003 0a50 6091 0000 		lds r22,arguments+1
 2004 0a54 E72F      		mov r30,r23
 2005 0a56 F62F      		mov r31,r22
 2006 0a58 E80F      		add r30,r24
 2007 0a5a F11D      		adc r31,__zero_reg__
 2008 0a5c E80F      		add r30,r24
 2009 0a5e F11D      		adc r31,__zero_reg__
 2010 0a60 8081      		ld r24,Z
 2011               	.LVL174:
 2012 0a62 272F      		mov r18,r23
 2013 0a64 362F      		mov r19,r22
 2014 0a66 290F      		add r18,r25
 2015 0a68 311D      		adc r19,__zero_reg__
 2016 0a6a 290F      		add r18,r25
 2017 0a6c 311D      		adc r19,__zero_reg__
 2018 0a6e F901      		movw r30,r18
 2019 0a70 E80F      		add r30,r24
 2020 0a72 F11D      		adc r31,__zero_reg__
 2021 0a74 8081      		ld r24,Z
 2022 0a76 90E0      		ldi r25,0
 2023               	.LVL175:
 251:/home/anaz/blinkyblocks/build/src-bobby/meldinterp-runtime/core.c ****     (*pc) += 2;
 2024               		.loc 1 251 0
 2025 0a78 4E5F      		subi r20,-2
 2026 0a7a 5F4F      		sbci r21,-1
 2027               	.LVL176:
 2028 0a7c 4983      		std Y+1,r20
 2029 0a7e 5A83      		std Y+2,r21
 253:/home/anaz/blinkyblocks/build/src-bobby/meldinterp-runtime/core.c ****     return GET_TUPLE_FIELD(tuple, field_num);
 2030               		.loc 1 253 0
 2031 0a80 4C91      		ld r20,X
 2032 0a82 E72F      		mov r30,r23
 2033 0a84 F62F      		mov r31,r22
 2034 0a86 E40F      		add r30,r20
 2035 0a88 F11D      		adc r31,__zero_reg__
 2036 0a8a E40F      		add r30,r20
 2037 0a8c F11D      		adc r31,__zero_reg__
 2038 0a8e 4081      		ld r20,Z
 2039 0a90 F901      		movw r30,r18
 2040 0a92 E40F      		add r30,r20
 2041 0a94 F11D      		adc r31,__zero_reg__
 2042 0a96 2181      		ldd r18,Z+1
 2043 0a98 30E0      		ldi r19,0
 2044 0a9a 2F5F      		subi r18,-1
 2045 0a9c 3F4F      		sbci r19,-1
 2046 0a9e 2A0F      		add r18,r26
 2047 0aa0 3B1F      		adc r19,r27
 2048 0aa2 00C0      		rjmp .L118
 2049               	.LVL177:
 2050               	.L119:
 2051               	.LBE151:
 255:/home/anaz/blinkyblocks/build/src-bobby/meldinterp-runtime/core.c ****     assert(0);
 2052               		.loc 1 255 0
 2053 0aa4 40E0      		ldi r20,lo8(.LC0)
 2054 0aa6 50E0      		ldi r21,hi8(.LC0)
 254:/home/anaz/blinkyblocks/build/src-bobby/meldinterp-runtime/core.c ****   } else if (VAL_IS_INT(value)) {
 2055               		.loc 1 254 0
 2056 0aa8 8130      		cpi r24,lo8(1)
 2057 0aaa 01F4      		brne .L120
 255:/home/anaz/blinkyblocks/build/src-bobby/meldinterp-runtime/core.c ****     assert(0);
 2058               		.loc 1 255 0
 2059 0aac 6FEF      		ldi r22,lo8(-1)
 2060 0aae 70E0      		ldi r23,0
 2061 0ab0 00C0      		rjmp .L238
 2062               	.L120:
 256:/home/anaz/blinkyblocks/build/src-bobby/meldinterp-runtime/core.c ****   } else if (VAL_IS_FLOAT(value)) {
 2063               		.loc 1 256 0
 2064 0ab2 8111      		cpse r24,__zero_reg__
 2065 0ab4 00C0      		rjmp .L122
 257:/home/anaz/blinkyblocks/build/src-bobby/meldinterp-runtime/core.c ****     assert(0);
 2066               		.loc 1 257 0
 2067 0ab6 61E0      		ldi r22,lo8(1)
 2068 0ab8 71E0      		ldi r23,lo8(1)
 2069 0aba 00C0      		rjmp .L238
 2070               	.L122:
 258:/home/anaz/blinkyblocks/build/src-bobby/meldinterp-runtime/core.c ****   } else if(VAL_IS_TUPLE(value)) {
 2071               		.loc 1 258 0
 2072 0abc 8F31      		cpi r24,lo8(31)
 2073 0abe 01F4      		brne .L123
 259:/home/anaz/blinkyblocks/build/src-bobby/meldinterp-runtime/core.c ****     assert(0);
 2074               		.loc 1 259 0
 2075 0ac0 63E0      		ldi r22,lo8(3)
 2076 0ac2 71E0      		ldi r23,lo8(1)
 2077 0ac4 00C0      		rjmp .L238
 2078               	.L123:
 260:/home/anaz/blinkyblocks/build/src-bobby/meldinterp-runtime/core.c ****   } else if(VAL_IS_HOST(value)) {
 2079               		.loc 1 260 0
 2080 0ac6 8330      		cpi r24,lo8(3)
 2081 0ac8 01F4      		brne .L124
 261:/home/anaz/blinkyblocks/build/src-bobby/meldinterp-runtime/core.c ****     assert(0);
 2082               		.loc 1 261 0
 2083 0aca 65E0      		ldi r22,lo8(5)
 2084 0acc 71E0      		ldi r23,lo8(1)
 2085 0ace 00C0      		rjmp .L238
 2086               	.L124:
 263:/home/anaz/blinkyblocks/build/src-bobby/meldinterp-runtime/core.c ****     assert(0 /* invalid value */ );
 2087               		.loc 1 263 0
 2088 0ad0 67E0      		ldi r22,lo8(7)
 2089 0ad2 71E0      		ldi r23,lo8(1)
 2090               	.L238:
 2091 0ad4 80E0      		ldi r24,lo8(.LC1)
 2092 0ad6 90E0      		ldi r25,hi8(.LC1)
 2093 0ad8 0E94 0000 		call __myassert
 2094               	.LVL178:
 266:/home/anaz/blinkyblocks/build/src-bobby/meldinterp-runtime/core.c ****   assert(0);
 2095               		.loc 1 266 0
 2096 0adc 40E0      		ldi r20,lo8(.LC0)
 2097 0ade 50E0      		ldi r21,hi8(.LC0)
 2098 0ae0 6AE0      		ldi r22,lo8(10)
 2099 0ae2 71E0      		ldi r23,lo8(1)
 2100 0ae4 80E0      		ldi r24,lo8(.LC1)
 2101 0ae6 90E0      		ldi r25,hi8(.LC1)
 2102 0ae8 0E94 0000 		call __myassert
 2103               	.LVL179:
1103:/home/anaz/blinkyblocks/build/src-bobby/meldinterp-runtime/core.c **** 	size_t size = 0;
 2104               		.loc 1 1103 0
 2105 0aec 80E0      		ldi r24,0
 2106 0aee 90E0      		ldi r25,0
 267:/home/anaz/blinkyblocks/build/src-bobby/meldinterp-runtime/core.c ****   return NULL;
 2107               		.loc 1 267 0
 2108 0af0 20E0      		ldi r18,0
 2109 0af2 30E0      		ldi r19,0
 2110               	.LVL180:
 2111               	.L118:
 2112               	.LBE154:
 2113               	.LBE155:
1108:/home/anaz/blinkyblocks/build/src-bobby/meldinterp-runtime/core.c **** 	memcpy(dst, src, size);
 2114               		.loc 1 1108 0
 2115 0af4 AC01      		movw r20,r24
 2116 0af6 B801      		movw r22,r16
 2117 0af8 C901      		movw r24,r18
 2118               	.LVL181:
 2119 0afa 0E94 0000 		call memcpy
 2120               	.LVL182:
 2121 0afe 00C0      		rjmp .L150
 2122               	.LVL183:
 2123               	.L90:
 2124               	.LBE147:
 2125               	.LBB156:
1117:/home/anaz/blinkyblocks/build/src-bobby/meldinterp-runtime/core.c **** 	const unsigned char *new_pc = pc+2;
 2126               		.loc 1 1117 0
 2127 0b00 C501      		movw r24,r10
 2128 0b02 0296      		adiw r24,2
 2129 0b04 8983      		std Y+1,r24
 2130 0b06 9A83      		std Y+2,r25
1119:/home/anaz/blinkyblocks/build/src-bobby/meldinterp-runtime/core.c **** 	tuple_type type = ALLOC_TYPE(pc);
 2131               		.loc 1 1119 0
 2132 0b08 D501      		movw r26,r10
 2133 0b0a 1196      		adiw r26,1
 2134 0b0c 8C91      		ld r24,X
 2135 0b0e 1197      		sbiw r26,1
 2136 0b10 0C91      		ld r16,X
 2137 0b12 0F71      		andi r16,lo8(31)
 2138 0b14 B4E0      		ldi r27,lo8(4)
 2139 0b16 0B9F      		mul r16,r27
 2140 0b18 8001      		movw r16,r0
 2141 0b1a 1124      		clr __zero_reg__
 2142 0b1c 982F      		mov r25,r24
 2143 0b1e 9295      		swap r25
 2144 0b20 9695      		lsr r25
 2145 0b22 9695      		lsr r25
 2146 0b24 9370      		andi r25,lo8(3)
 2147 0b26 092B      		or r16,r25
 2148               	.LVL184:
1127:/home/anaz/blinkyblocks/build/src-bobby/meldinterp-runtime/core.c **** 	dst = eval(ALLOC_DST(pc), &tuple, &new_pc, reg);
 2149               		.loc 1 1127 0
 2150 0b28 9201      		movw r18,r4
 2151 0b2a AE01      		movw r20,r28
 2152 0b2c 4F5F      		subi r20,-1
 2153 0b2e 5F4F      		sbci r21,-1
 2154 0b30 BE01      		movw r22,r28
 2155 0b32 6D5F      		subi r22,-3
 2156 0b34 7F4F      		sbci r23,-1
 2157 0b36 8F73      		andi r24,lo8(63)
 2158 0b38 0E94 0000 		call eval
 2159               	.LVL185:
 2160 0b3c 6C01      		movw r12,r24
 2161               	.LVL186:
1129:/home/anaz/blinkyblocks/build/src-bobby/meldinterp-runtime/core.c **** 	*dst = ALLOC_TUPLE(TYPE_SIZE(type));
 2162               		.loc 1 1129 0
 2163 0b3e 7801      		movw r14,r16
 2164 0b40 EE0C      		lsl r14
 2165 0b42 FF1C      		rol r15
 2166 0b44 EFEF      		ldi r30,-1
 2167 0b46 EE1A      		sub r14,r30
 2168 0b48 FE0A      		sbc r15,r30
 2169 0b4a E091 0000 		lds r30,arguments
 2170 0b4e F091 0000 		lds r31,arguments+1
 2171 0b52 EE0D      		add r30,r14
 2172 0b54 FF1D      		adc r31,r15
 2173 0b56 8081      		ld r24,Z
 2174 0b58 90E0      		ldi r25,0
 2175 0b5a 0E94 0000 		call malloc
 2176               	.LVL187:
 2177 0b5e D601      		movw r26,r12
 2178 0b60 8C93      		st X,r24
 2179 0b62 1196      		adiw r26,1
 2180 0b64 9C93      		st X,r25
1130:/home/anaz/blinkyblocks/build/src-bobby/meldinterp-runtime/core.c **** 	memset(*dst, 0, TYPE_SIZE(type));
 2181               		.loc 1 1130 0
 2182 0b66 E091 0000 		lds r30,arguments
 2183 0b6a F091 0000 		lds r31,arguments+1
 2184 0b6e EE0D      		add r30,r14
 2185 0b70 FF1D      		adc r31,r15
 2186 0b72 4081      		ld r20,Z
 2187 0b74 50E0      		ldi r21,0
 2188 0b76 60E0      		ldi r22,0
 2189 0b78 70E0      		ldi r23,0
 2190 0b7a 0E94 0000 		call memset
 2191               	.LVL188:
1131:/home/anaz/blinkyblocks/build/src-bobby/meldinterp-runtime/core.c **** 	TUPLE_TYPE(*dst) = type;
 2192               		.loc 1 1131 0
 2193 0b7e D601      		movw r26,r12
 2194 0b80 ED91      		ld r30,X+
 2195 0b82 FC91      		ld r31,X
 2196 0b84 0083      		st Z,r16
 2197 0b86 00C0      		rjmp .L150
 2198               	.LVL189:
 2199               	.L91:
 2200               	.LBE156:
1142:/home/anaz/blinkyblocks/build/src-bobby/meldinterp-runtime/core.c ****       if (!reg[IF_REG(pc)]) {
 2201               		.loc 1 1142 0
 2202 0b88 EF71      		andi r30,lo8(31)
 2203 0b8a 9201      		movw r18,r4
 2204 0b8c 44E0      		ldi r20,lo8(4)
 2205 0b8e E49F      		mul r30,r20
 2206 0b90 200D      		add r18,r0
 2207 0b92 311D      		adc r19,r1
 2208 0b94 1124      		clr __zero_reg__
 2209 0b96 F901      		movw r30,r18
 2210 0b98 8081      		ld r24,Z
 2211 0b9a 9181      		ldd r25,Z+1
 2212 0b9c A281      		ldd r26,Z+2
 2213 0b9e B381      		ldd r27,Z+3
 2214 0ba0 892B      		or r24,r25
 2215 0ba2 8A2B      		or r24,r26
 2216 0ba4 8B2B      		or r24,r27
 2217 0ba6 01F4      		brne .L125
1146:/home/anaz/blinkyblocks/build/src-bobby/meldinterp-runtime/core.c **** 	pc += IF_JUMP(pc);
 2218               		.loc 1 1146 0
 2219 0ba8 D501      		movw r26,r10
 2220 0baa 1196      		adiw r26,1
 2221 0bac 8D91      		ld r24,X+
 2222 0bae 9C91      		ld r25,X
 2223 0bb0 1297      		sbiw r26,1+1
 2224 0bb2 A80E      		add r10,r24
 2225 0bb4 B91E      		adc r11,r25
 2226               	.LVL190:
1147:/home/anaz/blinkyblocks/build/src-bobby/meldinterp-runtime/core.c **** 	break;
 2227               		.loc 1 1147 0
 2228 0bb6 00C0      		rjmp .L234
 2229               	.L125:
1154:/home/anaz/blinkyblocks/build/src-bobby/meldinterp-runtime/core.c ****       pc += IF_BASE;
 2230               		.loc 1 1154 0
 2231 0bb8 B3E0      		ldi r27,3
 2232 0bba AB0E      		add r10,r27
 2233 0bbc B11C      		adc r11,__zero_reg__
 2234               	.LVL191:
1155:/home/anaz/blinkyblocks/build/src-bobby/meldinterp-runtime/core.c ****       break;
 2235               		.loc 1 1155 0
 2236 0bbe 00C0      		rjmp .L234
 2237               	.L92:
1159:/home/anaz/blinkyblocks/build/src-bobby/meldinterp-runtime/core.c ****       if (isNew > 0) {
 2238               		.loc 1 1159 0
 2239 0bc0 2B85      		ldd r18,Y+11
 2240 0bc2 3C85      		ldd r19,Y+12
 2241 0bc4 1216      		cp __zero_reg__,r18
 2242 0bc6 1306      		cpc __zero_reg__,r19
 2243 0bc8 04F4      		brge .L126
1160:/home/anaz/blinkyblocks/build/src-bobby/meldinterp-runtime/core.c ****         int reg_remove = REMOVE_REG(pc);
 2244               		.loc 1 1160 0
 2245 0bca EF71      		andi r30,lo8(31)
 2246               	.LVL192:
 2247               	.LBB157:
1161:/home/anaz/blinkyblocks/build/src-bobby/meldinterp-runtime/core.c **** 	int size = TYPE_SIZE(TUPLE_TYPE(MELD_CONVERT_REG_TO_PTR(reg[reg_remove])));
 2248               		.loc 1 1161 0
 2249 0bcc A201      		movw r20,r4
 2250 0bce 84E0      		ldi r24,lo8(4)
 2251 0bd0 E89F      		mul r30,r24
 2252 0bd2 400D      		add r20,r0
 2253 0bd4 511D      		adc r21,r1
 2254 0bd6 1124      		clr __zero_reg__
 2255 0bd8 FA01      		movw r30,r20
 2256               	.LVL193:
 2257 0bda 0081      		ld r16,Z
 2258 0bdc 1181      		ldd r17,Z+1
 2259 0bde D801      		movw r26,r16
 2260 0be0 8C91      		ld r24,X
 2261               	.LVL194:
 2262 0be2 2091 0000 		lds r18,arguments
 2263 0be6 9091 0000 		lds r25,arguments+1
 2264 0bea E22F      		mov r30,r18
 2265 0bec F92F      		mov r31,r25
 2266 0bee E80F      		add r30,r24
 2267 0bf0 F11D      		adc r31,__zero_reg__
 2268 0bf2 E80F      		add r30,r24
 2269 0bf4 F11D      		adc r31,__zero_reg__
1163:/home/anaz/blinkyblocks/build/src-bobby/meldinterp-runtime/core.c **** 	tuple_handle(memcpy(malloc(size),MELD_CONVERT_REG_TO_PTR(reg[reg_remove]), size), -1, reg);
 2270               		.loc 1 1163 0
 2271 0bf6 4181      		ldd r20,Z+1
 2272 0bf8 842F      		mov r24,r20
 2273               	.LVL195:
 2274 0bfa 90E0      		ldi r25,0
 2275 0bfc 4E8B      		std Y+22,r20
 2276 0bfe 0E94 0000 		call malloc
 2277               	.LVL196:
 2278 0c02 4E89      		ldd r20,Y+22
 2279 0c04 50E0      		ldi r21,0
 2280 0c06 B801      		movw r22,r16
 2281 0c08 0E94 0000 		call memcpy
 2282               	.LVL197:
 2283 0c0c A201      		movw r20,r4
 2284 0c0e 6FEF      		ldi r22,lo8(-1)
 2285 0c10 7FEF      		ldi r23,lo8(-1)
 2286 0c12 0E94 0000 		call tuple_handle
 2287               	.LVL198:
1164:/home/anaz/blinkyblocks/build/src-bobby/meldinterp-runtime/core.c **** 	reg[REMOVE_REG(pc)] = 0;
 2288               		.loc 1 1164 0
 2289 0c16 F501      		movw r30,r10
 2290 0c18 8081      		ld r24,Z
 2291 0c1a 8F71      		andi r24,lo8(31)
 2292 0c1c F201      		movw r30,r4
 2293 0c1e 24E0      		ldi r18,lo8(4)
 2294 0c20 829F      		mul r24,r18
 2295 0c22 E00D      		add r30,r0
 2296 0c24 F11D      		adc r31,r1
 2297 0c26 1124      		clr __zero_reg__
 2298 0c28 1082      		st Z,__zero_reg__
 2299 0c2a 1182      		std Z+1,__zero_reg__
 2300 0c2c 1282      		std Z+2,__zero_reg__
 2301 0c2e 1382      		std Z+3,__zero_reg__
 2302               	.L126:
 2303               	.LBE157:
1167:/home/anaz/blinkyblocks/build/src-bobby/meldinterp-runtime/core.c ****       pc += 1;
 2304               		.loc 1 1167 0
 2305 0c30 3FEF      		ldi r19,-1
 2306 0c32 A31A      		sub r10,r19
 2307 0c34 B30A      		sbc r11,r19
 2308               	.LVL199:
1168:/home/anaz/blinkyblocks/build/src-bobby/meldinterp-runtime/core.c ****       break;
 2309               		.loc 1 1168 0
 2310 0c36 00C0      		rjmp .L234
 2311               	.L93:
1172:/home/anaz/blinkyblocks/build/src-bobby/meldinterp-runtime/core.c ****       const tuple_type type = ITER_TYPE(pc);
 2312               		.loc 1 1172 0
 2313 0c38 D501      		movw r26,r10
 2314 0c3a 1196      		adiw r26,1
 2315 0c3c 2C91      		ld r18,X
 2316 0c3e 1197      		sbiw r26,1
 2317 0c40 2F77      		andi r18,lo8(127)
 2318               	.LVL200:
 2319               	.LBB158:
1175:/home/anaz/blinkyblocks/build/src-bobby/meldinterp-runtime/core.c ****       const unsigned char *jump = pc + ITER_JUMP(pc);
 2320               		.loc 1 1175 0
 2321 0c42 1296      		adiw r26,2
 2322 0c44 ED91      		ld r30,X+
 2323 0c46 FC91      		ld r31,X
 2324 0c48 1397      		sbiw r26,2+1
 2325 0c4a EA0D      		add r30,r10
 2326 0c4c FB1D      		adc r31,r11
 2327 0c4e EF83      		std Y+7,r30
 2328 0c50 F887      		std Y+8,r31
 2329               	.LVL201:
1176:/home/anaz/blinkyblocks/build/src-bobby/meldinterp-runtime/core.c ****       int size = TYPE_SIZE(type);
 2330               		.loc 1 1176 0
 2331 0c52 822F      		mov r24,r18
 2332 0c54 90E0      		ldi r25,0
 2333 0c56 AC01      		movw r20,r24
 2334 0c58 440F      		lsl r20
 2335 0c5a 551F      		rol r21
 2336 0c5c 4F87      		std Y+15,r20
 2337 0c5e 588B      		std Y+16,r21
 2338 0c60 E091 0000 		lds r30,arguments
 2339 0c64 F091 0000 		lds r31,arguments+1
 2340               	.LVL202:
 2341 0c68 E40F      		add r30,r20
 2342 0c6a F51F      		adc r31,r21
 2343 0c6c D180      		ldd r13,Z+1
 2344               	.LVL203:
1180:/home/anaz/blinkyblocks/build/src-bobby/meldinterp-runtime/core.c ****       if(TYPE_IS_PERSISTENT(type) && !TYPE_IS_AGG(type)) {
 2345               		.loc 1 1180 0
 2346 0c6e FC01      		movw r30,r24
 2347 0c70 E050      		subi r30,lo8(-(meld_prog))
 2348 0c72 F040      		sbci r31,hi8(-(meld_prog))
 2349 0c74 E181      		ldd r30,Z+1
 2350 0c76 F0E0      		ldi r31,0
 2351 0c78 E050      		subi r30,lo8(-(meld_prog+2))
 2352 0c7a F040      		sbci r31,hi8(-(meld_prog+2))
 2353 0c7c 3081      		ld r19,Z
 2354 0c7e 31FF      		sbrs r19,1
 2355 0c80 00C0      		rjmp .L127
1180:/home/anaz/blinkyblocks/build/src-bobby/meldinterp-runtime/core.c ****       if(TYPE_IS_PERSISTENT(type) && !TYPE_IS_AGG(type)) {
 2356               		.loc 1 1180 0 is_stmt 0 discriminator 1
 2357 0c82 30FD      		sbrc r19,0
 2358 0c84 00C0      		rjmp .L127
 2359               	.LBB134:
1182:/home/anaz/blinkyblocks/build/src-bobby/meldinterp-runtime/core.c ****         persistent_set *persistents = &PERSISTENT[type];
 2360               		.loc 1 1182 0 is_stmt 1
 2361 0c86 E090 0000 		lds r14,persistent
 2362 0c8a F090 0000 		lds r15,persistent+1
 2363 0c8e 56E0      		ldi r21,lo8(6)
 2364 0c90 259F      		mul r18,r21
 2365 0c92 E00C      		add r14,r0
 2366 0c94 F11C      		adc r15,r1
 2367 0c96 1124      		clr __zero_reg__
 2368               	.LVL204:
1184:/home/anaz/blinkyblocks/build/src-bobby/meldinterp-runtime/core.c ****         length = persistents->current;
 2369               		.loc 1 1184 0
 2370 0c98 D701      		movw r26,r14
 2371 0c9a 1496      		adiw r26,4
 2372 0c9c 2D90      		ld r2,X+
 2373 0c9e 3C90      		ld r3,X
 2374 0ca0 1597      		sbiw r26,4+1
 2375               	.LVL205:
1185:/home/anaz/blinkyblocks/build/src-bobby/meldinterp-runtime/core.c ****         list = malloc(sizeof(tuple_t) * length);
 2376               		.loc 1 1185 0
 2377 0ca2 C101      		movw r24,r2
 2378 0ca4 880F      		lsl r24
 2379 0ca6 991F      		rol r25
 2380 0ca8 0E94 0000 		call malloc
 2381               	.LVL206:
 2382 0cac 8C01      		movw r16,r24
 2383               	.LVL207:
 2384 0cae 8D83      		std Y+5,r24
 2385 0cb0 9E83      		std Y+6,r25
 949:/home/anaz/blinkyblocks/build/src-bobby/meldinterp-runtime/core.c **** int tuple_process(tuple_t tuple, const unsigned char *pc,
 2386               		.loc 1 949 0
 2387 0cb2 ED2D      		mov r30,r13
 2388 0cb4 F0E0      		ldi r31,0
 2389 0cb6 ED87      		std Y+13,r30
 2390 0cb8 FE87      		std Y+14,r31
1187:/home/anaz/blinkyblocks/build/src-bobby/meldinterp-runtime/core.c ****         for(i = 0; i < length; i++) {
 2391               		.loc 1 1187 0
 2392 0cba C12C      		mov r12,__zero_reg__
 2393 0cbc D12C      		mov r13,__zero_reg__
 2394 0cbe 612C      		mov r6,__zero_reg__
 2395 0cc0 712C      		mov r7,__zero_reg__
 2396 0cc2 4301      		movw r8,r6
 2397 0cc4 00C0      		rjmp .L128
 2398               	.LVL208:
 2399               	.L129:
 2400               	.LBB135:
1188:/home/anaz/blinkyblocks/build/src-bobby/meldinterp-runtime/core.c ****           int j = random() % (i + 1);
 2401               		.loc 1 1188 0 discriminator 2
 2402 0cc6 0E94 0000 		call random
 2403               	.LVL209:
 2404 0cca A401      		movw r20,r8
 2405 0ccc 9301      		movw r18,r6
 2406 0cce 0E94 0000 		call __divmodsi4
 2407               	.LVL210:
1190:/home/anaz/blinkyblocks/build/src-bobby/meldinterp-runtime/core.c ****           list[i] = list[j];
 2408               		.loc 1 1190 0 discriminator 2
 2409 0cd2 FB01      		movw r30,r22
 2410 0cd4 EE0F      		lsl r30
 2411 0cd6 FF1F      		rol r31
 2412 0cd8 E00F      		add r30,r16
 2413 0cda F11F      		adc r31,r17
 2414 0cdc 8081      		ld r24,Z
 2415 0cde 9181      		ldd r25,Z+1
 2416 0ce0 AD81      		ldd r26,Y+5
 2417 0ce2 BE81      		ldd r27,Y+6
 2418 0ce4 8D93      		st X+,r24
 2419 0ce6 9D93      		st X+,r25
 2420 0ce8 AD83      		std Y+5,r26
 2421 0cea BE83      		std Y+6,r27
1191:/home/anaz/blinkyblocks/build/src-bobby/meldinterp-runtime/core.c ****           list[j] = persistents->array + i * size;
 2422               		.loc 1 1191 0 discriminator 2
 2423 0cec D701      		movw r26,r14
 2424 0cee 8D91      		ld r24,X+
 2425 0cf0 9C91      		ld r25,X
 2426 0cf2 8C0D      		add r24,r12
 2427 0cf4 9D1D      		adc r25,r13
 2428 0cf6 8083      		st Z,r24
 2429 0cf8 9183      		std Z+1,r25
 2430 0cfa C984      		ldd r12,Y+9
 2431 0cfc DA84      		ldd r13,Y+10
 2432               	.L128:
 2433 0cfe BFEF      		ldi r27,-1
 2434 0d00 6B1A      		sub r6,r27
 2435 0d02 7B0A      		sbc r7,r27
 2436 0d04 8B0A      		sbc r8,r27
 2437 0d06 9B0A      		sbc r9,r27
 2438 0d08 ED85      		ldd r30,Y+13
 2439 0d0a FE85      		ldd r31,Y+14
 2440 0d0c EC0D      		add r30,r12
 2441 0d0e FD1D      		adc r31,r13
 2442 0d10 E987      		std Y+9,r30
 2443 0d12 FA87      		std Y+10,r31
 2444               	.LBE135:
 949:/home/anaz/blinkyblocks/build/src-bobby/meldinterp-runtime/core.c **** int tuple_process(tuple_t tuple, const unsigned char *pc,
 2445               		.loc 1 949 0 discriminator 1
 2446 0d14 C301      		movw r24,r6
 2447 0d16 0197      		sbiw r24,1
1187:/home/anaz/blinkyblocks/build/src-bobby/meldinterp-runtime/core.c ****         for(i = 0; i < length; i++) {
 2448               		.loc 1 1187 0 discriminator 1
 2449 0d18 8215      		cp r24,r2
 2450 0d1a 9305      		cpc r25,r3
 2451 0d1c 04F0      		brlt .L129
 2452 0d1e 00C0      		rjmp .L130
 2453               	.LVL211:
 2454               	.L127:
 2455               	.LBE134:
 2456               	.LBB136:
1195:/home/anaz/blinkyblocks/build/src-bobby/meldinterp-runtime/core.c **** 	tuple_entry *entry = TUPLES[type].head;
 2457               		.loc 1 1195 0
 2458 0d20 9C01      		movw r18,r24
 2459               	.LVL212:
 2460 0d22 220F      		lsl r18
 2461 0d24 331F      		rol r19
 2462 0d26 220F      		lsl r18
 2463 0d28 331F      		rol r19
 2464 0d2a 8091 0000 		lds r24,tuples
 2465 0d2e 9091 0000 		lds r25,tuples+1
 2466               	.LVL213:
 2467 0d32 820F      		add r24,r18
 2468 0d34 931F      		adc r25,r19
 2469 0d36 DC01      		movw r26,r24
 2470 0d38 ED90      		ld r14,X+
 2471 0d3a FC90      		ld r15,X
 2472               	.LVL214:
1197:/home/anaz/blinkyblocks/build/src-bobby/meldinterp-runtime/core.c **** 	length = queue_length(&TUPLES[ITER_TYPE(pc)]);
 2473               		.loc 1 1197 0
 2474 0d3c 0E94 0000 		call queue_length
 2475               	.LVL215:
 2476 0d40 1C01      		movw r2,r24
 2477               	.LVL216:
1198:/home/anaz/blinkyblocks/build/src-bobby/meldinterp-runtime/core.c **** 	list = malloc(sizeof(tuple_t) * length);
 2478               		.loc 1 1198 0
 2479 0d42 880F      		lsl r24
 2480 0d44 991F      		rol r25
 2481 0d46 0E94 0000 		call malloc
 2482               	.LVL217:
 2483 0d4a 8C01      		movw r16,r24
 2484               	.LVL218:
 2485 0d4c 6C01      		movw r12,r24
1200:/home/anaz/blinkyblocks/build/src-bobby/meldinterp-runtime/core.c **** 	for (i = 0; i < length; i++) {
 2486               		.loc 1 1200 0
 2487 0d4e 612C      		mov r6,__zero_reg__
 2488 0d50 712C      		mov r7,__zero_reg__
 2489 0d52 4301      		movw r8,r6
 2490 0d54 00C0      		rjmp .L131
 2491               	.LVL219:
 2492               	.L132:
 2493               	.LBB137:
1201:/home/anaz/blinkyblocks/build/src-bobby/meldinterp-runtime/core.c **** 	  int j = random() % (i+1);
 2494               		.loc 1 1201 0 discriminator 2
 2495 0d56 0E94 0000 		call random
 2496               	.LVL220:
 2497 0d5a A401      		movw r20,r8
 2498 0d5c 9301      		movw r18,r6
 2499 0d5e 0E94 0000 		call __divmodsi4
 2500               	.LVL221:
1203:/home/anaz/blinkyblocks/build/src-bobby/meldinterp-runtime/core.c **** 	  list[i] = list[j];
 2501               		.loc 1 1203 0 discriminator 2
 2502 0d62 FB01      		movw r30,r22
 2503 0d64 EE0F      		lsl r30
 2504 0d66 FF1F      		rol r31
 2505 0d68 E00F      		add r30,r16
 2506 0d6a F11F      		adc r31,r17
 2507 0d6c 8081      		ld r24,Z
 2508 0d6e 9181      		ldd r25,Z+1
 2509 0d70 D601      		movw r26,r12
 2510 0d72 8D93      		st X+,r24
 2511 0d74 9D93      		st X+,r25
 2512 0d76 6D01      		movw r12,r26
1204:/home/anaz/blinkyblocks/build/src-bobby/meldinterp-runtime/core.c **** 	  list[j] = entry->tuple;
 2513               		.loc 1 1204 0 discriminator 2
 2514 0d78 D701      		movw r26,r14
 2515 0d7a 1496      		adiw r26,4
 2516 0d7c 8D91      		ld r24,X+
 2517 0d7e 9C91      		ld r25,X
 2518 0d80 1597      		sbiw r26,4+1
 2519 0d82 8083      		st Z,r24
 2520 0d84 9183      		std Z+1,r25
1206:/home/anaz/blinkyblocks/build/src-bobby/meldinterp-runtime/core.c **** 	  entry = entry->next;
 2521               		.loc 1 1206 0 discriminator 2
 2522 0d86 ED90      		ld r14,X+
 2523 0d88 FC90      		ld r15,X
 2524               	.LVL222:
 2525               	.L131:
 2526 0d8a BFEF      		ldi r27,-1
 2527 0d8c 6B1A      		sub r6,r27
 2528 0d8e 7B0A      		sbc r7,r27
 2529 0d90 8B0A      		sbc r8,r27
 2530 0d92 9B0A      		sbc r9,r27
 2531               	.LBE137:
 949:/home/anaz/blinkyblocks/build/src-bobby/meldinterp-runtime/core.c **** int tuple_process(tuple_t tuple, const unsigned char *pc,
 2532               		.loc 1 949 0 discriminator 1
 2533 0d94 C301      		movw r24,r6
 2534 0d96 0197      		sbiw r24,1
1200:/home/anaz/blinkyblocks/build/src-bobby/meldinterp-runtime/core.c **** 	for (i = 0; i < length; i++) {
 2535               		.loc 1 1200 0 discriminator 1
 2536 0d98 8215      		cp r24,r2
 2537 0d9a 9305      		cpc r25,r3
 2538 0d9c 04F0      		brlt .L132
 2539               	.LVL223:
 2540               	.L130:
 2541               	.LBE136:
1214:/home/anaz/blinkyblocks/build/src-bobby/meldinterp-runtime/core.c ****       if(length == 0) {
 2542               		.loc 1 1214 0
 2543 0d9e 2114      		cp r2,__zero_reg__
 2544 0da0 3104      		cpc r3,__zero_reg__
 2545 0da2 01F4      		brne .+2
 2546 0da4 00C0      		rjmp .L191
 2547 0da6 0987      		std Y+9,r16
 2548 0da8 1A87      		std Y+10,r17
 2549 0daa 612C      		mov r6,__zero_reg__
 2550 0dac 712C      		mov r7,__zero_reg__
 2551               	.LBB138:
1229:/home/anaz/blinkyblocks/build/src-bobby/meldinterp-runtime/core.c ****         tmppc = pc + ITER_BASE;
 2552               		.loc 1 1229 0
 2553 0dae 4501      		movw r8,r10
 2554 0db0 E4E0      		ldi r30,4
 2555 0db2 8E0E      		add r8,r30
 2556 0db4 911C      		adc r9,__zero_reg__
 2557               	.LBB139:
1258:/home/anaz/blinkyblocks/build/src-bobby/meldinterp-runtime/core.c **** 	    iter_pc += 2;
 2558               		.loc 1 1258 0
 2559 0db6 9501      		movw r18,r10
 2560 0db8 2A5F      		subi r18,-6
 2561 0dba 3F4F      		sbci r19,-1
 2562 0dbc 2C8B      		std Y+20,r18
 2563 0dbe 3D8B      		std Y+21,r19
 2564 0dc0 00C0      		rjmp .L133
 2565               	.LVL224:
 2566               	.L149:
 2567               	.LBE139:
1224:/home/anaz/blinkyblocks/build/src-bobby/meldinterp-runtime/core.c **** 	next_tuple = list[i];
 2568               		.loc 1 1224 0
 2569 0dc2 A985      		ldd r26,Y+9
 2570 0dc4 BA85      		ldd r27,Y+10
 2571 0dc6 CD90      		ld r12,X+
 2572 0dc8 DD90      		ld r13,X+
 2573 0dca A987      		std Y+9,r26
 2574 0dcc BA87      		std Y+10,r27
 2575               	.LVL225:
1231:/home/anaz/blinkyblocks/build/src-bobby/meldinterp-runtime/core.c ****         if(!ITER_MATCH_NONE(tmppc)) {
 2576               		.loc 1 1231 0
 2577 0dce F501      		movw r30,r10
 2578 0dd0 8581      		ldd r24,Z+5
 2579 0dd2 807C      		andi r24,lo8(-64)
 2580 0dd4 803C      		cpi r24,lo8(-64)
 2581 0dd6 01F4      		brne .L192
 2582               	.LVL226:
 2583               	.L140:
 2584               	.LBB141:
1257:/home/anaz/blinkyblocks/build/src-bobby/meldinterp-runtime/core.c **** 	  if(ITER_MATCH_NONE(iter_pc))
 2585               		.loc 1 1257 0
 2586 0dd8 D501      		movw r26,r10
 2587 0dda 1596      		adiw r26,5
 2588 0ddc 8C91      		ld r24,X
 2589 0dde 807C      		andi r24,lo8(-64)
 2590 0de0 803C      		cpi r24,lo8(-64)
 2591 0de2 01F4      		brne .+2
 2592 0de4 00C0      		rjmp .L135
 2593 0de6 B401      		movw r22,r8
 2594 0de8 00C0      		rjmp .L148
 2595               	.LVL227:
 2596               	.L192:
 2597               	.LBE141:
1231:/home/anaz/blinkyblocks/build/src-bobby/meldinterp-runtime/core.c ****         if(!ITER_MATCH_NONE(tmppc)) {
 2598               		.loc 1 1231 0
 2599 0dea 7401      		movw r14,r8
 2600 0dec B1E0      		ldi r27,lo8(1)
 2601 0dee BD83      		std Y+5,r27
 2602               	.LVL228:
 2603               	.L134:
 2604               	.LBB142:
1234:/home/anaz/blinkyblocks/build/src-bobby/meldinterp-runtime/core.c ****             const unsigned char *new_pc = tmppc + 2;
 2605               		.loc 1 1234 0
 2606 0df0 C701      		movw r24,r14
 2607 0df2 0296      		adiw r24,2
 2608 0df4 8983      		std Y+1,r24
 2609 0df6 9A83      		std Y+2,r25
1235:/home/anaz/blinkyblocks/build/src-bobby/meldinterp-runtime/core.c **** 	    const unsigned char fieldnum = ITER_MATCH_FIELD(tmppc);
 2610               		.loc 1 1235 0
 2611 0df8 F701      		movw r30,r14
 2612 0dfa 2081      		ld r18,Z
 2613               	.LVL229:
1236:/home/anaz/blinkyblocks/build/src-bobby/meldinterp-runtime/core.c **** 	    const unsigned char type_size = TYPE_ARG_SIZE(type, fieldnum);
 2614               		.loc 1 1236 0
 2615 0dfc E091 0000 		lds r30,arguments
 2616 0e00 F091 0000 		lds r31,arguments+1
 2617 0e04 AF85      		ldd r26,Y+15
 2618 0e06 B889      		ldd r27,Y+16
 2619 0e08 AE0F      		add r26,r30
 2620 0e0a BF1F      		adc r27,r31
 2621 0e0c 3C91      		ld r19,X
 2622 0e0e CF01      		movw r24,r30
 2623 0e10 820F      		add r24,r18
 2624 0e12 911D      		adc r25,__zero_reg__
 2625 0e14 820F      		add r24,r18
 2626 0e16 911D      		adc r25,__zero_reg__
 2627 0e18 DC01      		movw r26,r24
 2628 0e1a A30F      		add r26,r19
 2629 0e1c B11D      		adc r27,__zero_reg__
 2630 0e1e 2C91      		ld r18,X
 2631               	.LVL230:
 2632 0e20 2D87      		std Y+13,r18
 2633               	.LVL231:
1238:/home/anaz/blinkyblocks/build/src-bobby/meldinterp-runtime/core.c ****             Register *field = GET_TUPLE_FIELD(next_tuple, fieldnum);
 2634               		.loc 1 1238 0
 2635 0e22 D601      		movw r26,r12
 2636 0e24 2C91      		ld r18,X
 2637               	.LVL232:
 2638 0e26 E20F      		add r30,r18
 2639 0e28 F11D      		adc r31,__zero_reg__
 2640 0e2a E20F      		add r30,r18
 2641 0e2c F11D      		adc r31,__zero_reg__
 2642 0e2e 2081      		ld r18,Z
 2643 0e30 FC01      		movw r30,r24
 2644 0e32 E20F      		add r30,r18
 2645 0e34 F11D      		adc r31,__zero_reg__
 2646 0e36 B181      		ldd r27,Z+1
 2647 0e38 B98B      		std Y+17,r27
 2648               	.LVL233:
1239:/home/anaz/blinkyblocks/build/src-bobby/meldinterp-runtime/core.c ****             Register *val = eval(ITER_MATCH_VAL(tmppc), &tuple, &new_pc, reg);
 2649               		.loc 1 1239 0
 2650 0e3a F701      		movw r30,r14
 2651 0e3c 8181      		ldd r24,Z+1
 2652 0e3e 9201      		movw r18,r4
 2653 0e40 AE01      		movw r20,r28
 2654 0e42 4F5F      		subi r20,-1
 2655 0e44 5F4F      		sbci r21,-1
 2656 0e46 BE01      		movw r22,r28
 2657 0e48 6D5F      		subi r22,-3
 2658 0e4a 7F4F      		sbci r23,-1
 2659 0e4c 8F73      		andi r24,lo8(63)
 2660 0e4e 0E94 0000 		call eval
 2661               	.LVL234:
1241:/home/anaz/blinkyblocks/build/src-bobby/meldinterp-runtime/core.c ****             matched = matched && (memcmp(field, val, type_size) == 0);
 2662               		.loc 1 1241 0
 2663 0e52 FD81      		ldd r31,Y+5
 2664 0e54 FF23      		tst r31
 2665 0e56 01F0      		breq .L193
1238:/home/anaz/blinkyblocks/build/src-bobby/meldinterp-runtime/core.c ****             Register *field = GET_TUPLE_FIELD(next_tuple, fieldnum);
 2666               		.loc 1 1238 0 discriminator 1
 2667 0e58 4989      		ldd r20,Y+17
 2668 0e5a 242F      		mov r18,r20
 2669 0e5c 30E0      		ldi r19,0
 2670 0e5e 2F5F      		subi r18,-1
 2671 0e60 3F4F      		sbci r19,-1
1241:/home/anaz/blinkyblocks/build/src-bobby/meldinterp-runtime/core.c ****             matched = matched && (memcmp(field, val, type_size) == 0);
 2672               		.loc 1 1241 0 discriminator 1
 2673 0e62 4D85      		ldd r20,Y+13
 2674 0e64 50E0      		ldi r21,0
 2675 0e66 BC01      		movw r22,r24
 2676 0e68 C601      		movw r24,r12
 2677               	.LVL235:
 2678 0e6a 820F      		add r24,r18
 2679 0e6c 931F      		adc r25,r19
 2680 0e6e 0E94 0000 		call memcmp
 2681               	.LVL236:
 2682 0e72 9C01      		movw r18,r24
 2683 0e74 81E0      		ldi r24,lo8(1)
 2684 0e76 90E0      		ldi r25,0
 2685 0e78 232B      		or r18,r19
 2686 0e7a 01F0      		breq .L137
 2687               	.L193:
1241:/home/anaz/blinkyblocks/build/src-bobby/meldinterp-runtime/core.c ****             matched = matched && (memcmp(field, val, type_size) == 0);
 2688               		.loc 1 1241 0 is_stmt 0
 2689 0e7c 80E0      		ldi r24,0
 2690 0e7e 90E0      		ldi r25,0
 2691               	.L137:
1241:/home/anaz/blinkyblocks/build/src-bobby/meldinterp-runtime/core.c ****             matched = matched && (memcmp(field, val, type_size) == 0);
 2692               		.loc 1 1241 0 discriminator 4
 2693 0e80 8D83      		std Y+5,r24
 2694               	.LVL237:
1243:/home/anaz/blinkyblocks/build/src-bobby/meldinterp-runtime/core.c ****             if(ITER_MATCH_END(tmppc))
 2695               		.loc 1 1243 0 is_stmt 1 discriminator 4
 2696 0e82 D701      		movw r26,r14
 2697 0e84 1196      		adiw r26,1
 2698 0e86 8C91      		ld r24,X
 2699               	.LVL238:
 2700 0e88 807C      		andi r24,lo8(-64)
 2701 0e8a 8034      		cpi r24,lo8(64)
 2702 0e8c 01F0      		breq .L139
1246:/home/anaz/blinkyblocks/build/src-bobby/meldinterp-runtime/core.c ****             tmppc = new_pc;
 2703               		.loc 1 1246 0
 2704 0e8e E980      		ldd r14,Y+1
 2705 0e90 FA80      		ldd r15,Y+2
 2706               	.LVL239:
 2707               	.LBE142:
1247:/home/anaz/blinkyblocks/build/src-bobby/meldinterp-runtime/core.c ****           }
 2708               		.loc 1 1247 0
 2709 0e92 00C0      		rjmp .L134
 2710               	.L139:
1254:/home/anaz/blinkyblocks/build/src-bobby/meldinterp-runtime/core.c **** 	if (matched) {
 2711               		.loc 1 1254 0
 2712 0e94 BD81      		ldd r27,Y+5
 2713 0e96 BB23      		tst r27
 2714 0e98 01F0      		breq .L141
 2715 0e9a 00C0      		rjmp .L140
 2716               	.LVL240:
 2717               	.L135:
 2718               	.LBB143:
1258:/home/anaz/blinkyblocks/build/src-bobby/meldinterp-runtime/core.c **** 	    iter_pc += 2;
 2719               		.loc 1 1258 0
 2720 0e9c 6C89      		ldd r22,Y+20
 2721 0e9e 7D89      		ldd r23,Y+21
 2722               	.LVL241:
 2723 0ea0 00C0      		rjmp .L142
 2724               	.LVL242:
 2725               	.L148:
 2726               	.LBB140:
1264:/home/anaz/blinkyblocks/build/src-bobby/meldinterp-runtime/core.c **** 	      if (VAL_IS_FLOAT(ITER_MATCH_VAL(iter_pc)))
 2727               		.loc 1 1264 0
 2728 0ea2 FB01      		movw r30,r22
 2729 0ea4 9181      		ldd r25,Z+1
 2730 0ea6 892F      		mov r24,r25
 2731 0ea8 8F73      		andi r24,lo8(63)
 2732 0eaa 01F4      		brne .L143
 2733 0eac 00C0      		rjmp .L239
 2734               	.L143:
1266:/home/anaz/blinkyblocks/build/src-bobby/meldinterp-runtime/core.c **** 	      else if (VAL_IS_INT(ITER_MATCH_VAL(iter_pc)))
 2735               		.loc 1 1266 0
 2736 0eae 8130      		cpi r24,lo8(1)
 2737 0eb0 01F4      		brne .L145
 2738               	.L239:
1267:/home/anaz/blinkyblocks/build/src-bobby/meldinterp-runtime/core.c **** 		iter_pc += sizeof(meld_int);
 2739               		.loc 1 1267 0
 2740 0eb2 6C5F      		subi r22,-4
 2741 0eb4 7F4F      		sbci r23,-1
 2742               	.LVL243:
 2743 0eb6 00C0      		rjmp .L144
 2744               	.LVL244:
 2745               	.L145:
 2746 0eb8 6E5F      		subi r22,-2
 2747 0eba 7F4F      		sbci r23,-1
 2748               	.LVL245:
1268:/home/anaz/blinkyblocks/build/src-bobby/meldinterp-runtime/core.c **** 	      else if (VAL_IS_FIELD(ITER_MATCH_VAL(iter_pc)))
 2749               		.loc 1 1268 0
 2750 0ebc 8230      		cpi r24,lo8(2)
 2751 0ebe 01F0      		breq .L144
1270:/home/anaz/blinkyblocks/build/src-bobby/meldinterp-runtime/core.c **** 	      else if (VAL_IS_REVERSE(ITER_MATCH_VAL(iter_pc)))
 2752               		.loc 1 1270 0
 2753 0ec0 8430      		cpi r24,lo8(4)
 2754 0ec2 01F0      		breq .L144
1273:/home/anaz/blinkyblocks/build/src-bobby/meldinterp-runtime/core.c **** 		assert(0);
 2755               		.loc 1 1273 0
 2756 0ec4 40E0      		ldi r20,lo8(.LC0)
 2757 0ec6 50E0      		ldi r21,hi8(.LC0)
 2758 0ec8 69EF      		ldi r22,lo8(-7)
 2759 0eca 74E0      		ldi r23,lo8(4)
 2760 0ecc 80E0      		ldi r24,lo8(.LC1)
 2761 0ece 90E0      		ldi r25,hi8(.LC1)
 2762 0ed0 0E94 0000 		call __myassert
 2763               	.LVL246:
1274:/home/anaz/blinkyblocks/build/src-bobby/meldinterp-runtime/core.c **** 		exit(1);
 2764               		.loc 1 1274 0
 2765 0ed4 81E0      		ldi r24,lo8(1)
 2766 0ed6 90E0      		ldi r25,0
 2767 0ed8 0E94 0000 		call exit
 2768               	.LVL247:
 2769               	.L144:
1277:/home/anaz/blinkyblocks/build/src-bobby/meldinterp-runtime/core.c **** 	      iter_pc += 2;
 2770               		.loc 1 1277 0
 2771 0edc 6E5F      		subi r22,-2
 2772 0ede 7F4F      		sbci r23,-1
 2773               	.LVL248:
1279:/home/anaz/blinkyblocks/build/src-bobby/meldinterp-runtime/core.c **** 	      if(ITER_MATCH_END(old))
 2774               		.loc 1 1279 0
 2775 0ee0 907C      		andi r25,lo8(-64)
 2776 0ee2 9034      		cpi r25,lo8(64)
 2777 0ee4 01F4      		brne .L148
 2778               	.LVL249:
 2779               	.L142:
 2780               	.LBE140:
1284:/home/anaz/blinkyblocks/build/src-bobby/meldinterp-runtime/core.c **** 	  if (RET_RET == tuple_process(next_tuple, iter_pc, isNew, reg)) {
 2781               		.loc 1 1284 0
 2782 0ee6 9201      		movw r18,r4
 2783 0ee8 4B85      		ldd r20,Y+11
 2784 0eea 5C85      		ldd r21,Y+12
 2785 0eec C601      		movw r24,r12
 2786 0eee 0E94 0000 		call tuple_process
 2787               	.LVL250:
 2788 0ef2 892B      		or r24,r25
 2789 0ef4 01F4      		brne .L141
1285:/home/anaz/blinkyblocks/build/src-bobby/meldinterp-runtime/core.c **** 	    free(list);
 2790               		.loc 1 1285 0
 2791 0ef6 C801      		movw r24,r16
 2792 0ef8 0E94 0000 		call free
 2793               	.LVL251:
 2794 0efc 00C0      		rjmp .L190
 2795               	.L141:
 2796               	.LBE143:
 2797               	.LBE138:
1223:/home/anaz/blinkyblocks/build/src-bobby/meldinterp-runtime/core.c ****       for (i = 0; i < length; i++) {
 2798               		.loc 1 1223 0
 2799 0efe FFEF      		ldi r31,-1
 2800 0f00 6F1A      		sub r6,r31
 2801 0f02 7F0A      		sbc r7,r31
 2802               	.LVL252:
 2803               	.L133:
1223:/home/anaz/blinkyblocks/build/src-bobby/meldinterp-runtime/core.c ****       for (i = 0; i < length; i++) {
 2804               		.loc 1 1223 0 is_stmt 0 discriminator 1
 2805 0f04 6214      		cp r6,r2
 2806 0f06 7304      		cpc r7,r3
 2807 0f08 04F4      		brge .+2
 2808 0f0a 00C0      		rjmp .L149
1291:/home/anaz/blinkyblocks/build/src-bobby/meldinterp-runtime/core.c ****       free(list);
 2809               		.loc 1 1291 0 is_stmt 1
 2810 0f0c C801      		movw r24,r16
 2811 0f0e 0E94 0000 		call free
 2812               	.LVL253:
 2813 0f12 00C0      		rjmp .L191
 2814               	.LVL254:
 2815               	.L94:
 2816               	.LBE158:
 2817               	.LBB159:
1303:/home/anaz/blinkyblocks/build/src-bobby/meldinterp-runtime/core.c **** 	const unsigned char *new_pc = pc+3;
 2818               		.loc 1 1303 0
 2819 0f14 C501      		movw r24,r10
 2820 0f16 0396      		adiw r24,3
 2821 0f18 8983      		std Y+1,r24
 2822 0f1a 9A83      		std Y+2,r25
1311:/home/anaz/blinkyblocks/build/src-bobby/meldinterp-runtime/core.c **** 	arg1 = eval(OP_ARG1(pc), &tuple, &new_pc, reg);
 2823               		.loc 1 1311 0
 2824 0f1c D501      		movw r26,r10
 2825 0f1e 8C91      		ld r24,X
 2826 0f20 9201      		movw r18,r4
 2827 0f22 AE01      		movw r20,r28
 2828 0f24 4F5F      		subi r20,-1
 2829 0f26 5F4F      		sbci r21,-1
 2830 0f28 BE01      		movw r22,r28
 2831 0f2a 6D5F      		subi r22,-3
 2832 0f2c 7F4F      		sbci r23,-1
 2833 0f2e 8F73      		andi r24,lo8(63)
 2834 0f30 0E94 0000 		call eval
 2835               	.LVL255:
 2836 0f34 7C01      		movw r14,r24
 2837               	.LVL256:
1312:/home/anaz/blinkyblocks/build/src-bobby/meldinterp-runtime/core.c **** 	arg2 = eval(OP_ARG2(pc), &tuple, &new_pc, reg);
 2838               		.loc 1 1312 0
 2839 0f36 F501      		movw r30,r10
 2840 0f38 8181      		ldd r24,Z+1
 2841 0f3a 9201      		movw r18,r4
 2842 0f3c AE01      		movw r20,r28
 2843 0f3e 4F5F      		subi r20,-1
 2844 0f40 5F4F      		sbci r21,-1
 2845 0f42 BE01      		movw r22,r28
 2846 0f44 6D5F      		subi r22,-3
 2847 0f46 7F4F      		sbci r23,-1
 2848 0f48 8695      		lsr r24
 2849 0f4a 8695      		lsr r24
 2850 0f4c 0E94 0000 		call eval
 2851               	.LVL257:
 2852 0f50 3C01      		movw r6,r24
 2853               	.LVL258:
1321:/home/anaz/blinkyblocks/build/src-bobby/meldinterp-runtime/core.c **** 	Register *dest = reg + OP_DST(pc);
 2854               		.loc 1 1321 0
 2855 0f52 D501      		movw r26,r10
 2856 0f54 1296      		adiw r26,2
 2857 0f56 8C91      		ld r24,X
 2858 0f58 1297      		sbiw r26,2
 2859 0f5a 1196      		adiw r26,1
 2860 0f5c 0C91      		ld r16,X
 2861 0f5e 0370      		andi r16,lo8(3)
 2862 0f60 B8E0      		ldi r27,lo8(8)
 2863 0f62 0B9F      		mul r16,r27
 2864 0f64 8001      		movw r16,r0
 2865 0f66 1124      		clr __zero_reg__
 2866 0f68 982F      		mov r25,r24
 2867 0f6a 9295      		swap r25
 2868 0f6c 9695      		lsr r25
 2869 0f6e 9770      		andi r25,lo8(7)
 2870 0f70 092B      		or r16,r25
 2871 0f72 000F      		lsl r16
 2872 0f74 111F      		rol r17
 2873 0f76 000F      		lsl r16
 2874 0f78 111F      		rol r17
 2875 0f7a 040D      		add r16,r4
 2876 0f7c 151D      		adc r17,r5
 2877               	.LVL259:
1323:/home/anaz/blinkyblocks/build/src-bobby/meldinterp-runtime/core.c **** 	switch(OP_OP(pc)) {
 2878               		.loc 1 1323 0
 2879 0f7e 8F71      		andi r24,lo8(31)
 2880 0f80 90E0      		ldi r25,0
 2881 0f82 8831      		cpi r24,24
 2882 0f84 9105      		cpc r25,__zero_reg__
 2883 0f86 00F0      		brlo .+2
 2884 0f88 00C0      		rjmp .L150
 2885 0f8a 8050      		subi r24,lo8(-(gs(.L175)))
 2886 0f8c 9040      		sbci r25,hi8(-(gs(.L175)))
 2887 0f8e FC01      		movw r30,r24
 2888 0f90 0C94 0000 		jmp __tablejump2__
 2889               		.section	.progmem.gcc_sw_table,"a",@progbits
 2890               		.p2align	1
 2891               	.L175:
 2892 0000 0000      		.word gs(.L151)
 2893 0002 0000      		.word gs(.L152)
 2894 0004 0000      		.word gs(.L153)
 2895 0006 0000      		.word gs(.L154)
 2896 0008 0000      		.word gs(.L155)
 2897 000a 0000      		.word gs(.L156)
 2898 000c 0000      		.word gs(.L157)
 2899 000e 0000      		.word gs(.L158)
 2900 0010 0000      		.word gs(.L159)
 2901 0012 0000      		.word gs(.L160)
 2902 0014 0000      		.word gs(.L161)
 2903 0016 0000      		.word gs(.L162)
 2904 0018 0000      		.word gs(.L163)
 2905 001a 0000      		.word gs(.L164)
 2906 001c 0000      		.word gs(.L165)
 2907 001e 0000      		.word gs(.L166)
 2908 0020 0000      		.word gs(.L167)
 2909 0022 0000      		.word gs(.L168)
 2910 0024 0000      		.word gs(.L169)
 2911 0026 0000      		.word gs(.L170)
 2912 0028 0000      		.word gs(.L171)
 2913 002a 0000      		.word gs(.L172)
 2914 002c 0000      		.word gs(.L173)
 2915 002e 0000      		.word gs(.L174)
 2916               		.text
 2917               	.L152:
1324:/home/anaz/blinkyblocks/build/src-bobby/meldinterp-runtime/core.c **** 	case OP_NEQI: *dest = (MELD_INT(arg1) != MELD_INT(arg2)); break;
 2918               		.loc 1 1324 0
 2919 0f94 81E0      		ldi r24,lo8(1)
 2920 0f96 90E0      		ldi r25,0
 2921 0f98 A0E0      		ldi r26,0
 2922 0f9a B0E0      		ldi r27,0
 2923 0f9c F701      		movw r30,r14
 2924 0f9e C080      		ld r12,Z
 2925 0fa0 D180      		ldd r13,Z+1
 2926 0fa2 E280      		ldd r14,Z+2
 2927 0fa4 F380      		ldd r15,Z+3
 2928 0fa6 F301      		movw r30,r6
 2929 0fa8 4081      		ld r20,Z
 2930 0faa 5181      		ldd r21,Z+1
 2931 0fac 6281      		ldd r22,Z+2
 2932 0fae 7381      		ldd r23,Z+3
 2933 0fb0 C416      		cp r12,r20
 2934 0fb2 D506      		cpc r13,r21
 2935 0fb4 E606      		cpc r14,r22
 2936 0fb6 F706      		cpc r15,r23
 2937 0fb8 01F0      		breq .+2
 2938 0fba 00C0      		rjmp .L189
 2939 0fbc 00C0      		rjmp .L245
 2940               	.L154:
1325:/home/anaz/blinkyblocks/build/src-bobby/meldinterp-runtime/core.c **** 	case OP_EQI: *dest = (MELD_INT(arg1) == MELD_INT(arg2)); break;
 2941               		.loc 1 1325 0
 2942 0fbe 81E0      		ldi r24,lo8(1)
 2943 0fc0 90E0      		ldi r25,0
 2944 0fc2 A0E0      		ldi r26,0
 2945 0fc4 B0E0      		ldi r27,0
 2946 0fc6 F701      		movw r30,r14
 2947 0fc8 C080      		ld r12,Z
 2948 0fca D180      		ldd r13,Z+1
 2949 0fcc E280      		ldd r14,Z+2
 2950 0fce F380      		ldd r15,Z+3
 2951 0fd0 F301      		movw r30,r6
 2952 0fd2 4081      		ld r20,Z
 2953 0fd4 5181      		ldd r21,Z+1
 2954 0fd6 6281      		ldd r22,Z+2
 2955 0fd8 7381      		ldd r23,Z+3
 2956 0fda C416      		cp r12,r20
 2957 0fdc D506      		cpc r13,r21
 2958 0fde E606      		cpc r14,r22
 2959 0fe0 F706      		cpc r15,r23
 2960 0fe2 01F4      		brne .+2
 2961 0fe4 00C0      		rjmp .L189
 2962 0fe6 00C0      		rjmp .L245
 2963               	.L156:
1326:/home/anaz/blinkyblocks/build/src-bobby/meldinterp-runtime/core.c **** 	case OP_LESSI: *dest = (MELD_INT(arg1) < MELD_INT(arg2)); break;
 2964               		.loc 1 1326 0
 2965 0fe8 81E0      		ldi r24,lo8(1)
 2966 0fea 90E0      		ldi r25,0
 2967 0fec A0E0      		ldi r26,0
 2968 0fee B0E0      		ldi r27,0
 2969 0ff0 F701      		movw r30,r14
 2970 0ff2 C080      		ld r12,Z
 2971 0ff4 D180      		ldd r13,Z+1
 2972 0ff6 E280      		ldd r14,Z+2
 2973 0ff8 F380      		ldd r15,Z+3
 2974 0ffa F301      		movw r30,r6
 2975 0ffc 4081      		ld r20,Z
 2976 0ffe 5181      		ldd r21,Z+1
 2977 1000 6281      		ldd r22,Z+2
 2978 1002 7381      		ldd r23,Z+3
 2979 1004 C416      		cp r12,r20
 2980 1006 D506      		cpc r13,r21
 2981 1008 E606      		cpc r14,r22
 2982 100a F706      		cpc r15,r23
 2983 100c 04F4      		brge .+2
 2984 100e 00C0      		rjmp .L189
 2985 1010 00C0      		rjmp .L245
 2986               	.L158:
1327:/home/anaz/blinkyblocks/build/src-bobby/meldinterp-runtime/core.c **** 	case OP_LESSEQI: *dest = (MELD_INT(arg1) <= MELD_INT(arg2)); break;
 2987               		.loc 1 1327 0
 2988 1012 81E0      		ldi r24,lo8(1)
 2989 1014 90E0      		ldi r25,0
 2990 1016 A0E0      		ldi r26,0
 2991 1018 B0E0      		ldi r27,0
 2992 101a F701      		movw r30,r14
 2993 101c C080      		ld r12,Z
 2994 101e D180      		ldd r13,Z+1
 2995 1020 E280      		ldd r14,Z+2
 2996 1022 F380      		ldd r15,Z+3
 2997 1024 F301      		movw r30,r6
 2998 1026 4081      		ld r20,Z
 2999 1028 5181      		ldd r21,Z+1
 3000 102a 6281      		ldd r22,Z+2
 3001 102c 7381      		ldd r23,Z+3
 3002 102e 4C15      		cp r20,r12
 3003 1030 5D05      		cpc r21,r13
 3004 1032 6E05      		cpc r22,r14
 3005 1034 7F05      		cpc r23,r15
 3006 1036 04F0      		brlt .+2
 3007 1038 00C0      		rjmp .L189
 3008 103a 00C0      		rjmp .L245
 3009               	.L160:
1328:/home/anaz/blinkyblocks/build/src-bobby/meldinterp-runtime/core.c **** 	case OP_GREATERI: *dest = (MELD_INT(arg1) > MELD_INT(arg2)); break;
 3010               		.loc 1 1328 0
 3011 103c 81E0      		ldi r24,lo8(1)
 3012 103e 90E0      		ldi r25,0
 3013 1040 A0E0      		ldi r26,0
 3014 1042 B0E0      		ldi r27,0
 3015 1044 F701      		movw r30,r14
 3016 1046 C080      		ld r12,Z
 3017 1048 D180      		ldd r13,Z+1
 3018 104a E280      		ldd r14,Z+2
 3019 104c F380      		ldd r15,Z+3
 3020 104e F301      		movw r30,r6
 3021 1050 4081      		ld r20,Z
 3022 1052 5181      		ldd r21,Z+1
 3023 1054 6281      		ldd r22,Z+2
 3024 1056 7381      		ldd r23,Z+3
 3025 1058 4C15      		cp r20,r12
 3026 105a 5D05      		cpc r21,r13
 3027 105c 6E05      		cpc r22,r14
 3028 105e 7F05      		cpc r23,r15
 3029 1060 04F4      		brge .+2
 3030 1062 00C0      		rjmp .L189
 3031 1064 00C0      		rjmp .L245
 3032               	.L162:
1329:/home/anaz/blinkyblocks/build/src-bobby/meldinterp-runtime/core.c **** 	case OP_GREATEREQI: *dest = (MELD_INT(arg1) >= MELD_INT(arg2)); break;
 3033               		.loc 1 1329 0
 3034 1066 81E0      		ldi r24,lo8(1)
 3035 1068 90E0      		ldi r25,0
 3036 106a A0E0      		ldi r26,0
 3037 106c B0E0      		ldi r27,0
 3038 106e F701      		movw r30,r14
 3039 1070 C080      		ld r12,Z
 3040 1072 D180      		ldd r13,Z+1
 3041 1074 E280      		ldd r14,Z+2
 3042 1076 F380      		ldd r15,Z+3
 3043 1078 F301      		movw r30,r6
 3044 107a 4081      		ld r20,Z
 3045 107c 5181      		ldd r21,Z+1
 3046 107e 6281      		ldd r22,Z+2
 3047 1080 7381      		ldd r23,Z+3
 3048 1082 C416      		cp r12,r20
 3049 1084 D506      		cpc r13,r21
 3050 1086 E606      		cpc r14,r22
 3051 1088 F706      		cpc r15,r23
 3052 108a 04F0      		brlt .+2
 3053 108c 00C0      		rjmp .L189
 3054 108e 00C0      		rjmp .L245
 3055               	.L164:
1330:/home/anaz/blinkyblocks/build/src-bobby/meldinterp-runtime/core.c **** 	case OP_MODI: MELD_INT(dest) = (MELD_INT(arg1) % MELD_INT(arg2)); break;
 3056               		.loc 1 1330 0
 3057 1090 D701      		movw r26,r14
 3058 1092 6D91      		ld r22,X+
 3059 1094 7D91      		ld r23,X+
 3060 1096 8D91      		ld r24,X+
 3061 1098 9C91      		ld r25,X
 3062 109a F301      		movw r30,r6
 3063 109c 2081      		ld r18,Z
 3064 109e 3181      		ldd r19,Z+1
 3065 10a0 4281      		ldd r20,Z+2
 3066 10a2 5381      		ldd r21,Z+3
 3067 10a4 0E94 0000 		call __divmodsi4
 3068 10a8 00C0      		rjmp .L242
 3069               	.L166:
1331:/home/anaz/blinkyblocks/build/src-bobby/meldinterp-runtime/core.c **** 	case OP_PLUSI: MELD_INT(dest) = (MELD_INT(arg1) + MELD_INT(arg2)); break;
 3070               		.loc 1 1331 0
 3071 10aa F701      		movw r30,r14
 3072 10ac 8081      		ld r24,Z
 3073 10ae 9181      		ldd r25,Z+1
 3074 10b0 A281      		ldd r26,Z+2
 3075 10b2 B381      		ldd r27,Z+3
 3076 10b4 F301      		movw r30,r6
 3077 10b6 4081      		ld r20,Z
 3078 10b8 5181      		ldd r21,Z+1
 3079 10ba 6281      		ldd r22,Z+2
 3080 10bc 7381      		ldd r23,Z+3
 3081 10be 840F      		add r24,r20
 3082 10c0 951F      		adc r25,r21
 3083 10c2 A61F      		adc r26,r22
 3084 10c4 B71F      		adc r27,r23
 3085 10c6 00C0      		rjmp .L189
 3086               	.L168:
1332:/home/anaz/blinkyblocks/build/src-bobby/meldinterp-runtime/core.c **** 	case OP_MINUSI: MELD_INT(dest) = (MELD_INT(arg1) - MELD_INT(arg2)); break;
 3087               		.loc 1 1332 0
 3088 10c8 F701      		movw r30,r14
 3089 10ca 8081      		ld r24,Z
 3090 10cc 9181      		ldd r25,Z+1
 3091 10ce A281      		ldd r26,Z+2
 3092 10d0 B381      		ldd r27,Z+3
 3093 10d2 F301      		movw r30,r6
 3094 10d4 4081      		ld r20,Z
 3095 10d6 5181      		ldd r21,Z+1
 3096 10d8 6281      		ldd r22,Z+2
 3097 10da 7381      		ldd r23,Z+3
 3098 10dc 841B      		sub r24,r20
 3099 10de 950B      		sbc r25,r21
 3100 10e0 A60B      		sbc r26,r22
 3101 10e2 B70B      		sbc r27,r23
 3102 10e4 00C0      		rjmp .L189
 3103               	.L170:
1333:/home/anaz/blinkyblocks/build/src-bobby/meldinterp-runtime/core.c **** 	case OP_TIMESI: MELD_INT(dest) = (MELD_INT(arg1) * MELD_INT(arg2)); break;
 3104               		.loc 1 1333 0
 3105 10e6 D701      		movw r26,r14
 3106 10e8 2D91      		ld r18,X+
 3107 10ea 3D91      		ld r19,X+
 3108 10ec 4D91      		ld r20,X+
 3109 10ee 5C91      		ld r21,X
 3110 10f0 F301      		movw r30,r6
 3111 10f2 6081      		ld r22,Z
 3112 10f4 7181      		ldd r23,Z+1
 3113 10f6 8281      		ldd r24,Z+2
 3114 10f8 9381      		ldd r25,Z+3
 3115 10fa 0E94 0000 		call __mulsi3
 3116               	.L242:
 3117 10fe D801      		movw r26,r16
 3118 1100 6D93      		st X+,r22
 3119 1102 7D93      		st X+,r23
 3120 1104 8D93      		st X+,r24
 3121 1106 9C93      		st X,r25
 3122 1108 1397      		sbiw r26,3
 3123 110a 00C0      		rjmp .L150
 3124               	.L172:
1334:/home/anaz/blinkyblocks/build/src-bobby/meldinterp-runtime/core.c **** 	case OP_DIVI: MELD_INT(dest) = (MELD_INT(arg1) / MELD_INT(arg2)); break;
 3125               		.loc 1 1334 0
 3126 110c F701      		movw r30,r14
 3127 110e 6081      		ld r22,Z
 3128 1110 7181      		ldd r23,Z+1
 3129 1112 8281      		ldd r24,Z+2
 3130 1114 9381      		ldd r25,Z+3
 3131 1116 D301      		movw r26,r6
 3132 1118 2D91      		ld r18,X+
 3133 111a 3D91      		ld r19,X+
 3134 111c 4D91      		ld r20,X+
 3135 111e 5C91      		ld r21,X
 3136 1120 0E94 0000 		call __divmodsi4
 3137 1124 F801      		movw r30,r16
 3138 1126 2083      		st Z,r18
 3139 1128 3183      		std Z+1,r19
 3140 112a 4283      		std Z+2,r20
 3141 112c 5383      		std Z+3,r21
 3142 112e 00C0      		rjmp .L150
 3143               	.L151:
1335:/home/anaz/blinkyblocks/build/src-bobby/meldinterp-runtime/core.c **** 	case OP_NEQF: *dest = (MELD_FLOAT(arg1) != MELD_FLOAT(arg2)); break;
 3144               		.loc 1 1335 0
 3145 1130 812C      		mov r8,__zero_reg__
 3146 1132 912C      		mov r9,__zero_reg__
 3147 1134 5401      		movw r10,r8
 3148 1136 8394      		inc r8
 3149 1138 D301      		movw r26,r6
 3150 113a 2D91      		ld r18,X+
 3151 113c 3D91      		ld r19,X+
 3152 113e 4D91      		ld r20,X+
 3153 1140 5C91      		ld r21,X
 3154 1142 F701      		movw r30,r14
 3155 1144 6081      		ld r22,Z
 3156 1146 7181      		ldd r23,Z+1
 3157 1148 8281      		ldd r24,Z+2
 3158 114a 9381      		ldd r25,Z+3
 3159 114c 0E94 0000 		call __nesf2
 3160               	.LVL260:
 3161 1150 8111      		cpse r24,__zero_reg__
 3162 1152 00C0      		rjmp .L186
 3163 1154 00C0      		rjmp .L243
 3164               	.L153:
1336:/home/anaz/blinkyblocks/build/src-bobby/meldinterp-runtime/core.c **** 	case OP_EQF: *dest = (MELD_FLOAT(arg1) == MELD_FLOAT(arg2)); break;
 3165               		.loc 1 1336 0
 3166 1156 812C      		mov r8,__zero_reg__
 3167 1158 912C      		mov r9,__zero_reg__
 3168 115a 5401      		movw r10,r8
 3169 115c 8394      		inc r8
 3170 115e F301      		movw r30,r6
 3171 1160 2081      		ld r18,Z
 3172 1162 3181      		ldd r19,Z+1
 3173 1164 4281      		ldd r20,Z+2
 3174 1166 5381      		ldd r21,Z+3
 3175 1168 D701      		movw r26,r14
 3176 116a 6D91      		ld r22,X+
 3177 116c 7D91      		ld r23,X+
 3178 116e 8D91      		ld r24,X+
 3179 1170 9C91      		ld r25,X
 3180 1172 0E94 0000 		call __eqsf2
 3181               	.LVL261:
 3182 1176 8823      		tst r24
 3183 1178 01F4      		brne .+2
 3184 117a 00C0      		rjmp .L187
 3185 117c 00C0      		rjmp .L244
 3186               	.L155:
1337:/home/anaz/blinkyblocks/build/src-bobby/meldinterp-runtime/core.c **** 	case OP_LESSF: *dest = (MELD_FLOAT(arg1) < MELD_FLOAT(arg2)); break;
 3187               		.loc 1 1337 0
 3188 117e 812C      		mov r8,__zero_reg__
 3189 1180 912C      		mov r9,__zero_reg__
 3190 1182 5401      		movw r10,r8
 3191 1184 8394      		inc r8
 3192 1186 D301      		movw r26,r6
 3193 1188 2D91      		ld r18,X+
 3194 118a 3D91      		ld r19,X+
 3195 118c 4D91      		ld r20,X+
 3196 118e 5C91      		ld r21,X
 3197 1190 F701      		movw r30,r14
 3198 1192 6081      		ld r22,Z
 3199 1194 7181      		ldd r23,Z+1
 3200 1196 8281      		ldd r24,Z+2
 3201 1198 9381      		ldd r25,Z+3
 3202 119a 0E94 0000 		call __ltsf2
 3203               	.LVL262:
 3204 119e 87FD      		sbrc r24,7
 3205 11a0 00C0      		rjmp .L186
 3206 11a2 00C0      		rjmp .L243
 3207               	.L157:
1338:/home/anaz/blinkyblocks/build/src-bobby/meldinterp-runtime/core.c **** 	case OP_LESSEQF: *dest = (MELD_FLOAT(arg1) <= MELD_FLOAT(arg2)); break;
 3208               		.loc 1 1338 0
 3209 11a4 812C      		mov r8,__zero_reg__
 3210 11a6 912C      		mov r9,__zero_reg__
 3211 11a8 5401      		movw r10,r8
 3212 11aa 8394      		inc r8
 3213 11ac F301      		movw r30,r6
 3214 11ae 2081      		ld r18,Z
 3215 11b0 3181      		ldd r19,Z+1
 3216 11b2 4281      		ldd r20,Z+2
 3217 11b4 5381      		ldd r21,Z+3
 3218 11b6 D701      		movw r26,r14
 3219 11b8 6D91      		ld r22,X+
 3220 11ba 7D91      		ld r23,X+
 3221 11bc 8D91      		ld r24,X+
 3222 11be 9C91      		ld r25,X
 3223 11c0 0E94 0000 		call __lesf2
 3224               	.LVL263:
 3225 11c4 1816      		cp __zero_reg__,r24
 3226 11c6 04F4      		brge .L187
 3227 11c8 00C0      		rjmp .L244
 3228               	.L159:
1339:/home/anaz/blinkyblocks/build/src-bobby/meldinterp-runtime/core.c **** 	case OP_GREATERF: *dest = (MELD_FLOAT(arg1) > MELD_FLOAT(arg2)); break;
 3229               		.loc 1 1339 0
 3230 11ca 812C      		mov r8,__zero_reg__
 3231 11cc 912C      		mov r9,__zero_reg__
 3232 11ce 5401      		movw r10,r8
 3233 11d0 8394      		inc r8
 3234 11d2 D301      		movw r26,r6
 3235 11d4 2D91      		ld r18,X+
 3236 11d6 3D91      		ld r19,X+
 3237 11d8 4D91      		ld r20,X+
 3238 11da 5C91      		ld r21,X
 3239 11dc F701      		movw r30,r14
 3240 11de 6081      		ld r22,Z
 3241 11e0 7181      		ldd r23,Z+1
 3242 11e2 8281      		ldd r24,Z+2
 3243 11e4 9381      		ldd r25,Z+3
 3244 11e6 0E94 0000 		call __gtsf2
 3245               	.LVL264:
 3246 11ea 1816      		cp __zero_reg__,r24
 3247 11ec 04F0      		brlt .L186
 3248               	.L243:
 3249 11ee 812C      		mov r8,__zero_reg__
 3250 11f0 912C      		mov r9,__zero_reg__
 3251 11f2 5401      		movw r10,r8
 3252               	.L186:
 3253 11f4 D801      		movw r26,r16
 3254 11f6 8D92      		st X+,r8
 3255 11f8 9D92      		st X+,r9
 3256 11fa AD92      		st X+,r10
 3257 11fc BC92      		st X,r11
 3258 11fe 1397      		sbiw r26,3
 3259 1200 00C0      		rjmp .L150
 3260               	.L161:
1340:/home/anaz/blinkyblocks/build/src-bobby/meldinterp-runtime/core.c **** 	case OP_GREATEREQF: *dest = (MELD_FLOAT(arg1) >= MELD_FLOAT(arg2)); break;
 3261               		.loc 1 1340 0
 3262 1202 812C      		mov r8,__zero_reg__
 3263 1204 912C      		mov r9,__zero_reg__
 3264 1206 5401      		movw r10,r8
 3265 1208 8394      		inc r8
 3266 120a F301      		movw r30,r6
 3267 120c 2081      		ld r18,Z
 3268 120e 3181      		ldd r19,Z+1
 3269 1210 4281      		ldd r20,Z+2
 3270 1212 5381      		ldd r21,Z+3
 3271 1214 D701      		movw r26,r14
 3272 1216 6D91      		ld r22,X+
 3273 1218 7D91      		ld r23,X+
 3274 121a 8D91      		ld r24,X+
 3275 121c 9C91      		ld r25,X
 3276 121e 0E94 0000 		call __gesf2
 3277               	.LVL265:
 3278 1222 87FF      		sbrs r24,7
 3279 1224 00C0      		rjmp .L187
 3280               	.L244:
 3281 1226 812C      		mov r8,__zero_reg__
 3282 1228 912C      		mov r9,__zero_reg__
 3283 122a 5401      		movw r10,r8
 3284               	.L187:
 3285 122c F801      		movw r30,r16
 3286 122e 8082      		st Z,r8
 3287 1230 9182      		std Z+1,r9
 3288 1232 A282      		std Z+2,r10
 3289 1234 B382      		std Z+3,r11
 3290 1236 00C0      		rjmp .L150
 3291               	.L163:
1341:/home/anaz/blinkyblocks/build/src-bobby/meldinterp-runtime/core.c **** 	case OP_MODF: MELD_FLOAT(dest) = fmod(MELD_FLOAT(arg1), MELD_FLOAT(arg2)); break;
 3292               		.loc 1 1341 0
 3293 1238 D301      		movw r26,r6
 3294 123a 2D91      		ld r18,X+
 3295 123c 3D91      		ld r19,X+
 3296 123e 4D91      		ld r20,X+
 3297 1240 5C91      		ld r21,X
 3298 1242 F701      		movw r30,r14
 3299 1244 6081      		ld r22,Z
 3300 1246 7181      		ldd r23,Z+1
 3301 1248 8281      		ldd r24,Z+2
 3302 124a 9381      		ldd r25,Z+3
 3303 124c 0E94 0000 		call fmod
 3304               	.LVL266:
 3305 1250 462F      		mov r20,r22
 3306 1252 572F      		mov r21,r23
 3307 1254 682F      		mov r22,r24
 3308 1256 792F      		mov r23,r25
 3309 1258 D801      		movw r26,r16
 3310 125a 4D93      		st X+,r20
 3311 125c 5D93      		st X+,r21
 3312 125e 6D93      		st X+,r22
 3313 1260 7C93      		st X,r23
 3314 1262 1397      		sbiw r26,3
 3315 1264 00C0      		rjmp .L150
 3316               	.L165:
1342:/home/anaz/blinkyblocks/build/src-bobby/meldinterp-runtime/core.c **** 	case OP_PLUSF: MELD_FLOAT(dest) = (MELD_FLOAT(arg1) + MELD_FLOAT(arg2)); break;
 3317               		.loc 1 1342 0
 3318 1266 F301      		movw r30,r6
 3319 1268 2081      		ld r18,Z
 3320 126a 3181      		ldd r19,Z+1
 3321 126c 4281      		ldd r20,Z+2
 3322 126e 5381      		ldd r21,Z+3
 3323 1270 D701      		movw r26,r14
 3324 1272 6D91      		ld r22,X+
 3325 1274 7D91      		ld r23,X+
 3326 1276 8D91      		ld r24,X+
 3327 1278 9C91      		ld r25,X
 3328 127a 0E94 0000 		call __addsf3
 3329               	.LVL267:
 3330 127e 00C0      		rjmp .L241
 3331               	.L167:
1343:/home/anaz/blinkyblocks/build/src-bobby/meldinterp-runtime/core.c **** 	case OP_MINUSF: MELD_FLOAT(dest) = (MELD_FLOAT(arg1) - MELD_FLOAT(arg2)); break;
 3332               		.loc 1 1343 0
 3333 1280 D301      		movw r26,r6
 3334 1282 2D91      		ld r18,X+
 3335 1284 3D91      		ld r19,X+
 3336 1286 4D91      		ld r20,X+
 3337 1288 5C91      		ld r21,X
 3338 128a F701      		movw r30,r14
 3339 128c 6081      		ld r22,Z
 3340 128e 7181      		ldd r23,Z+1
 3341 1290 8281      		ldd r24,Z+2
 3342 1292 9381      		ldd r25,Z+3
 3343 1294 0E94 0000 		call __subsf3
 3344               	.LVL268:
 3345 1298 00C0      		rjmp .L240
 3346               	.L169:
1344:/home/anaz/blinkyblocks/build/src-bobby/meldinterp-runtime/core.c **** 	case OP_TIMESF: MELD_FLOAT(dest) = (MELD_FLOAT(arg1) * MELD_FLOAT(arg2)); break;
 3347               		.loc 1 1344 0
 3348 129a F301      		movw r30,r6
 3349 129c 2081      		ld r18,Z
 3350 129e 3181      		ldd r19,Z+1
 3351 12a0 4281      		ldd r20,Z+2
 3352 12a2 5381      		ldd r21,Z+3
 3353 12a4 D701      		movw r26,r14
 3354 12a6 6D91      		ld r22,X+
 3355 12a8 7D91      		ld r23,X+
 3356 12aa 8D91      		ld r24,X+
 3357 12ac 9C91      		ld r25,X
 3358 12ae 0E94 0000 		call __mulsf3
 3359               	.LVL269:
 3360               	.L241:
 3361 12b2 F801      		movw r30,r16
 3362 12b4 6083      		st Z,r22
 3363 12b6 7183      		std Z+1,r23
 3364 12b8 8283      		std Z+2,r24
 3365 12ba 9383      		std Z+3,r25
 3366 12bc 00C0      		rjmp .L150
 3367               	.L171:
1345:/home/anaz/blinkyblocks/build/src-bobby/meldinterp-runtime/core.c **** 	case OP_DIVF: MELD_FLOAT(dest) = (MELD_FLOAT(arg1) / MELD_FLOAT(arg2)); break;
 3368               		.loc 1 1345 0
 3369 12be D301      		movw r26,r6
 3370 12c0 2D91      		ld r18,X+
 3371 12c2 3D91      		ld r19,X+
 3372 12c4 4D91      		ld r20,X+
 3373 12c6 5C91      		ld r21,X
 3374 12c8 F701      		movw r30,r14
 3375 12ca 6081      		ld r22,Z
 3376 12cc 7181      		ldd r23,Z+1
 3377 12ce 8281      		ldd r24,Z+2
 3378 12d0 9381      		ldd r25,Z+3
 3379 12d2 0E94 0000 		call __divsf3
 3380               	.LVL270:
 3381               	.L240:
 3382 12d6 D801      		movw r26,r16
 3383 12d8 6D93      		st X+,r22
 3384 12da 7D93      		st X+,r23
 3385 12dc 8D93      		st X+,r24
 3386 12de 9C93      		st X,r25
 3387 12e0 1397      		sbiw r26,3
 3388 12e2 00C0      		rjmp .L150
 3389               	.L173:
1346:/home/anaz/blinkyblocks/build/src-bobby/meldinterp-runtime/core.c **** 	case OP_NEQA: *dest = (MELD_PTR(arg1) != MELD_PTR(arg2)); break;
 3390               		.loc 1 1346 0
 3391 12e4 81E0      		ldi r24,lo8(1)
 3392 12e6 90E0      		ldi r25,0
 3393 12e8 A0E0      		ldi r26,0
 3394 12ea B0E0      		ldi r27,0
 3395 12ec F701      		movw r30,r14
 3396 12ee 4081      		ld r20,Z
 3397 12f0 5181      		ldd r21,Z+1
 3398 12f2 F301      		movw r30,r6
 3399 12f4 2081      		ld r18,Z
 3400 12f6 3181      		ldd r19,Z+1
 3401 12f8 4217      		cp r20,r18
 3402 12fa 5307      		cpc r21,r19
 3403 12fc 01F4      		brne .L189
 3404 12fe 00C0      		rjmp .L245
 3405               	.L174:
1347:/home/anaz/blinkyblocks/build/src-bobby/meldinterp-runtime/core.c **** 	case OP_EQA: *dest = (MELD_PTR(arg1) == MELD_PTR(arg2)); break;
 3406               		.loc 1 1347 0
 3407 1300 81E0      		ldi r24,lo8(1)
 3408 1302 90E0      		ldi r25,0
 3409 1304 A0E0      		ldi r26,0
 3410 1306 B0E0      		ldi r27,0
 3411 1308 F701      		movw r30,r14
 3412 130a 4081      		ld r20,Z
 3413 130c 5181      		ldd r21,Z+1
 3414 130e F301      		movw r30,r6
 3415 1310 2081      		ld r18,Z
 3416 1312 3181      		ldd r19,Z+1
 3417 1314 4217      		cp r20,r18
 3418 1316 5307      		cpc r21,r19
 3419 1318 01F0      		breq .L189
 3420               	.L245:
 3421 131a 80E0      		ldi r24,0
 3422 131c 90E0      		ldi r25,0
 3423 131e DC01      		movw r26,r24
 3424               	.L189:
 3425 1320 F801      		movw r30,r16
 3426 1322 8083      		st Z,r24
 3427 1324 9183      		std Z+1,r25
 3428 1326 A283      		std Z+2,r26
 3429 1328 B383      		std Z+3,r27
 3430               	.LVL271:
 3431               	.L150:
1350:/home/anaz/blinkyblocks/build/src-bobby/meldinterp-runtime/core.c **** 	pc = new_pc;
 3432               		.loc 1 1350 0
 3433 132a A980      		ldd r10,Y+1
 3434 132c BA80      		ldd r11,Y+2
 3435               	.LVL272:
 3436 132e 00C0      		rjmp .L234
 3437               	.L86:
 3438               	.LBE159:
1355:/home/anaz/blinkyblocks/build/src-bobby/meldinterp-runtime/core.c ****       fprintf(stderr, "INVALID INSTRUCTION %u", *pc);
 3439               		.loc 1 1355 0
 3440 1330 1F92      		push __zero_reg__
 3441 1332 EF93      		push r30
 3442 1334 20E0      		ldi r18,lo8(.LC8)
 3443 1336 30E0      		ldi r19,hi8(.LC8)
 3444 1338 3F93      		push r19
 3445 133a 2F93      		push r18
 3446 133c 8091 0000 		lds r24,__iob+5
 3447 1340 8F93      		push r24
 3448 1342 8091 0000 		lds r24,__iob+4
 3449 1346 8F93      		push r24
 3450 1348 0E94 0000 		call fprintf
 3451               	.LVL273:
1356:/home/anaz/blinkyblocks/build/src-bobby/meldinterp-runtime/core.c ****       assert(0);
 3452               		.loc 1 1356 0
 3453 134c 40E0      		ldi r20,lo8(.LC0)
 3454 134e 50E0      		ldi r21,hi8(.LC0)
 3455 1350 6CE4      		ldi r22,lo8(76)
 3456 1352 75E0      		ldi r23,lo8(5)
 3457               	.L236:
 3458 1354 80E0      		ldi r24,lo8(.LC1)
 3459 1356 90E0      		ldi r25,hi8(.LC1)
 3460 1358 0E94 0000 		call __myassert
 3461               	.LVL274:
1357:/home/anaz/blinkyblocks/build/src-bobby/meldinterp-runtime/core.c ****       break;
 3462               		.loc 1 1357 0
 3463 135c 0F90      		pop __tmp_reg__
 3464 135e 0F90      		pop __tmp_reg__
 3465 1360 0F90      		pop __tmp_reg__
 3466 1362 0F90      		pop __tmp_reg__
 3467 1364 0F90      		pop __tmp_reg__
 3468 1366 0F90      		pop __tmp_reg__
 3469 1368 00C0      		rjmp .L234
 3470               	.L190:
 962:/home/anaz/blinkyblocks/build/src-bobby/meldinterp-runtime/core.c **** 	return RET_RET;
 3471               		.loc 1 962 0
 3472 136a 20E0      		ldi r18,0
 3473 136c 30E0      		ldi r19,0
 3474               	.L99:
 3475               		.loc 1 1362 0
 3476 136e C901      		movw r24,r18
 3477 1370 AA89      		ldd r26,Y+18
 3478 1372 BB89      		ldd r27,Y+19
 3479 1374 ADBF      		out __SP_L__,r26
 3480 1376 BEBF      		out __SP_H__,r27
 3481               	/* epilogue start */
 3482 1378 6696      		adiw r28,22
 3483 137a CDBF      		out __SP_L__,r28
 3484 137c DEBF      		out __SP_H__,r29
 3485 137e DF91      		pop r29
 3486 1380 CF91      		pop r28
 3487 1382 1F91      		pop r17
 3488 1384 0F91      		pop r16
 3489 1386 FF90      		pop r15
 3490 1388 EF90      		pop r14
 3491 138a DF90      		pop r13
 3492 138c CF90      		pop r12
 3493 138e BF90      		pop r11
 3494 1390 AF90      		pop r10
 3495               	.LVL275:
 3496 1392 9F90      		pop r9
 3497 1394 8F90      		pop r8
 3498 1396 7F90      		pop r7
 3499 1398 6F90      		pop r6
 3500 139a 5F90      		pop r5
 3501 139c 4F90      		pop r4
 3502               	.LVL276:
 3503 139e 3F90      		pop r3
 3504 13a0 2F90      		pop r2
 3505 13a2 0895      		ret
 3506               	.LFE42:
 3508               	.global	__floatsisf
 3509               		.section	.rodata.str1.1
 3510               	.LC10:
 3511 00af 6C69 7374 		.string	"lists differ in size for accumulator AGG_SUM_LIST_INT: %d vs %d\n"
 3511      7320 6469 
 3511      6666 6572 
 3511      2069 6E20 
 3511      7369 7A65 
 3512               	.LC11:
 3513 00f0 6C69 7374 		.string	"lists differ in size for accumulator AGG_SUM_LIST_FLOAT: %d vs %d\n"
 3513      7320 6469 
 3513      6666 6572 
 3513      2069 6E20 
 3513      7369 7A65 
 3514               		.text
 3516               	aggregate_recalc:
 3517               	.LFB37:
 615:/home/anaz/blinkyblocks/build/src-bobby/meldinterp-runtime/core.c **** {
 3518               		.loc 1 615 0
 3519               	.LVL277:
 3520 13a4 2F92      		push r2
 3521               	.LCFI76:
 3522 13a6 3F92      		push r3
 3523               	.LCFI77:
 3524 13a8 4F92      		push r4
 3525               	.LCFI78:
 3526 13aa 5F92      		push r5
 3527               	.LCFI79:
 3528 13ac 6F92      		push r6
 3529               	.LCFI80:
 3530 13ae 7F92      		push r7
 3531               	.LCFI81:
 3532 13b0 8F92      		push r8
 3533               	.LCFI82:
 3534 13b2 9F92      		push r9
 3535               	.LCFI83:
 3536 13b4 AF92      		push r10
 3537               	.LCFI84:
 3538 13b6 BF92      		push r11
 3539               	.LCFI85:
 3540 13b8 CF92      		push r12
 3541               	.LCFI86:
 3542 13ba DF92      		push r13
 3543               	.LCFI87:
 3544 13bc EF92      		push r14
 3545               	.LCFI88:
 3546 13be FF92      		push r15
 3547               	.LCFI89:
 3548 13c0 0F93      		push r16
 3549               	.LCFI90:
 3550 13c2 1F93      		push r17
 3551               	.LCFI91:
 3552 13c4 CF93      		push r28
 3553               	.LCFI92:
 3554 13c6 DF93      		push r29
 3555               	.LCFI93:
 3556 13c8 CDB7      		in r28,__SP_L__
 3557 13ca DEB7      		in r29,__SP_H__
 3558               	.LCFI94:
 3559 13cc 6097      		sbiw r28,16
 3560               	.LCFI95:
 3561 13ce CDBF      		out __SP_L__,r28
 3562 13d0 DEBF      		out __SP_H__,r29
 3563               	/* prologue: function */
 3564               	/* frame size = 16 */
 3565               	/* stack size = 34 */
 3566               	.L__stack_usage = 34
 3567 13d2 4C01      		movw r8,r24
 3568 13d4 6A87      		std Y+10,r22
 3569 13d6 7B87      		std Y+11,r23
 3570 13d8 4C87      		std Y+12,r20
 616:/home/anaz/blinkyblocks/build/src-bobby/meldinterp-runtime/core.c ****   tuple_type type = TUPLE_TYPE(agg->tuple);
 3571               		.loc 1 616 0
 3572 13da DC01      		movw r26,r24
 3573 13dc 1496      		adiw r26,4
 3574 13de ED91      		ld r30,X+
 3575 13e0 FC91      		ld r31,X
 3576 13e2 1597      		sbiw r26,4+1
 3577 13e4 4081      		ld r20,Z
 3578               	.LVL278:
 3579 13e6 50E0      		ldi r21,0
 620:/home/anaz/blinkyblocks/build/src-bobby/meldinterp-runtime/core.c ****   int agg_type = AGG_AGG(TYPE_AGGREGATE(type));
 3580               		.loc 1 620 0
 3581 13e8 FA01      		movw r30,r20
 3582 13ea E050      		subi r30,lo8(-(meld_prog))
 3583 13ec F040      		sbci r31,hi8(-(meld_prog))
 3584 13ee A180      		ldd r10,Z+1
 3585 13f0 EA2D      		mov r30,r10
 3586 13f2 F0E0      		ldi r31,0
 3587 13f4 EF83      		std Y+7,r30
 3588 13f6 F887      		std Y+8,r31
 3589 13f8 E050      		subi r30,lo8(-(meld_prog+3))
 3590 13fa F040      		sbci r31,hi8(-(meld_prog+3))
 3591 13fc 8081      		ld r24,Z
 3592               	.LVL279:
 3593 13fe F82F      		mov r31,r24
 3594 1400 F295      		swap r31
 3595 1402 FF70      		andi r31,lo8(15)
 3596 1404 F983      		std Y+1,r31
 3597               	.LVL280:
 621:/home/anaz/blinkyblocks/build/src-bobby/meldinterp-runtime/core.c ****   int agg_field = AGG_FIELD(TYPE_AGGREGATE(type));
 3598               		.loc 1 621 0
 3599 1406 8F70      		andi r24,lo8(15)
 3600 1408 8987      		std Y+9,r24
 3601               	.LVL281:
 623:/home/anaz/blinkyblocks/build/src-bobby/meldinterp-runtime/core.c ****   tuple_entry *agg_list = agg_queue->head;
 3602               		.loc 1 623 0
 3603 140a 1296      		adiw r26,2
 3604 140c ED91      		ld r30,X+
 3605 140e FC91      		ld r31,X
 3606 1410 1397      		sbiw r26,2+1
 3607 1412 2081      		ld r18,Z
 3608 1414 3181      		ldd r19,Z+1
 3609 1416 2A83      		std Y+2,r18
 3610 1418 3B83      		std Y+3,r19
 3611               	.LVL282:
 624:/home/anaz/blinkyblocks/build/src-bobby/meldinterp-runtime/core.c ****   tuple_t tuple = agg_list->tuple;
 3612               		.loc 1 624 0
 3613 141a D901      		movw r26,r18
 3614 141c 1496      		adiw r26,4
 3615 141e CD90      		ld r12,X+
 3616 1420 DC90      		ld r13,X
 3617 1422 1597      		sbiw r26,4+1
 3618               	.LVL283:
 626:/home/anaz/blinkyblocks/build/src-bobby/meldinterp-runtime/core.c ****   void* start = GET_TUPLE_FIELD(tuple, agg_field);
 3619               		.loc 1 626 0
 3620 1424 8091 0000 		lds r24,arguments
 3621 1428 9091 0000 		lds r25,arguments+1
 3622               	.LVL284:
 3623 142c F601      		movw r30,r12
 3624 142e 2081      		ld r18,Z
 3625               	.LVL285:
 3626 1430 F985      		ldd r31,Y+9
 3627               	.LVL286:
 3628 1432 6F2E      		mov r6,r31
 3629 1434 712C      		mov r7,__zero_reg__
 3630 1436 660C      		lsl r6
 3631 1438 771C      		rol r7
 3632 143a FC01      		movw r30,r24
 3633 143c E20F      		add r30,r18
 3634 143e F11D      		adc r31,__zero_reg__
 3635 1440 E20F      		add r30,r18
 3636 1442 F11D      		adc r31,__zero_reg__
 3637 1444 6081      		ld r22,Z
 3638               	.LVL287:
 3639 1446 9C01      		movw r18,r24
 3640 1448 260D      		add r18,r6
 3641 144a 371D      		adc r19,r7
 3642 144c F901      		movw r30,r18
 3643 144e E60F      		add r30,r22
 3644 1450 F11D      		adc r31,__zero_reg__
 3645 1452 0181      		ldd r16,Z+1
 3646 1454 10E0      		ldi r17,0
 3647 1456 0F5F      		subi r16,-1
 3648 1458 1F4F      		sbci r17,-1
 3649 145a 0C0D      		add r16,r12
 3650 145c 1D1D      		adc r17,r13
 3651               	.LVL288:
 629:/home/anaz/blinkyblocks/build/src-bobby/meldinterp-runtime/core.c ****   size_t size = TYPE_ARG_SIZE(type, agg_field);
 3652               		.loc 1 629 0
 3653 145e 7A01      		movw r14,r20
 3654 1460 EE0C      		lsl r14
 3655 1462 FF1C      		rol r15
 3656               	.LVL289:
 3657 1464 FC01      		movw r30,r24
 3658 1466 EE0D      		add r30,r14
 3659 1468 FF1D      		adc r31,r15
 3660 146a 8081      		ld r24,Z
 3661 146c F901      		movw r30,r18
 3662 146e E80F      		add r30,r24
 3663 1470 F11D      		adc r31,__zero_reg__
 3664 1472 2081      		ld r18,Z
 3665 1474 2E83      		std Y+6,r18
 3666               	.LVL290:
 630:/home/anaz/blinkyblocks/build/src-bobby/meldinterp-runtime/core.c ****   void* accumulator = malloc(size);
 3667               		.loc 1 630 0
 3668 1476 822F      		mov r24,r18
 3669 1478 90E0      		ldi r25,0
 3670 147a 0E94 0000 		call malloc
 3671               	.LVL291:
 3672 147e 8D87      		std Y+13,r24
 3673 1480 9E87      		std Y+14,r25
 3674               	.LVL292:
 632:/home/anaz/blinkyblocks/build/src-bobby/meldinterp-runtime/core.c ****   aggregate_seed(agg_type, accumulator, start, agg_list->records.count, size);
 3675               		.loc 1 632 0
 3676 1482 AA81      		ldd r26,Y+2
 3677 1484 BB81      		ldd r27,Y+3
 3678 1486 1296      		adiw r26,2
 3679 1488 2D90      		ld r2,X+
 3680 148a 3C90      		ld r3,X
 3681 148c 1397      		sbiw r26,2+1
 3682               	.LVL293:
 3683               	.LBB198:
 3684               	.LBB199:
 511:/home/anaz/blinkyblocks/build/src-bobby/meldinterp-runtime/core.c ****   switch(agg_type) {
 3685               		.loc 1 511 0
 3686 148e B981      		ldd r27,Y+1
 3687 1490 B730      		cpi r27,lo8(7)
 3688 1492 00F4      		brsh .L257
 3689 1494 B530      		cpi r27,lo8(5)
 3690 1496 00F4      		brsh .L251
 3691 1498 B430      		cpi r27,lo8(4)
 3692 149a 00F4      		brsh .L250
 3693 149c B230      		cpi r27,lo8(2)
 3694 149e 00F4      		brsh .L249
 3695 14a0 B130      		cpi r27,lo8(1)
 3696 14a2 01F0      		breq .+2
 3697 14a4 00C0      		rjmp .L247
 3698 14a6 00C0      		rjmp .L248
 3699               	.L257:
 3700 14a8 E981      		ldd r30,Y+1
 3701 14aa E930      		cpi r30,lo8(9)
 3702 14ac 01F4      		brne .+2
 3703 14ae 00C0      		rjmp .L254
 3704 14b0 00F4      		brsh .L258
 3705 14b2 E730      		cpi r30,lo8(7)
 3706 14b4 01F0      		breq .L252
 3707 14b6 E830      		cpi r30,lo8(8)
 3708 14b8 01F0      		breq .+2
 3709 14ba 00C0      		rjmp .L247
 3710 14bc 00C0      		rjmp .L253
 3711               	.L258:
 3712 14be F981      		ldd r31,Y+1
 3713 14c0 FA30      		cpi r31,lo8(10)
 3714 14c2 01F4      		brne .+2
 3715 14c4 00C0      		rjmp .L255
 3716 14c6 FB30      		cpi r31,lo8(11)
 3717 14c8 01F0      		breq .+2
 3718 14ca 00C0      		rjmp .L247
 3719 14cc 00C0      		rjmp .L256
 3720               	.L248:
 513:/home/anaz/blinkyblocks/build/src-bobby/meldinterp-runtime/core.c ****     memcpy(acc, start, size);
 3721               		.loc 1 513 0
 3722 14ce 4E81      		ldd r20,Y+6
 3723 14d0 50E0      		ldi r21,0
 3724 14d2 B801      		movw r22,r16
 3725 14d4 8D85      		ldd r24,Y+13
 3726 14d6 0E94 0000 		call memcpy
 3727               	.LVL294:
 3728 14da 00C0      		rjmp .L259
 3729               	.L249:
 517:/home/anaz/blinkyblocks/build/src-bobby/meldinterp-runtime/core.c ****     MELD_INT(acc) = MELD_INT(start);
 3730               		.loc 1 517 0
 3731 14dc F801      		movw r30,r16
 3732 14de 8081      		ld r24,Z
 3733 14e0 9181      		ldd r25,Z+1
 3734 14e2 A281      		ldd r26,Z+2
 3735 14e4 B381      		ldd r27,Z+3
 3736 14e6 ED85      		ldd r30,Y+13
 3737 14e8 FE85      		ldd r31,Y+14
 3738 14ea 8083      		st Z,r24
 3739 14ec 9183      		std Z+1,r25
 3740 14ee A283      		std Z+2,r26
 3741 14f0 B383      		std Z+3,r27
 3742 14f2 00C0      		rjmp .L259
 3743               	.L250:
 520:/home/anaz/blinkyblocks/build/src-bobby/meldinterp-runtime/core.c ****     MELD_INT(acc) = MELD_INT(start) * count;
 3744               		.loc 1 520 0
 3745 14f4 D801      		movw r26,r16
 3746 14f6 2D91      		ld r18,X+
 3747 14f8 3D91      		ld r19,X+
 3748 14fa 4D91      		ld r20,X+
 3749 14fc 5C91      		ld r21,X
 3750 14fe D101      		movw r26,r2
 3751 1500 0E94 0000 		call __mulshisi3
 3752 1504 ED85      		ldd r30,Y+13
 3753 1506 FE85      		ldd r31,Y+14
 3754 1508 6083      		st Z,r22
 3755 150a 7183      		std Z+1,r23
 3756 150c 8283      		std Z+2,r24
 3757 150e 9383      		std Z+3,r25
 3758 1510 00C0      		rjmp .L259
 3759               	.L251:
 524:/home/anaz/blinkyblocks/build/src-bobby/meldinterp-runtime/core.c ****     MELD_FLOAT(acc) = MELD_FLOAT(start);
 3760               		.loc 1 524 0
 3761 1512 F801      		movw r30,r16
 3762 1514 8081      		ld r24,Z
 3763 1516 9181      		ldd r25,Z+1
 3764 1518 A281      		ldd r26,Z+2
 3765 151a B381      		ldd r27,Z+3
 3766 151c ED85      		ldd r30,Y+13
 3767 151e FE85      		ldd r31,Y+14
 3768 1520 8083      		st Z,r24
 3769 1522 9183      		std Z+1,r25
 3770 1524 A283      		std Z+2,r26
 3771 1526 B383      		std Z+3,r27
 3772 1528 00C0      		rjmp .L259
 3773               	.L252:
 527:/home/anaz/blinkyblocks/build/src-bobby/meldinterp-runtime/core.c ****     MELD_FLOAT(acc) = MELD_FLOAT(start) * count;
 3774               		.loc 1 527 0
 3775 152a B101      		movw r22,r2
 3776 152c 8827      		clr r24
 3777 152e 77FD      		sbrc r23,7
 3778 1530 8095      		com r24
 3779 1532 982F      		mov r25,r24
 3780 1534 0E94 0000 		call __floatsisf
 3781               	.LVL295:
 3782 1538 9B01      		movw r18,r22
 3783 153a AC01      		movw r20,r24
 3784 153c D801      		movw r26,r16
 3785 153e 6D91      		ld r22,X+
 3786 1540 7D91      		ld r23,X+
 3787 1542 8D91      		ld r24,X+
 3788 1544 9C91      		ld r25,X
 3789 1546 0E94 0000 		call __mulsf3
 3790               	.LVL296:
 3791 154a ED85      		ldd r30,Y+13
 3792 154c FE85      		ldd r31,Y+14
 3793 154e 6083      		st Z,r22
 3794 1550 7183      		std Z+1,r23
 3795 1552 8283      		std Z+2,r24
 3796 1554 9383      		std Z+3,r25
 3797 1556 00C0      		rjmp .L259
 3798               	.L253:
 3799               	.LBB200:
 530:/home/anaz/blinkyblocks/build/src-bobby/meldinterp-runtime/core.c ****     Set *set = set_int_create();
 3800               		.loc 1 530 0
 3801 1558 0E94 0000 		call set_int_create
 3802               	.LVL297:
 3803 155c 5C01      		movw r10,r24
 3804               	.LVL298:
 531:/home/anaz/blinkyblocks/build/src-bobby/meldinterp-runtime/core.c ****     set_int_insert(set, MELD_INT(start));
 3805               		.loc 1 531 0
 3806 155e D801      		movw r26,r16
 3807 1560 6D91      		ld r22,X+
 3808 1562 7C91      		ld r23,X
 3809 1564 0E94 0000 		call set_int_insert
 3810               	.LVL299:
 3811 1568 00C0      		rjmp .L338
 3812               	.LVL300:
 3813               	.L254:
 3814               	.LBE200:
 3815               	.LBB201:
 537:/home/anaz/blinkyblocks/build/src-bobby/meldinterp-runtime/core.c ****     Set *set = set_float_create();
 3816               		.loc 1 537 0
 3817 156a 0E94 0000 		call set_float_create
 3818               	.LVL301:
 3819 156e 5C01      		movw r10,r24
 3820               	.LVL302:
 538:/home/anaz/blinkyblocks/build/src-bobby/meldinterp-runtime/core.c ****     set_float_insert(set, MELD_FLOAT(start));
 3821               		.loc 1 538 0
 3822 1570 D801      		movw r26,r16
 3823 1572 4D91      		ld r20,X+
 3824 1574 5D91      		ld r21,X+
 3825 1576 6D91      		ld r22,X+
 3826 1578 7C91      		ld r23,X
 3827 157a 0E94 0000 		call set_float_insert
 3828               	.LVL303:
 3829               	.L338:
 539:/home/anaz/blinkyblocks/build/src-bobby/meldinterp-runtime/core.c ****     set_print(set);
 3830               		.loc 1 539 0
 3831 157e C501      		movw r24,r10
 3832 1580 0E94 0000 		call set_print
 3833               	.LVL304:
 3834 1584 00C0      		rjmp .L333
 3835               	.L255:
 3836               	.LBE201:
 3837               	.LBB202:
 544:/home/anaz/blinkyblocks/build/src-bobby/meldinterp-runtime/core.c ****     List *result_list = list_int_create();
 3838               		.loc 1 544 0
 3839 1586 0E94 0000 		call list_int_create
 3840               	.LVL305:
 3841 158a 5C01      		movw r10,r24
 3842               	.LVL306:
 3843               	.LBE202:
 3844               	.LBE199:
1363:/home/anaz/blinkyblocks/build/src-bobby/meldinterp-runtime/core.c **** 
1364:/home/anaz/blinkyblocks/build/src-bobby/meldinterp-runtime/core.c **** void
1365:/home/anaz/blinkyblocks/build/src-bobby/meldinterp-runtime/core.c **** tuple_print(tuple_t tuple, FILE *fp)
1366:/home/anaz/blinkyblocks/build/src-bobby/meldinterp-runtime/core.c **** {
1367:/home/anaz/blinkyblocks/build/src-bobby/meldinterp-runtime/core.c ****   unsigned char tuple_type = TUPLE_TYPE(tuple);
1368:/home/anaz/blinkyblocks/build/src-bobby/meldinterp-runtime/core.c ****   int j;
1369:/home/anaz/blinkyblocks/build/src-bobby/meldinterp-runtime/core.c **** 
1370:/home/anaz/blinkyblocks/build/src-bobby/meldinterp-runtime/core.c ****   fprintf(fp, "%s(", TYPE_NAME(tuple_type));
1371:/home/anaz/blinkyblocks/build/src-bobby/meldinterp-runtime/core.c ****   for(j = 0; j < TYPE_NOARGS(tuple_type); ++j) {
1372:/home/anaz/blinkyblocks/build/src-bobby/meldinterp-runtime/core.c ****     void *field = GET_TUPLE_FIELD(tuple, j);
1373:/home/anaz/blinkyblocks/build/src-bobby/meldinterp-runtime/core.c **** 
1374:/home/anaz/blinkyblocks/build/src-bobby/meldinterp-runtime/core.c ****     if (j > 0)
1375:/home/anaz/blinkyblocks/build/src-bobby/meldinterp-runtime/core.c ****       fprintf(fp, ", ");
1376:/home/anaz/blinkyblocks/build/src-bobby/meldinterp-runtime/core.c **** 
1377:/home/anaz/blinkyblocks/build/src-bobby/meldinterp-runtime/core.c ****     switch(TYPE_ARG_TYPE(tuple_type, j)) {
1378:/home/anaz/blinkyblocks/build/src-bobby/meldinterp-runtime/core.c ****     case FIELD_INT:
1379:/home/anaz/blinkyblocks/build/src-bobby/meldinterp-runtime/core.c **** #ifndef BBSIM
1380:/home/anaz/blinkyblocks/build/src-bobby/meldinterp-runtime/core.c ****       fprintf(fp, "%ld", MELD_INT(field));
1381:/home/anaz/blinkyblocks/build/src-bobby/meldinterp-runtime/core.c **** #else
1382:/home/anaz/blinkyblocks/build/src-bobby/meldinterp-runtime/core.c ****       fprintf(fp, "%d", MELD_INT(field));
1383:/home/anaz/blinkyblocks/build/src-bobby/meldinterp-runtime/core.c **** #endif
1384:/home/anaz/blinkyblocks/build/src-bobby/meldinterp-runtime/core.c ****       break;
1385:/home/anaz/blinkyblocks/build/src-bobby/meldinterp-runtime/core.c ****     case FIELD_FLOAT:
1386:/home/anaz/blinkyblocks/build/src-bobby/meldinterp-runtime/core.c ****       fprintf(fp, "%f", (double)MELD_FLOAT(field));
1387:/home/anaz/blinkyblocks/build/src-bobby/meldinterp-runtime/core.c ****       break;
1388:/home/anaz/blinkyblocks/build/src-bobby/meldinterp-runtime/core.c ****     case FIELD_ADDR:
1389:/home/anaz/blinkyblocks/build/src-bobby/meldinterp-runtime/core.c ****       fprintf(fp, "%p", MELD_PTR(field));
1390:/home/anaz/blinkyblocks/build/src-bobby/meldinterp-runtime/core.c ****       break;
1391:/home/anaz/blinkyblocks/build/src-bobby/meldinterp-runtime/core.c ****     case FIELD_LIST_INT:
1392:/home/anaz/blinkyblocks/build/src-bobby/meldinterp-runtime/core.c ****       fprintf(fp, "list_int[%d][%p]", list_total(MELD_LIST(field)),
1393:/home/anaz/blinkyblocks/build/src-bobby/meldinterp-runtime/core.c **** 	      MELD_LIST(field));
1394:/home/anaz/blinkyblocks/build/src-bobby/meldinterp-runtime/core.c ****       break;
1395:/home/anaz/blinkyblocks/build/src-bobby/meldinterp-runtime/core.c ****     case FIELD_LIST_FLOAT:
1396:/home/anaz/blinkyblocks/build/src-bobby/meldinterp-runtime/core.c ****       fprintf(fp, "list_float[%d][%p]", list_total(MELD_LIST(field)),
1397:/home/anaz/blinkyblocks/build/src-bobby/meldinterp-runtime/core.c **** 	      MELD_LIST(field));
1398:/home/anaz/blinkyblocks/build/src-bobby/meldinterp-runtime/core.c ****       break;
1399:/home/anaz/blinkyblocks/build/src-bobby/meldinterp-runtime/core.c ****     case FIELD_LIST_ADDR:
1400:/home/anaz/blinkyblocks/build/src-bobby/meldinterp-runtime/core.c ****       fprintf(fp, "list_addr[%p]", *(void **)field);
1401:/home/anaz/blinkyblocks/build/src-bobby/meldinterp-runtime/core.c ****       break;
1402:/home/anaz/blinkyblocks/build/src-bobby/meldinterp-runtime/core.c ****     case FIELD_SET_INT:
1403:/home/anaz/blinkyblocks/build/src-bobby/meldinterp-runtime/core.c ****       fprintf(fp, "set_int[%d][%p]", set_total(MELD_SET(field)),
1404:/home/anaz/blinkyblocks/build/src-bobby/meldinterp-runtime/core.c **** 	      MELD_SET(field));
1405:/home/anaz/blinkyblocks/build/src-bobby/meldinterp-runtime/core.c ****       break;
1406:/home/anaz/blinkyblocks/build/src-bobby/meldinterp-runtime/core.c ****     case FIELD_SET_FLOAT:
1407:/home/anaz/blinkyblocks/build/src-bobby/meldinterp-runtime/core.c ****       fprintf(fp, "set_float[%d][%p]", set_total(MELD_SET(field)),
1408:/home/anaz/blinkyblocks/build/src-bobby/meldinterp-runtime/core.c **** 	      MELD_SET(field));
1409:/home/anaz/blinkyblocks/build/src-bobby/meldinterp-runtime/core.c ****       break;
1410:/home/anaz/blinkyblocks/build/src-bobby/meldinterp-runtime/core.c ****     case FIELD_TYPE:
1411:/home/anaz/blinkyblocks/build/src-bobby/meldinterp-runtime/core.c ****       fprintf(fp, "%s", TYPE_NAME(MELD_INT(field)));
1412:/home/anaz/blinkyblocks/build/src-bobby/meldinterp-runtime/core.c ****       break;
1413:/home/anaz/blinkyblocks/build/src-bobby/meldinterp-runtime/core.c ****     default:
1414:/home/anaz/blinkyblocks/build/src-bobby/meldinterp-runtime/core.c ****       assert(0);
1415:/home/anaz/blinkyblocks/build/src-bobby/meldinterp-runtime/core.c ****       break;
1416:/home/anaz/blinkyblocks/build/src-bobby/meldinterp-runtime/core.c ****     }
1417:/home/anaz/blinkyblocks/build/src-bobby/meldinterp-runtime/core.c ****   }
1418:/home/anaz/blinkyblocks/build/src-bobby/meldinterp-runtime/core.c ****   fprintf(fp, ")");
1419:/home/anaz/blinkyblocks/build/src-bobby/meldinterp-runtime/core.c **** }
1420:/home/anaz/blinkyblocks/build/src-bobby/meldinterp-runtime/core.c **** 
1421:/home/anaz/blinkyblocks/build/src-bobby/meldinterp-runtime/core.c **** void facts_dump(void)
1422:/home/anaz/blinkyblocks/build/src-bobby/meldinterp-runtime/core.c **** {
1423:/home/anaz/blinkyblocks/build/src-bobby/meldinterp-runtime/core.c ****   int i;
1424:/home/anaz/blinkyblocks/build/src-bobby/meldinterp-runtime/core.c **** 
1425:/home/anaz/blinkyblocks/build/src-bobby/meldinterp-runtime/core.c ****   for (i = 0; i < NUM_TYPES; i++) {
1426:/home/anaz/blinkyblocks/build/src-bobby/meldinterp-runtime/core.c ****     // don't print fact types that don't exist
1427:/home/anaz/blinkyblocks/build/src-bobby/meldinterp-runtime/core.c ****     if (TUPLES[i].head == NULL)
1428:/home/anaz/blinkyblocks/build/src-bobby/meldinterp-runtime/core.c ****       continue;
1429:/home/anaz/blinkyblocks/build/src-bobby/meldinterp-runtime/core.c **** 
1430:/home/anaz/blinkyblocks/build/src-bobby/meldinterp-runtime/core.c ****     // don't print artificial tuple types
1431:/home/anaz/blinkyblocks/build/src-bobby/meldinterp-runtime/core.c ****     /*
1432:/home/anaz/blinkyblocks/build/src-bobby/meldinterp-runtime/core.c ****     if (tuple_names[i][0] == '_')
1433:/home/anaz/blinkyblocks/build/src-bobby/meldinterp-runtime/core.c ****       continue;
1434:/home/anaz/blinkyblocks/build/src-bobby/meldinterp-runtime/core.c ****     */
1435:/home/anaz/blinkyblocks/build/src-bobby/meldinterp-runtime/core.c **** 
1436:/home/anaz/blinkyblocks/build/src-bobby/meldinterp-runtime/core.c ****     fprintf(stderr, "tuple %s (type %d)\n", tuple_names[i], i);
1437:/home/anaz/blinkyblocks/build/src-bobby/meldinterp-runtime/core.c ****     tuple_entry *tupleEntry;
1438:/home/anaz/blinkyblocks/build/src-bobby/meldinterp-runtime/core.c ****     for (tupleEntry = TUPLES[i].head; tupleEntry != NULL; tupleEntry = tupleEntry->next) {
1439:/home/anaz/blinkyblocks/build/src-bobby/meldinterp-runtime/core.c **** 			fprintf(stderr, "  ");
1440:/home/anaz/blinkyblocks/build/src-bobby/meldinterp-runtime/core.c **** 			tuple_print(tupleEntry->tuple, stderr);
1441:/home/anaz/blinkyblocks/build/src-bobby/meldinterp-runtime/core.c **** 			if (TYPE_IS_AGG(i)) {
1442:/home/anaz/blinkyblocks/build/src-bobby/meldinterp-runtime/core.c **** 				fprintf(stderr, "\n    [[[");
1443:/home/anaz/blinkyblocks/build/src-bobby/meldinterp-runtime/core.c **** 				tuple_entry *tpE;
1444:/home/anaz/blinkyblocks/build/src-bobby/meldinterp-runtime/core.c **** 				for (tpE = tupleEntry->records.agg_queue->head;
1445:/home/anaz/blinkyblocks/build/src-bobby/meldinterp-runtime/core.c **** 						 tpE != NULL;
1446:/home/anaz/blinkyblocks/build/src-bobby/meldinterp-runtime/core.c **** 						 tpE = tpE->next) {
1447:/home/anaz/blinkyblocks/build/src-bobby/meldinterp-runtime/core.c **** 					tuple_print(tpE->tuple, stderr);
1448:/home/anaz/blinkyblocks/build/src-bobby/meldinterp-runtime/core.c **** 					fprintf(stderr, "x%d\n       ", tpE->records.count);
1449:/home/anaz/blinkyblocks/build/src-bobby/meldinterp-runtime/core.c **** 				}
1450:/home/anaz/blinkyblocks/build/src-bobby/meldinterp-runtime/core.c **** 				fprintf(stderr, "\b\b\b]]]\n");
1451:/home/anaz/blinkyblocks/build/src-bobby/meldinterp-runtime/core.c **** 			}
1452:/home/anaz/blinkyblocks/build/src-bobby/meldinterp-runtime/core.c **** 			else {
1453:/home/anaz/blinkyblocks/build/src-bobby/meldinterp-runtime/core.c **** 				fprintf(stderr, "x%d\n", tupleEntry->records.count);
1454:/home/anaz/blinkyblocks/build/src-bobby/meldinterp-runtime/core.c **** 			}
1455:/home/anaz/blinkyblocks/build/src-bobby/meldinterp-runtime/core.c ****     }
1456:/home/anaz/blinkyblocks/build/src-bobby/meldinterp-runtime/core.c ****   }
1457:/home/anaz/blinkyblocks/build/src-bobby/meldinterp-runtime/core.c **** }
1458:/home/anaz/blinkyblocks/build/src-bobby/meldinterp-runtime/core.c **** 
1459:/home/anaz/blinkyblocks/build/src-bobby/meldinterp-runtime/core.c **** void
1460:/home/anaz/blinkyblocks/build/src-bobby/meldinterp-runtime/core.c **** print_program_info(void)
1461:/home/anaz/blinkyblocks/build/src-bobby/meldinterp-runtime/core.c **** {
1462:/home/anaz/blinkyblocks/build/src-bobby/meldinterp-runtime/core.c ****   /* print program info */
1463:/home/anaz/blinkyblocks/build/src-bobby/meldinterp-runtime/core.c ****   int i;
1464:/home/anaz/blinkyblocks/build/src-bobby/meldinterp-runtime/core.c ****   for(i = 0; i < NUM_TYPES; ++i) {
1465:/home/anaz/blinkyblocks/build/src-bobby/meldinterp-runtime/core.c ****     printf("Tuple (%s:%d:%d) ", tuple_names[i], i, TYPE_SIZE(i));
1466:/home/anaz/blinkyblocks/build/src-bobby/meldinterp-runtime/core.c ****     
1467:/home/anaz/blinkyblocks/build/src-bobby/meldinterp-runtime/core.c ****     printf("[");
1468:/home/anaz/blinkyblocks/build/src-bobby/meldinterp-runtime/core.c ****     if(TYPE_IS_AGG(i))
1469:/home/anaz/blinkyblocks/build/src-bobby/meldinterp-runtime/core.c ****       printf("agg");
1470:/home/anaz/blinkyblocks/build/src-bobby/meldinterp-runtime/core.c ****     if(TYPE_IS_PERSISTENT(i))
1471:/home/anaz/blinkyblocks/build/src-bobby/meldinterp-runtime/core.c ****       printf("per");
1472:/home/anaz/blinkyblocks/build/src-bobby/meldinterp-runtime/core.c ****     if(TYPE_IS_LINEAR(i))
1473:/home/anaz/blinkyblocks/build/src-bobby/meldinterp-runtime/core.c ****       printf("linear");
1474:/home/anaz/blinkyblocks/build/src-bobby/meldinterp-runtime/core.c ****     if(TYPE_IS_ROUTING(i))
1475:/home/anaz/blinkyblocks/build/src-bobby/meldinterp-runtime/core.c ****       printf("route");
1476:/home/anaz/blinkyblocks/build/src-bobby/meldinterp-runtime/core.c ****     if(TYPE_IS_PROVED(i))
1477:/home/anaz/blinkyblocks/build/src-bobby/meldinterp-runtime/core.c ****       printf("proved");
1478:/home/anaz/blinkyblocks/build/src-bobby/meldinterp-runtime/core.c ****     printf("] ");
1479:/home/anaz/blinkyblocks/build/src-bobby/meldinterp-runtime/core.c ****     
1480:/home/anaz/blinkyblocks/build/src-bobby/meldinterp-runtime/core.c ****     printf("num_args:%d deltas:%d off:%d ; args(offset, arg_size): ",
1481:/home/anaz/blinkyblocks/build/src-bobby/meldinterp-runtime/core.c **** 	   TYPE_NOARGS(i), TYPE_NODELTAS(i), TYPE_OFFSET(i));
1482:/home/anaz/blinkyblocks/build/src-bobby/meldinterp-runtime/core.c **** 		
1483:/home/anaz/blinkyblocks/build/src-bobby/meldinterp-runtime/core.c ****     int j;
1484:/home/anaz/blinkyblocks/build/src-bobby/meldinterp-runtime/core.c ****     for (j = 0; j < TYPE_NOARGS(i); ++j) {
1485:/home/anaz/blinkyblocks/build/src-bobby/meldinterp-runtime/core.c ****       printf(" %d:%d", TYPE_ARG_OFFSET(i, j), TYPE_ARG_SIZE(i, j));
1486:/home/anaz/blinkyblocks/build/src-bobby/meldinterp-runtime/core.c ****     }
1487:/home/anaz/blinkyblocks/build/src-bobby/meldinterp-runtime/core.c ****     printf("\n");
1488:/home/anaz/blinkyblocks/build/src-bobby/meldinterp-runtime/core.c ****   }
1489:/home/anaz/blinkyblocks/build/src-bobby/meldinterp-runtime/core.c **** }
 3845               		.loc 1 1489 0
 3846 158c D801      		movw r26,r16
 3847 158e ED91      		ld r30,X+
 3848 1590 FC91      		ld r31,X
 3849 1592 0081      		ld r16,Z
 3850 1594 1181      		ldd r17,Z+1
 3851               	.LVL307:
 3852               	.LBB212:
 3853               	.LBB206:
 3854               	.LBB203:
 552:/home/anaz/blinkyblocks/build/src-bobby/meldinterp-runtime/core.c **** 	meld_int total = list_iterator_int(it) * (meld_int)count;
 3855               		.loc 1 552 0
 3856 1596 4424      		clr r4
 3857 1598 37FC      		sbrc r3,7
 3858 159a 4094      		com r4
 3859 159c 542C      		mov r5,r4
 3860 159e 00C0      		rjmp .L260
 3861               	.LVL308:
 3862               	.L261:
 3863 15a0 F801      		movw r30,r16
 3864 15a2 6281      		ldd r22,Z+2
 3865 15a4 7381      		ldd r23,Z+3
 3866 15a6 8481      		ldd r24,Z+4
 3867 15a8 9581      		ldd r25,Z+5
 3868 15aa A201      		movw r20,r4
 3869 15ac 9101      		movw r18,r2
 3870 15ae 0E94 0000 		call __mulsi3
 3871 15b2 AB01      		movw r20,r22
 3872 15b4 BC01      		movw r22,r24
 553:/home/anaz/blinkyblocks/build/src-bobby/meldinterp-runtime/core.c **** 	list_int_push_tail(result_list, total);
 3873               		.loc 1 553 0
 3874 15b6 C501      		movw r24,r10
 3875 15b8 0E94 0000 		call list_int_push_tail
 3876               	.LVL309:
 3877               	.LBE203:
 3878               	.LBB204:
 3879               	.LBB205:
 3880               		.file 2 "/home/anaz/blinkyblocks/build/src-bobby/meldinterp-runtime/list_runtime.h"
   1:/home/anaz/blinkyblocks/build/src-bobby/meldinterp-runtime/list_runtime.h **** 
   2:/home/anaz/blinkyblocks/build/src-bobby/meldinterp-runtime/list_runtime.h **** #ifndef LIST_RUNTIME_H
   3:/home/anaz/blinkyblocks/build/src-bobby/meldinterp-runtime/list_runtime.h **** #define LIST_RUNTIME_H
   4:/home/anaz/blinkyblocks/build/src-bobby/meldinterp-runtime/list_runtime.h **** 
   5:/home/anaz/blinkyblocks/build/src-bobby/meldinterp-runtime/list_runtime.h **** #include <stddef.h>
   6:/home/anaz/blinkyblocks/build/src-bobby/meldinterp-runtime/list_runtime.h **** 
   7:/home/anaz/blinkyblocks/build/src-bobby/meldinterp-runtime/list_runtime.h **** #include "api.h"
   8:/home/anaz/blinkyblocks/build/src-bobby/meldinterp-runtime/list_runtime.h **** #ifndef IGNORE_IN_PASS1_OFF_COMPILE_BB
   9:/home/anaz/blinkyblocks/build/src-bobby/meldinterp-runtime/list_runtime.h **** #include "model.h"
  10:/home/anaz/blinkyblocks/build/src-bobby/meldinterp-runtime/list_runtime.h **** #endif
  11:/home/anaz/blinkyblocks/build/src-bobby/meldinterp-runtime/list_runtime.h **** 
  12:/home/anaz/blinkyblocks/build/src-bobby/meldinterp-runtime/list_runtime.h **** typedef void* list_element;
  13:/home/anaz/blinkyblocks/build/src-bobby/meldinterp-runtime/list_runtime.h **** 
  14:/home/anaz/blinkyblocks/build/src-bobby/meldinterp-runtime/list_runtime.h **** #define LIST_NEXT(node) (*(void**)(node))
  15:/home/anaz/blinkyblocks/build/src-bobby/meldinterp-runtime/list_runtime.h **** #define LIST_DATA(node) ((void*)((unsigned char*)(node) + sizeof(void*)))
  16:/home/anaz/blinkyblocks/build/src-bobby/meldinterp-runtime/list_runtime.h **** 
  17:/home/anaz/blinkyblocks/build/src-bobby/meldinterp-runtime/list_runtime.h **** typedef void (*list_print_fn)(list_element);
  18:/home/anaz/blinkyblocks/build/src-bobby/meldinterp-runtime/list_runtime.h **** typedef bool (*list_equal_fn)(list_element, list_element);
  19:/home/anaz/blinkyblocks/build/src-bobby/meldinterp-runtime/list_runtime.h **** 
  20:/home/anaz/blinkyblocks/build/src-bobby/meldinterp-runtime/list_runtime.h **** typedef struct _list_descriptor
  21:/home/anaz/blinkyblocks/build/src-bobby/meldinterp-runtime/list_runtime.h **** {
  22:/home/anaz/blinkyblocks/build/src-bobby/meldinterp-runtime/list_runtime.h ****   size_t size_elem;
  23:/home/anaz/blinkyblocks/build/src-bobby/meldinterp-runtime/list_runtime.h ****   list_print_fn print_fn;
  24:/home/anaz/blinkyblocks/build/src-bobby/meldinterp-runtime/list_runtime.h ****   list_equal_fn equal_fn;
  25:/home/anaz/blinkyblocks/build/src-bobby/meldinterp-runtime/list_runtime.h **** } list_descriptor;
  26:/home/anaz/blinkyblocks/build/src-bobby/meldinterp-runtime/list_runtime.h **** 
  27:/home/anaz/blinkyblocks/build/src-bobby/meldinterp-runtime/list_runtime.h **** typedef struct _List List;
  28:/home/anaz/blinkyblocks/build/src-bobby/meldinterp-runtime/list_runtime.h **** 
  29:/home/anaz/blinkyblocks/build/src-bobby/meldinterp-runtime/list_runtime.h **** struct _List {
  30:/home/anaz/blinkyblocks/build/src-bobby/meldinterp-runtime/list_runtime.h **** 	void *head;
  31:/home/anaz/blinkyblocks/build/src-bobby/meldinterp-runtime/list_runtime.h **** 	void *tail;
  32:/home/anaz/blinkyblocks/build/src-bobby/meldinterp-runtime/list_runtime.h **** 	unsigned short total;
  33:/home/anaz/blinkyblocks/build/src-bobby/meldinterp-runtime/list_runtime.h ****   list_descriptor *descriptor;
  34:/home/anaz/blinkyblocks/build/src-bobby/meldinterp-runtime/list_runtime.h **** };
  35:/home/anaz/blinkyblocks/build/src-bobby/meldinterp-runtime/list_runtime.h **** 
  36:/home/anaz/blinkyblocks/build/src-bobby/meldinterp-runtime/list_runtime.h **** void list_init_descriptors(void);
  37:/home/anaz/blinkyblocks/build/src-bobby/meldinterp-runtime/list_runtime.h **** 
  38:/home/anaz/blinkyblocks/build/src-bobby/meldinterp-runtime/list_runtime.h **** List *list_int_create(void);
  39:/home/anaz/blinkyblocks/build/src-bobby/meldinterp-runtime/list_runtime.h **** List *list_float_create(void);
  40:/home/anaz/blinkyblocks/build/src-bobby/meldinterp-runtime/list_runtime.h **** List *list_node_create(void);
  41:/home/anaz/blinkyblocks/build/src-bobby/meldinterp-runtime/list_runtime.h **** 
  42:/home/anaz/blinkyblocks/build/src-bobby/meldinterp-runtime/list_runtime.h **** void list_delete(List *list);
  43:/home/anaz/blinkyblocks/build/src-bobby/meldinterp-runtime/list_runtime.h **** 
  44:/home/anaz/blinkyblocks/build/src-bobby/meldinterp-runtime/list_runtime.h **** int list_equal(List *list1, List *list2);
  45:/home/anaz/blinkyblocks/build/src-bobby/meldinterp-runtime/list_runtime.h **** 
  46:/home/anaz/blinkyblocks/build/src-bobby/meldinterp-runtime/list_runtime.h **** void list_print(List *list);
  47:/home/anaz/blinkyblocks/build/src-bobby/meldinterp-runtime/list_runtime.h **** 
  48:/home/anaz/blinkyblocks/build/src-bobby/meldinterp-runtime/list_runtime.h **** void list_reverse_first(List *list);
  49:/home/anaz/blinkyblocks/build/src-bobby/meldinterp-runtime/list_runtime.h **** 
  50:/home/anaz/blinkyblocks/build/src-bobby/meldinterp-runtime/list_runtime.h **** List *list_copy(List *list);
  51:/home/anaz/blinkyblocks/build/src-bobby/meldinterp-runtime/list_runtime.h **** 
  52:/home/anaz/blinkyblocks/build/src-bobby/meldinterp-runtime/list_runtime.h **** static inline int list_total(List *list)
  53:/home/anaz/blinkyblocks/build/src-bobby/meldinterp-runtime/list_runtime.h **** {
  54:/home/anaz/blinkyblocks/build/src-bobby/meldinterp-runtime/list_runtime.h **** 	return list->total;
  55:/home/anaz/blinkyblocks/build/src-bobby/meldinterp-runtime/list_runtime.h **** }
  56:/home/anaz/blinkyblocks/build/src-bobby/meldinterp-runtime/list_runtime.h **** 
  57:/home/anaz/blinkyblocks/build/src-bobby/meldinterp-runtime/list_runtime.h **** typedef list_element list_iterator;
  58:/home/anaz/blinkyblocks/build/src-bobby/meldinterp-runtime/list_runtime.h **** 
  59:/home/anaz/blinkyblocks/build/src-bobby/meldinterp-runtime/list_runtime.h **** static inline
  60:/home/anaz/blinkyblocks/build/src-bobby/meldinterp-runtime/list_runtime.h **** list_iterator list_get_iterator(List *list)
  61:/home/anaz/blinkyblocks/build/src-bobby/meldinterp-runtime/list_runtime.h **** {
  62:/home/anaz/blinkyblocks/build/src-bobby/meldinterp-runtime/list_runtime.h **** 	return list->head;
  63:/home/anaz/blinkyblocks/build/src-bobby/meldinterp-runtime/list_runtime.h **** }
  64:/home/anaz/blinkyblocks/build/src-bobby/meldinterp-runtime/list_runtime.h **** 
  65:/home/anaz/blinkyblocks/build/src-bobby/meldinterp-runtime/list_runtime.h **** static inline
  66:/home/anaz/blinkyblocks/build/src-bobby/meldinterp-runtime/list_runtime.h **** list_iterator list_last_iterator(List *list)
  67:/home/anaz/blinkyblocks/build/src-bobby/meldinterp-runtime/list_runtime.h **** {
  68:/home/anaz/blinkyblocks/build/src-bobby/meldinterp-runtime/list_runtime.h **** 	return list->tail;
  69:/home/anaz/blinkyblocks/build/src-bobby/meldinterp-runtime/list_runtime.h **** }
  70:/home/anaz/blinkyblocks/build/src-bobby/meldinterp-runtime/list_runtime.h **** 
  71:/home/anaz/blinkyblocks/build/src-bobby/meldinterp-runtime/list_runtime.h **** static inline
  72:/home/anaz/blinkyblocks/build/src-bobby/meldinterp-runtime/list_runtime.h **** int list_iterator_has_next(list_iterator iterator)
  73:/home/anaz/blinkyblocks/build/src-bobby/meldinterp-runtime/list_runtime.h **** {
  74:/home/anaz/blinkyblocks/build/src-bobby/meldinterp-runtime/list_runtime.h **** 	return iterator != NULL;
  75:/home/anaz/blinkyblocks/build/src-bobby/meldinterp-runtime/list_runtime.h **** }
  76:/home/anaz/blinkyblocks/build/src-bobby/meldinterp-runtime/list_runtime.h **** 
  77:/home/anaz/blinkyblocks/build/src-bobby/meldinterp-runtime/list_runtime.h **** static inline
  78:/home/anaz/blinkyblocks/build/src-bobby/meldinterp-runtime/list_runtime.h **** list_iterator list_iterator_next(list_iterator iterator)
  79:/home/anaz/blinkyblocks/build/src-bobby/meldinterp-runtime/list_runtime.h **** {
  80:/home/anaz/blinkyblocks/build/src-bobby/meldinterp-runtime/list_runtime.h **** 	return LIST_NEXT(iterator);
 3881               		.loc 2 80 0
 3882 15bc D801      		movw r26,r16
 3883 15be 0D91      		ld r16,X+
 3884 15c0 1C91      		ld r17,X
 3885               	.LVL310:
 3886               	.L260:
 3887               	.LBE205:
 3888               	.LBE204:
 549:/home/anaz/blinkyblocks/build/src-bobby/meldinterp-runtime/core.c ****     for(it = list_get_iterator(start_list); list_iterator_has_next(it);
 3889               		.loc 1 549 0
 3890 15c2 0115      		cp r16,__zero_reg__
 3891 15c4 1105      		cpc r17,__zero_reg__
 3892 15c6 01F4      		brne .L261
 3893 15c8 00C0      		rjmp .L333
 3894               	.LVL311:
 3895               	.L256:
 3896               	.LBE206:
 3897               	.LBB207:
 560:/home/anaz/blinkyblocks/build/src-bobby/meldinterp-runtime/core.c ****     List *result_list = list_float_create();
 3898               		.loc 1 560 0
 3899 15ca 0E94 0000 		call list_float_create
 3900               	.LVL312:
 3901 15ce 5C01      		movw r10,r24
 3902               	.LVL313:
 3903               	.LBE207:
 3904               	.LBE212:
 3905               		.loc 1 1489 0
 3906 15d0 D801      		movw r26,r16
 3907 15d2 ED91      		ld r30,X+
 3908 15d4 FC91      		ld r31,X
 3909 15d6 0081      		ld r16,Z
 3910 15d8 1181      		ldd r17,Z+1
 3911               	.LVL314:
 3912               	.LBB213:
 3913               	.LBB211:
 3914               	.LBB208:
 568:/home/anaz/blinkyblocks/build/src-bobby/meldinterp-runtime/core.c **** 	meld_float total = list_iterator_float(it) * (meld_float)count;
 3915               		.loc 1 568 0
 3916 15da 4424      		clr r4
 3917 15dc 37FC      		sbrc r3,7
 3918 15de 4094      		com r4
 3919 15e0 542C      		mov r5,r4
 3920 15e2 00C0      		rjmp .L262
 3921               	.LVL315:
 3922               	.L263:
 3923 15e4 C201      		movw r24,r4
 3924 15e6 B101      		movw r22,r2
 3925 15e8 0E94 0000 		call __floatsisf
 3926               	.LVL316:
 3927 15ec F801      		movw r30,r16
 3928 15ee 2281      		ldd r18,Z+2
 3929 15f0 3381      		ldd r19,Z+3
 3930 15f2 4481      		ldd r20,Z+4
 3931 15f4 5581      		ldd r21,Z+5
 3932 15f6 0E94 0000 		call __mulsf3
 3933               	.LVL317:
 3934 15fa AB01      		movw r20,r22
 3935 15fc BC01      		movw r22,r24
 569:/home/anaz/blinkyblocks/build/src-bobby/meldinterp-runtime/core.c **** 	list_float_push_tail(result_list, total);
 3936               		.loc 1 569 0
 3937 15fe C501      		movw r24,r10
 3938 1600 0E94 0000 		call list_float_push_tail
 3939               	.LVL318:
 3940               	.LBE208:
 3941               	.LBB209:
 3942               	.LBB210:
 3943               		.loc 2 80 0
 3944 1604 D801      		movw r26,r16
 3945 1606 0D91      		ld r16,X+
 3946 1608 1C91      		ld r17,X
 3947               	.LVL319:
 3948               	.L262:
 3949               	.LBE210:
 3950               	.LBE209:
 565:/home/anaz/blinkyblocks/build/src-bobby/meldinterp-runtime/core.c ****     for(it = list_get_iterator(start_list); list_iterator_has_next(it);
 3951               		.loc 1 565 0
 3952 160a 0115      		cp r16,__zero_reg__
 3953 160c 1105      		cpc r17,__zero_reg__
 3954 160e 01F4      		brne .L263
 3955               	.LVL320:
 3956               	.L333:
 572:/home/anaz/blinkyblocks/build/src-bobby/meldinterp-runtime/core.c ****     MELD_LIST(acc) = result_list;
 3957               		.loc 1 572 0
 3958 1610 ED85      		ldd r30,Y+13
 3959 1612 FE85      		ldd r31,Y+14
 3960 1614 A082      		st Z,r10
 3961 1616 B182      		std Z+1,r11
 3962 1618 00C0      		rjmp .L259
 3963               	.LVL321:
 3964               	.L247:
 3965               	.LBE211:
 577:/home/anaz/blinkyblocks/build/src-bobby/meldinterp-runtime/core.c ****   assert(0);
 3966               		.loc 1 577 0
 3967 161a 40E0      		ldi r20,lo8(.LC0)
 3968 161c 50E0      		ldi r21,hi8(.LC0)
 3969 161e 61E4      		ldi r22,lo8(65)
 3970 1620 72E0      		ldi r23,lo8(2)
 3971 1622 80E0      		ldi r24,lo8(.LC1)
 3972 1624 90E0      		ldi r25,hi8(.LC1)
 3973 1626 0E94 0000 		call __myassert
 3974               	.LVL322:
 3975               	.L264:
 3976 162a 00C0      		rjmp .L264
 3977               	.LVL323:
 3978               	.L259:
 3979               	.LBE213:
 3980               	.LBE198:
 635:/home/anaz/blinkyblocks/build/src-bobby/meldinterp-runtime/core.c ****   size_t size_offset = TYPE_FIELD_SIZE + TYPE_ARG_OFFSET(type, agg_field) + TYPE_ARG_SIZE(type, agg
 3981               		.loc 1 635 0
 3982 162c 8091 0000 		lds r24,arguments
 3983 1630 9091 0000 		lds r25,arguments+1
 3984 1634 DC01      		movw r26,r24
 3985 1636 AE0D      		add r26,r14
 3986 1638 BF1D      		adc r27,r15
 3987 163a 2C91      		ld r18,X
 3988 163c F301      		movw r30,r6
 3989 163e E20F      		add r30,r18
 3990 1640 F11D      		adc r31,__zero_reg__
 3991 1642 E80F      		add r30,r24
 3992 1644 F91F      		adc r31,r25
 3993 1646 0181      		ldd r16,Z+1
 3994 1648 10E0      		ldi r17,0
 3995 164a 0F5F      		subi r16,-1
 3996 164c 1F4F      		sbci r17,-1
 3997 164e 8081      		ld r24,Z
 3998 1650 080F      		add r16,r24
 3999 1652 111D      		adc r17,__zero_reg__
 4000               	.LVL324:
 636:/home/anaz/blinkyblocks/build/src-bobby/meldinterp-runtime/core.c ****   size_t total_copy = TYPE_SIZE(type) - size_offset;
 4001               		.loc 1 636 0
 4002 1654 1196      		adiw r26,1
 4003 1656 4C90      		ld r4,X
 4004 1658 512C      		mov r5,__zero_reg__
 4005 165a 401A      		sub r4,r16
 4006 165c 510A      		sbc r5,r17
 4007               	.LVL325:
 639:/home/anaz/blinkyblocks/build/src-bobby/meldinterp-runtime/core.c ****   if (total_copy > 0)
 4008               		.loc 1 639 0
 4009 165e 01F4      		brne .L312
 637:/home/anaz/blinkyblocks/build/src-bobby/meldinterp-runtime/core.c ****   tuple_t target_tuple = NULL;
 4010               		.loc 1 637 0
 4011 1660 212C      		mov r2,__zero_reg__
 4012 1662 312C      		mov r3,__zero_reg__
 4013 1664 00C0      		rjmp .L265
 4014               	.L312:
 640:/home/anaz/blinkyblocks/build/src-bobby/meldinterp-runtime/core.c ****     target_tuple = tuple;
 4015               		.loc 1 640 0
 4016 1666 1601      		movw r2,r12
 4017               	.L265:
 4018               	.LVL326:
 642:/home/anaz/blinkyblocks/build/src-bobby/meldinterp-runtime/core.c ****   for (cur = agg_list->next; cur != NULL; cur = cur->next) {
 4019               		.loc 1 642 0
 4020 1668 AA81      		ldd r26,Y+2
 4021 166a BB81      		ldd r27,Y+3
 4022 166c 00C0      		rjmp .L335
 4023               	.LVL327:
 4024               	.L294:
 643:/home/anaz/blinkyblocks/build/src-bobby/meldinterp-runtime/core.c ****     if(aggregate_accumulate(agg_type, accumulator,
 4025               		.loc 1 643 0
 4026 166e F501      		movw r30,r10
 4027 1670 6281      		ldd r22,Z+2
 4028 1672 7381      		ldd r23,Z+3
 644:/home/anaz/blinkyblocks/build/src-bobby/meldinterp-runtime/core.c **** 			    GET_TUPLE_FIELD(cur->tuple, agg_field), cur->records.count))
 4029               		.loc 1 644 0
 4030 1674 2481      		ldd r18,Z+4
 4031 1676 3581      		ldd r19,Z+5
 4032 1678 2A83      		std Y+2,r18
 4033 167a 3B83      		std Y+3,r19
 4034 167c D901      		movw r26,r18
 4035 167e 2C91      		ld r18,X
 4036 1680 FC01      		movw r30,r24
 4037 1682 E20F      		add r30,r18
 4038 1684 F11D      		adc r31,__zero_reg__
 4039 1686 E20F      		add r30,r18
 4040 1688 F11D      		adc r31,__zero_reg__
 4041 168a 2081      		ld r18,Z
 4042 168c FC01      		movw r30,r24
 4043 168e E60D      		add r30,r6
 4044 1690 F71D      		adc r31,r7
 4045 1692 E20F      		add r30,r18
 4046 1694 F11D      		adc r31,__zero_reg__
 4047 1696 C180      		ldd r12,Z+1
 4048 1698 D12C      		mov r13,__zero_reg__
 4049 169a BFEF      		ldi r27,-1
 4050 169c CB1A      		sub r12,r27
 4051 169e DB0A      		sbc r13,r27
 643:/home/anaz/blinkyblocks/build/src-bobby/meldinterp-runtime/core.c ****     if(aggregate_accumulate(agg_type, accumulator,
 4052               		.loc 1 643 0
 4053 16a0 EA81      		ldd r30,Y+2
 4054 16a2 FB81      		ldd r31,Y+3
 4055 16a4 CE0E      		add r12,r30
 4056 16a6 DF1E      		adc r13,r31
 4057               	.LVL328:
 4058               	.LBB214:
 4059               	.LBB215:
 350:/home/anaz/blinkyblocks/build/src-bobby/meldinterp-runtime/core.c ****   switch (agg_type) {
 4060               		.loc 1 350 0
 4061 16a8 F981      		ldd r31,Y+1
 4062 16aa F630      		cpi r31,lo8(6)
 4063 16ac 01F4      		brne .+2
 4064 16ae 00C0      		rjmp .L273
 4065 16b0 00F4      		brsh .L279
 4066 16b2 F330      		cpi r31,lo8(3)
 4067 16b4 01F4      		brne .+2
 4068 16b6 00C0      		rjmp .L270
 4069 16b8 00F4      		brsh .L280
 4070 16ba F130      		cpi r31,lo8(1)
 4071 16bc 01F4      		brne .+2
 4072 16be 00C0      		rjmp .L310
 4073 16c0 F230      		cpi r31,lo8(2)
 4074 16c2 01F0      		breq .+2
 4075 16c4 00C0      		rjmp .L267
 4076 16c6 00C0      		rjmp .L269
 4077               	.L280:
 4078 16c8 2981      		ldd r18,Y+1
 4079 16ca 2430      		cpi r18,lo8(4)
 4080 16cc 01F4      		brne .+2
 4081 16ce 00C0      		rjmp .L271
 4082 16d0 2530      		cpi r18,lo8(5)
 4083 16d2 01F0      		breq .+2
 4084 16d4 00C0      		rjmp .L267
 4085 16d6 00C0      		rjmp .L272
 4086               	.L279:
 4087 16d8 3981      		ldd r19,Y+1
 4088 16da 3930      		cpi r19,lo8(9)
 4089 16dc 01F0      		breq .L276
 4090 16de 00F4      		brsh .L281
 4091 16e0 3730      		cpi r19,lo8(7)
 4092 16e2 01F4      		brne .+2
 4093 16e4 00C0      		rjmp .L274
 4094 16e6 3830      		cpi r19,lo8(8)
 4095 16e8 01F0      		breq .+2
 4096 16ea 00C0      		rjmp .L267
 4097 16ec 00C0      		rjmp .L275
 4098               	.L281:
 4099 16ee 8981      		ldd r24,Y+1
 4100 16f0 8A30      		cpi r24,lo8(10)
 4101 16f2 01F4      		brne .+2
 4102 16f4 00C0      		rjmp .L277
 4103 16f6 8B30      		cpi r24,lo8(11)
 4104 16f8 01F0      		breq .+2
 4105 16fa 00C0      		rjmp .L267
 4106 16fc 00C0      		rjmp .L278
 4107               	.L275:
 4108               	.LBB216:
 352:/home/anaz/blinkyblocks/build/src-bobby/meldinterp-runtime/core.c ****     Set *set = MELD_SET(acc);
 4109               		.loc 1 352 0
 4110 16fe AD85      		ldd r26,Y+13
 4111 1700 BE85      		ldd r27,Y+14
 4112 1702 ED90      		ld r14,X+
 4113 1704 FC90      		ld r15,X
 4114               	.LVL329:
 353:/home/anaz/blinkyblocks/build/src-bobby/meldinterp-runtime/core.c ****     set_int_insert(set, MELD_INT(obj));
 4115               		.loc 1 353 0
 4116 1706 F601      		movw r30,r12
 4117 1708 6081      		ld r22,Z
 4118 170a 7181      		ldd r23,Z+1
 4119               	.LVL330:
 4120 170c C701      		movw r24,r14
 4121 170e 0E94 0000 		call set_int_insert
 4122               	.LVL331:
 4123 1712 00C0      		rjmp .L334
 4124               	.LVL332:
 4125               	.L276:
 4126               	.LBE216:
 4127               	.LBB217:
 358:/home/anaz/blinkyblocks/build/src-bobby/meldinterp-runtime/core.c ****     Set *set = MELD_SET(acc);
 4128               		.loc 1 358 0
 4129 1714 AD85      		ldd r26,Y+13
 4130 1716 BE85      		ldd r27,Y+14
 4131 1718 ED90      		ld r14,X+
 4132 171a FC90      		ld r15,X
 4133               	.LVL333:
 359:/home/anaz/blinkyblocks/build/src-bobby/meldinterp-runtime/core.c ****     set_float_insert(set, MELD_FLOAT(obj));
 4134               		.loc 1 359 0
 4135 171c F601      		movw r30,r12
 4136 171e 4081      		ld r20,Z
 4137 1720 5181      		ldd r21,Z+1
 4138 1722 6281      		ldd r22,Z+2
 4139 1724 7381      		ldd r23,Z+3
 4140 1726 C701      		movw r24,r14
 4141 1728 0E94 0000 		call set_float_insert
 4142               	.LVL334:
 4143               	.L334:
 360:/home/anaz/blinkyblocks/build/src-bobby/meldinterp-runtime/core.c ****     set_print(set);
 4144               		.loc 1 360 0
 4145 172c C701      		movw r24,r14
 4146 172e 0E94 0000 		call set_print
 4147               	.LVL335:
 4148 1732 00C0      		rjmp .L310
 4149               	.LVL336:
 4150               	.L269:
 4151               	.LBE217:
 368:/home/anaz/blinkyblocks/build/src-bobby/meldinterp-runtime/core.c ****     if (MELD_INT(obj) > MELD_INT(acc)) {
 4152               		.loc 1 368 0
 4153 1734 F601      		movw r30,r12
 4154 1736 8081      		ld r24,Z
 4155 1738 9181      		ldd r25,Z+1
 4156 173a A281      		ldd r26,Z+2
 4157 173c B381      		ldd r27,Z+3
 4158 173e ED85      		ldd r30,Y+13
 4159 1740 FE85      		ldd r31,Y+14
 4160 1742 4081      		ld r20,Z
 4161 1744 5181      		ldd r21,Z+1
 4162 1746 6281      		ldd r22,Z+2
 4163 1748 7381      		ldd r23,Z+3
 4164 174a 4817      		cp r20,r24
 4165 174c 5907      		cpc r21,r25
 4166 174e 6A07      		cpc r22,r26
 4167 1750 7B07      		cpc r23,r27
 4168 1752 04F0      		brlt .+2
 4169 1754 00C0      		rjmp .L310
 4170 1756 00C0      		rjmp .L336
 4171               	.L270:
 375:/home/anaz/blinkyblocks/build/src-bobby/meldinterp-runtime/core.c ****     if (MELD_INT(obj) < MELD_INT(acc)) {
 4172               		.loc 1 375 0
 4173 1758 F601      		movw r30,r12
 4174 175a 8081      		ld r24,Z
 4175 175c 9181      		ldd r25,Z+1
 4176 175e A281      		ldd r26,Z+2
 4177 1760 B381      		ldd r27,Z+3
 4178 1762 ED85      		ldd r30,Y+13
 4179 1764 FE85      		ldd r31,Y+14
 4180 1766 4081      		ld r20,Z
 4181 1768 5181      		ldd r21,Z+1
 4182 176a 6281      		ldd r22,Z+2
 4183 176c 7381      		ldd r23,Z+3
 4184 176e 8417      		cp r24,r20
 4185 1770 9507      		cpc r25,r21
 4186 1772 A607      		cpc r26,r22
 4187 1774 B707      		cpc r27,r23
 4188 1776 04F0      		brlt .+2
 4189 1778 00C0      		rjmp .L310
 4190               	.L336:
 376:/home/anaz/blinkyblocks/build/src-bobby/meldinterp-runtime/core.c ****       MELD_INT(acc) = MELD_INT(obj);
 4191               		.loc 1 376 0
 4192 177a 8083      		st Z,r24
 4193 177c 9183      		std Z+1,r25
 4194 177e A283      		std Z+2,r26
 4195 1780 B383      		std Z+3,r27
 4196 1782 00C0      		rjmp .L283
 4197               	.L271:
 382:/home/anaz/blinkyblocks/build/src-bobby/meldinterp-runtime/core.c ****     MELD_INT(acc) += MELD_INT(obj) * count;
 4198               		.loc 1 382 0
 4199 1784 D601      		movw r26,r12
 4200 1786 2D91      		ld r18,X+
 4201 1788 3D91      		ld r19,X+
 4202 178a 4D91      		ld r20,X+
 4203 178c 5C91      		ld r21,X
 4204 178e DB01      		movw r26,r22
 4205 1790 0E94 0000 		call __mulshisi3
 4206               	.LVL337:
 4207 1794 ED85      		ldd r30,Y+13
 4208 1796 FE85      		ldd r31,Y+14
 4209 1798 C080      		ld r12,Z
 4210 179a D180      		ldd r13,Z+1
 4211 179c E280      		ldd r14,Z+2
 4212 179e F380      		ldd r15,Z+3
 4213               	.LVL338:
 4214 17a0 C60E      		add r12,r22
 4215 17a2 D71E      		adc r13,r23
 4216 17a4 E81E      		adc r14,r24
 4217 17a6 F91E      		adc r15,r25
 4218 17a8 C082      		st Z,r12
 4219 17aa D182      		std Z+1,r13
 4220 17ac E282      		std Z+2,r14
 4221 17ae F382      		std Z+3,r15
 4222 17b0 00C0      		rjmp .L310
 4223               	.LVL339:
 4224               	.L272:
 386:/home/anaz/blinkyblocks/build/src-bobby/meldinterp-runtime/core.c ****     if(MELD_FLOAT(obj) > MELD_FLOAT(acc)) {
 4225               		.loc 1 386 0
 4226 17b2 F601      		movw r30,r12
 4227 17b4 C080      		ld r12,Z
 4228 17b6 D180      		ldd r13,Z+1
 4229 17b8 E280      		ldd r14,Z+2
 4230 17ba F380      		ldd r15,Z+3
 4231               	.LVL340:
 4232 17bc AD85      		ldd r26,Y+13
 4233 17be BE85      		ldd r27,Y+14
 4234 17c0 2D91      		ld r18,X+
 4235 17c2 3D91      		ld r19,X+
 4236 17c4 4D91      		ld r20,X+
 4237 17c6 5C91      		ld r21,X
 4238 17c8 C701      		movw r24,r14
 4239 17ca B601      		movw r22,r12
 4240               	.LVL341:
 4241 17cc 0E94 0000 		call __gtsf2
 4242               	.LVL342:
 4243 17d0 1816      		cp __zero_reg__,r24
 4244 17d2 04F0      		brlt .+2
 4245 17d4 00C0      		rjmp .L310
 387:/home/anaz/blinkyblocks/build/src-bobby/meldinterp-runtime/core.c ****       MELD_FLOAT(acc) = MELD_FLOAT(obj);
 4246               		.loc 1 387 0
 4247 17d6 ED85      		ldd r30,Y+13
 4248 17d8 FE85      		ldd r31,Y+14
 4249 17da C082      		st Z,r12
 4250 17dc D182      		std Z+1,r13
 4251 17de E282      		std Z+2,r14
 4252 17e0 F382      		std Z+3,r15
 4253 17e2 00C0      		rjmp .L283
 4254               	.LVL343:
 4255               	.L273:
 393:/home/anaz/blinkyblocks/build/src-bobby/meldinterp-runtime/core.c ****     if(MELD_FLOAT(obj) < MELD_FLOAT(acc)) {
 4256               		.loc 1 393 0
 4257 17e4 D601      		movw r26,r12
 4258 17e6 CD90      		ld r12,X+
 4259 17e8 DD90      		ld r13,X+
 4260 17ea ED90      		ld r14,X+
 4261 17ec FC90      		ld r15,X
 4262               	.LVL344:
 4263 17ee ED85      		ldd r30,Y+13
 4264 17f0 FE85      		ldd r31,Y+14
 4265 17f2 2081      		ld r18,Z
 4266 17f4 3181      		ldd r19,Z+1
 4267 17f6 4281      		ldd r20,Z+2
 4268 17f8 5381      		ldd r21,Z+3
 4269 17fa C701      		movw r24,r14
 4270 17fc B601      		movw r22,r12
 4271               	.LVL345:
 4272 17fe 0E94 0000 		call __ltsf2
 4273               	.LVL346:
 4274 1802 87FF      		sbrs r24,7
 4275 1804 00C0      		rjmp .L310
 394:/home/anaz/blinkyblocks/build/src-bobby/meldinterp-runtime/core.c ****       MELD_FLOAT(acc) = MELD_FLOAT(obj);
 4276               		.loc 1 394 0
 4277 1806 AD85      		ldd r26,Y+13
 4278 1808 BE85      		ldd r27,Y+14
 4279 180a CD92      		st X+,r12
 4280 180c DD92      		st X+,r13
 4281 180e ED92      		st X+,r14
 4282 1810 FC92      		st X,r15
 4283 1812 1397      		sbiw r26,3
 4284 1814 00C0      		rjmp .L283
 4285               	.LVL347:
 4286               	.L274:
 400:/home/anaz/blinkyblocks/build/src-bobby/meldinterp-runtime/core.c ****     MELD_FLOAT(acc) += MELD_FLOAT(obj) * (meld_float)count;
 4287               		.loc 1 400 0
 4288 1816 8827      		clr r24
 4289 1818 77FD      		sbrc r23,7
 4290 181a 8095      		com r24
 4291 181c 982F      		mov r25,r24
 4292               	.LVL348:
 4293 181e 0E94 0000 		call __floatsisf
 4294               	.LVL349:
 4295 1822 F601      		movw r30,r12
 4296 1824 2081      		ld r18,Z
 4297 1826 3181      		ldd r19,Z+1
 4298 1828 4281      		ldd r20,Z+2
 4299 182a 5381      		ldd r21,Z+3
 4300 182c 0E94 0000 		call __mulsf3
 4301               	.LVL350:
 4302 1830 9B01      		movw r18,r22
 4303 1832 AC01      		movw r20,r24
 4304 1834 AD85      		ldd r26,Y+13
 4305 1836 BE85      		ldd r27,Y+14
 4306 1838 6D91      		ld r22,X+
 4307 183a 7D91      		ld r23,X+
 4308 183c 8D91      		ld r24,X+
 4309 183e 9C91      		ld r25,X
 4310 1840 0E94 0000 		call __addsf3
 4311               	.LVL351:
 4312 1844 ED85      		ldd r30,Y+13
 4313 1846 FE85      		ldd r31,Y+14
 4314 1848 6083      		st Z,r22
 4315 184a 7183      		std Z+1,r23
 4316 184c 8283      		std Z+2,r24
 4317 184e 9383      		std Z+3,r25
 4318 1850 00C0      		rjmp .L310
 4319               	.LVL352:
 4320               	.L277:
 4321               	.LBB218:
 404:/home/anaz/blinkyblocks/build/src-bobby/meldinterp-runtime/core.c ****     List *result_list = MELD_LIST(acc);
 4322               		.loc 1 404 0
 4323 1852 ED85      		ldd r30,Y+13
 4324 1854 FE85      		ldd r31,Y+14
 4325 1856 A081      		ld r26,Z
 4326 1858 B181      		ldd r27,Z+1
 4327               	.LVL353:
 405:/home/anaz/blinkyblocks/build/src-bobby/meldinterp-runtime/core.c ****     List *other_list = MELD_LIST(obj);
 4328               		.loc 1 405 0
 4329 185a F601      		movw r30,r12
 4330 185c 2081      		ld r18,Z
 4331 185e 3181      		ldd r19,Z+1
 4332               	.LVL354:
 4333               	.LBE218:
 4334               	.LBE215:
 4335               		.loc 1 1489 0
 4336 1860 1496      		adiw r26,4
 4337 1862 8D91      		ld r24,X+
 4338 1864 9C91      		ld r25,X
 4339 1866 1597      		sbiw r26,4+1
 4340 1868 F901      		movw r30,r18
 4341 186a 4481      		ldd r20,Z+4
 4342 186c 5581      		ldd r21,Z+5
 4343               	.LBB232:
 4344               	.LBB223:
 407:/home/anaz/blinkyblocks/build/src-bobby/meldinterp-runtime/core.c ****     if(list_total(result_list) != list_total(other_list)) {
 4345               		.loc 1 407 0
 4346 186e 8417      		cp r24,r20
 4347 1870 9507      		cpc r25,r21
 4348 1872 01F0      		breq .L287
 408:/home/anaz/blinkyblocks/build/src-bobby/meldinterp-runtime/core.c ****       fprintf(stderr, "lists differ in size for accumulator AGG_SUM_LIST_INT:"
 4349               		.loc 1 408 0
 4350 1874 5F93      		push r21
 4351 1876 4F93      		push r20
 4352 1878 9F93      		push r25
 4353 187a 8F93      		push r24
 4354 187c 80E0      		ldi r24,lo8(.LC10)
 4355 187e 90E0      		ldi r25,hi8(.LC10)
 4356 1880 00C0      		rjmp .L337
 4357               	.L287:
 4358               	.LBE223:
 4359               	.LBE232:
 4360               		.loc 1 1489 0
 4361 1882 ED91      		ld r30,X+
 4362 1884 FC91      		ld r31,X
 4363 1886 EF87      		std Y+15,r30
 4364 1888 F88B      		std Y+16,r31
 4365 188a D901      		movw r26,r18
 4366               	.LVL355:
 4367 188c 0D90      		ld __tmp_reg__,X+
 4368 188e BC91      		ld r27,X
 4369 1890 A02D      		mov r26,__tmp_reg__
 4370 1892 AA83      		std Y+2,r26
 4371 1894 BB83      		std Y+3,r27
 4372               	.LBB233:
 4373               	.LBB224:
 417:/home/anaz/blinkyblocks/build/src-bobby/meldinterp-runtime/core.c ****       list_iterator_int(it_result) += list_iterator_int(it_other) * (meld_int)count;
 4374               		.loc 1 417 0
 4375 1896 6B01      		movw r12,r22
 4376 1898 EE24      		clr r14
 4377 189a D7FC      		sbrc r13,7
 4378 189c E094      		com r14
 4379 189e FE2C      		mov r15,r14
 4380               	.LVL356:
 4381 18a0 00C0      		rjmp .L288
 4382               	.LVL357:
 4383               	.L289:
 4384 18a2 EA81      		ldd r30,Y+2
 4385 18a4 FB81      		ldd r31,Y+3
 4386               	.LVL358:
 4387 18a6 6281      		ldd r22,Z+2
 4388 18a8 7381      		ldd r23,Z+3
 4389 18aa 8481      		ldd r24,Z+4
 4390 18ac 9581      		ldd r25,Z+5
 4391 18ae A701      		movw r20,r14
 4392 18b0 9601      		movw r18,r12
 4393 18b2 0E94 0000 		call __mulsi3
 4394 18b6 EF85      		ldd r30,Y+15
 4395 18b8 F889      		ldd r31,Y+16
 4396 18ba 2281      		ldd r18,Z+2
 4397 18bc 3381      		ldd r19,Z+3
 4398 18be 4481      		ldd r20,Z+4
 4399 18c0 5581      		ldd r21,Z+5
 4400 18c2 260F      		add r18,r22
 4401 18c4 371F      		adc r19,r23
 4402 18c6 481F      		adc r20,r24
 4403 18c8 591F      		adc r21,r25
 4404 18ca 2283      		std Z+2,r18
 4405 18cc 3383      		std Z+3,r19
 4406 18ce 4483      		std Z+4,r20
 4407 18d0 5583      		std Z+5,r21
 4408               	.LVL359:
 4409               	.LBB219:
 4410               	.LBB220:
 4411               		.loc 2 80 0
 4412 18d2 EA81      		ldd r30,Y+2
 4413 18d4 FB81      		ldd r31,Y+3
 4414 18d6 0190      		ld __tmp_reg__,Z+
 4415 18d8 F081      		ld r31,Z
 4416 18da E02D      		mov r30,__tmp_reg__
 4417 18dc EA83      		std Y+2,r30
 4418 18de FB83      		std Y+3,r31
 4419               	.LVL360:
 4420               	.LBE220:
 4421               	.LBE219:
 4422               	.LBB221:
 4423               	.LBB222:
 4424 18e0 EF85      		ldd r30,Y+15
 4425 18e2 F889      		ldd r31,Y+16
 4426 18e4 0190      		ld __tmp_reg__,Z+
 4427 18e6 F081      		ld r31,Z
 4428 18e8 E02D      		mov r30,__tmp_reg__
 4429 18ea EF87      		std Y+15,r30
 4430 18ec F88B      		std Y+16,r31
 4431               	.LVL361:
 4432               	.L288:
 4433               	.LBE222:
 4434               	.LBE221:
 416:/home/anaz/blinkyblocks/build/src-bobby/meldinterp-runtime/core.c ****     while(list_iterator_has_next(it_result)) {
 4435               		.loc 1 416 0
 4436 18ee EF85      		ldd r30,Y+15
 4437 18f0 F889      		ldd r31,Y+16
 4438 18f2 EF2B      		or r30,r31
 4439 18f4 01F4      		brne .L289
 4440 18f6 00C0      		rjmp .L310
 4441               	.LVL362:
 4442               	.L278:
 4443               	.LBE224:
 4444               	.LBB225:
 427:/home/anaz/blinkyblocks/build/src-bobby/meldinterp-runtime/core.c ****     List *result_list = MELD_LIST(acc);
 4445               		.loc 1 427 0
 4446 18f8 AD85      		ldd r26,Y+13
 4447 18fa BE85      		ldd r27,Y+14
 4448 18fc 2D91      		ld r18,X+
 4449 18fe 3C91      		ld r19,X
 4450               	.LVL363:
 428:/home/anaz/blinkyblocks/build/src-bobby/meldinterp-runtime/core.c ****     List *other_list = MELD_LIST(obj);
 4451               		.loc 1 428 0
 4452 1900 D601      		movw r26,r12
 4453 1902 ED91      		ld r30,X+
 4454 1904 FC91      		ld r31,X
 4455               	.LVL364:
 4456               	.LBE225:
 4457               	.LBE233:
 4458               		.loc 1 1489 0
 4459 1906 D901      		movw r26,r18
 4460 1908 1496      		adiw r26,4
 4461 190a 8D91      		ld r24,X+
 4462 190c 9C91      		ld r25,X
 4463 190e 1597      		sbiw r26,4+1
 4464 1910 4481      		ldd r20,Z+4
 4465 1912 5581      		ldd r21,Z+5
 4466               	.LBB234:
 4467               	.LBB230:
 430:/home/anaz/blinkyblocks/build/src-bobby/meldinterp-runtime/core.c ****     if(list_total(result_list) != list_total(other_list)) {
 4468               		.loc 1 430 0
 4469 1914 8417      		cp r24,r20
 4470 1916 9507      		cpc r25,r21
 4471 1918 01F0      		breq .L290
 431:/home/anaz/blinkyblocks/build/src-bobby/meldinterp-runtime/core.c ****       fprintf(stderr, "lists differ in size for accumulator AGG_SUM_LIST_FLOAT: "
 4472               		.loc 1 431 0
 4473 191a 5F93      		push r21
 4474 191c 4F93      		push r20
 4475 191e 9F93      		push r25
 4476 1920 8F93      		push r24
 4477 1922 80E0      		ldi r24,lo8(.LC11)
 4478 1924 90E0      		ldi r25,hi8(.LC11)
 4479               	.LVL365:
 4480               	.L337:
 4481 1926 9F93      		push r25
 4482 1928 8F93      		push r24
 4483 192a 8091 0000 		lds r24,__iob+5
 4484 192e 8F93      		push r24
 4485 1930 8091 0000 		lds r24,__iob+4
 4486 1934 8F93      		push r24
 4487 1936 0E94 0000 		call fprintf
 4488               	.LVL366:
 433:/home/anaz/blinkyblocks/build/src-bobby/meldinterp-runtime/core.c ****       exit(1);
 4489               		.loc 1 433 0
 4490 193a 81E0      		ldi r24,lo8(1)
 4491 193c 90E0      		ldi r25,0
 4492 193e 0E94 0000 		call exit
 4493               	.LVL367:
 4494               	.L290:
 4495               	.LBE230:
 4496               	.LBE234:
 4497               		.loc 1 1489 0
 4498 1942 D901      		movw r26,r18
 4499 1944 ED90      		ld r14,X+
 4500 1946 FC90      		ld r15,X
 4501 1948 C080      		ld r12,Z
 4502 194a D180      		ldd r13,Z+1
 4503               	.LVL368:
 4504               	.LBB235:
 4505               	.LBB231:
 440:/home/anaz/blinkyblocks/build/src-bobby/meldinterp-runtime/core.c ****       list_iterator_float(it_result) += list_iterator_float(it_other) * (meld_float)count;
 4506               		.loc 1 440 0
 4507 194c CB01      		movw r24,r22
 4508 194e AA27      		clr r26
 4509 1950 97FD      		sbrc r25,7
 4510 1952 A095      		com r26
 4511 1954 BA2F      		mov r27,r26
 4512 1956 8A83      		std Y+2,r24
 4513 1958 9B83      		std Y+3,r25
 4514 195a AC83      		std Y+4,r26
 4515 195c BD83      		std Y+5,r27
 4516 195e 00C0      		rjmp .L291
 4517               	.LVL369:
 4518               	.L292:
 4519 1960 6A81      		ldd r22,Y+2
 4520 1962 7B81      		ldd r23,Y+3
 4521 1964 8C81      		ldd r24,Y+4
 4522 1966 9D81      		ldd r25,Y+5
 4523 1968 0E94 0000 		call __floatsisf
 4524               	.LVL370:
 4525 196c D601      		movw r26,r12
 4526 196e 1296      		adiw r26,2
 4527 1970 2D91      		ld r18,X+
 4528 1972 3D91      		ld r19,X+
 4529 1974 4D91      		ld r20,X+
 4530 1976 5C91      		ld r21,X
 4531 1978 1597      		sbiw r26,2+3
 4532 197a 0E94 0000 		call __mulsf3
 4533               	.LVL371:
 4534 197e 9B01      		movw r18,r22
 4535 1980 AC01      		movw r20,r24
 4536 1982 F701      		movw r30,r14
 4537 1984 6281      		ldd r22,Z+2
 4538 1986 7381      		ldd r23,Z+3
 4539 1988 8481      		ldd r24,Z+4
 4540 198a 9581      		ldd r25,Z+5
 4541 198c 0E94 0000 		call __addsf3
 4542               	.LVL372:
 4543 1990 D701      		movw r26,r14
 4544 1992 1296      		adiw r26,2
 4545 1994 6D93      		st X+,r22
 4546 1996 7D93      		st X+,r23
 4547 1998 8D93      		st X+,r24
 4548 199a 9C93      		st X,r25
 4549 199c 1597      		sbiw r26,2+3
 4550               	.LBB226:
 4551               	.LBB227:
 4552               		.loc 2 80 0
 4553 199e ED90      		ld r14,X+
 4554 19a0 FC90      		ld r15,X
 4555               	.LVL373:
 4556               	.LBE227:
 4557               	.LBE226:
 4558               	.LBB228:
 4559               	.LBB229:
 4560 19a2 F601      		movw r30,r12
 4561 19a4 C080      		ld r12,Z
 4562 19a6 D180      		ldd r13,Z+1
 4563               	.LVL374:
 4564               	.L291:
 4565               	.LBE229:
 4566               	.LBE228:
 439:/home/anaz/blinkyblocks/build/src-bobby/meldinterp-runtime/core.c ****     while(list_iterator_has_next(it_result)) {
 4567               		.loc 1 439 0
 4568 19a8 E114      		cp r14,__zero_reg__
 4569 19aa F104      		cpc r15,__zero_reg__
 4570 19ac 01F4      		brne .L292
 4571 19ae 00C0      		rjmp .L310
 4572               	.LVL375:
 4573               	.L267:
 4574               	.LBE231:
 450:/home/anaz/blinkyblocks/build/src-bobby/meldinterp-runtime/core.c ****   assert(0);
 4575               		.loc 1 450 0
 4576 19b0 40E0      		ldi r20,lo8(.LC0)
 4577 19b2 50E0      		ldi r21,hi8(.LC0)
 4578 19b4 62EC      		ldi r22,lo8(-62)
 4579 19b6 71E0      		ldi r23,lo8(1)
 4580               	.LVL376:
 4581 19b8 80E0      		ldi r24,lo8(.LC1)
 4582 19ba 90E0      		ldi r25,hi8(.LC1)
 4583 19bc 0E94 0000 		call __myassert
 4584               	.LVL377:
 4585               	.L293:
 4586 19c0 00C0      		rjmp .L293
 4587               	.LVL378:
 4588               	.L310:
 4589               	.LBE235:
 4590               	.LBE214:
 642:/home/anaz/blinkyblocks/build/src-bobby/meldinterp-runtime/core.c ****   for (cur = agg_list->next; cur != NULL; cur = cur->next) {
 4591               		.loc 1 642 0
 4592 19c2 D501      		movw r26,r10
 4593               	.LVL379:
 4594               	.L335:
 4595 19c4 AD90      		ld r10,X+
 4596 19c6 BC90      		ld r11,X
 4597               	.LVL380:
 4598 19c8 8091 0000 		lds r24,arguments
 4599 19cc 9091 0000 		lds r25,arguments+1
 4600 19d0 A114      		cp r10,__zero_reg__
 4601 19d2 B104      		cpc r11,__zero_reg__
 4602 19d4 01F0      		breq .+2
 4603 19d6 00C0      		rjmp .L294
 648:/home/anaz/blinkyblocks/build/src-bobby/meldinterp-runtime/core.c ****   void *acc_area = GET_TUPLE_FIELD(agg->tuple, agg_field);
 4604               		.loc 1 648 0
 4605 19d8 F401      		movw r30,r8
 4606 19da A481      		ldd r26,Z+4
 4607 19dc B581      		ldd r27,Z+5
 4608 19de 2C91      		ld r18,X
 4609 19e0 FC01      		movw r30,r24
 4610 19e2 E20F      		add r30,r18
 4611 19e4 F11D      		adc r31,__zero_reg__
 4612 19e6 E20F      		add r30,r18
 4613 19e8 F11D      		adc r31,__zero_reg__
 4614 19ea 2081      		ld r18,Z
 4615 19ec FC01      		movw r30,r24
 4616 19ee E60D      		add r30,r6
 4617 19f0 F71D      		adc r31,r7
 4618 19f2 E20F      		add r30,r18
 4619 19f4 F11D      		adc r31,__zero_reg__
 4620 19f6 E180      		ldd r14,Z+1
 4621 19f8 F12C      		mov r15,__zero_reg__
 4622 19fa FFEF      		ldi r31,-1
 4623 19fc EF1A      		sub r14,r31
 4624 19fe FF0A      		sbc r15,r31
 4625 1a00 EA0E      		add r14,r26
 4626 1a02 FB1E      		adc r15,r27
 4627               	.LVL381:
 650:/home/anaz/blinkyblocks/build/src-bobby/meldinterp-runtime/core.c ****   if(first_run)
 4628               		.loc 1 650 0
 4629 1a04 2C85      		ldd r18,Y+12
 4630 1a06 2223      		tst r18
 4631 1a08 01F0      		breq .L295
 651:/home/anaz/blinkyblocks/build/src-bobby/meldinterp-runtime/core.c ****     memcpy(acc_area, accumulator, size);
 4632               		.loc 1 651 0
 4633 1a0a 4E81      		ldd r20,Y+6
 4634 1a0c 50E0      		ldi r21,0
 4635 1a0e 6D85      		ldd r22,Y+13
 4636 1a10 7E85      		ldd r23,Y+14
 4637 1a12 C701      		movw r24,r14
 4638 1a14 0E94 0000 		call memcpy
 4639               	.LVL382:
 4640 1a18 00C0      		rjmp .L296
 4641               	.L295:
 4642               	.LVL383:
 4643               	.LBB236:
 4644               	.LBB237:
 457:/home/anaz/blinkyblocks/build/src-bobby/meldinterp-runtime/core.c ****   switch(agg_type) {
 4645               		.loc 1 457 0
 4646 1a1a 3981      		ldd r19,Y+1
 4647 1a1c 3830      		cpi r19,lo8(8)
 4648 1a1e 00F4      		brsh .L303
 4649 1a20 3530      		cpi r19,lo8(5)
 4650 1a22 00F4      		brsh .L300
 4651 1a24 3130      		cpi r19,lo8(1)
 4652 1a26 01F4      		brne .+2
 4653 1a28 00C0      		rjmp .L296
 4654 1a2a 00F4      		brsh .+2
 4655 1a2c 00C0      		rjmp .L297
 4656 1a2e 00C0      		rjmp .L331
 4657               	.L303:
 4658 1a30 8981      		ldd r24,Y+1
 4659 1a32 8A30      		cpi r24,lo8(10)
 4660 1a34 00F0      		brlo .L301
 4661 1a36 8C30      		cpi r24,lo8(12)
 4662 1a38 00F0      		brlo .+2
 4663 1a3a 00C0      		rjmp .L297
 4664 1a3c 00C0      		rjmp .L332
 4665               	.L331:
 464:/home/anaz/blinkyblocks/build/src-bobby/meldinterp-runtime/core.c ****     return MELD_INT(v1) != MELD_INT(v2);
 4666               		.loc 1 464 0
 4667 1a3e D701      		movw r26,r14
 4668 1a40 4D91      		ld r20,X+
 4669 1a42 5D91      		ld r21,X+
 4670 1a44 6D91      		ld r22,X+
 4671 1a46 7C91      		ld r23,X
 4672 1a48 ED85      		ldd r30,Y+13
 4673 1a4a FE85      		ldd r31,Y+14
 4674 1a4c 8081      		ld r24,Z
 4675 1a4e 9181      		ldd r25,Z+1
 4676 1a50 A281      		ldd r26,Z+2
 4677 1a52 B381      		ldd r27,Z+3
 4678 1a54 4817      		cp r20,r24
 4679 1a56 5907      		cpc r21,r25
 4680 1a58 6A07      		cpc r22,r26
 4681 1a5a 7B07      		cpc r23,r27
 4682 1a5c 01F4      		brne .L311
 4683 1a5e 00C0      		rjmp .L296
 4684               	.L300:
 469:/home/anaz/blinkyblocks/build/src-bobby/meldinterp-runtime/core.c ****     return MELD_FLOAT(v1) != MELD_FLOAT(v2);
 4685               		.loc 1 469 0
 4686 1a60 AD85      		ldd r26,Y+13
 4687 1a62 BE85      		ldd r27,Y+14
 4688 1a64 2D91      		ld r18,X+
 4689 1a66 3D91      		ld r19,X+
 4690 1a68 4D91      		ld r20,X+
 4691 1a6a 5C91      		ld r21,X
 4692 1a6c F701      		movw r30,r14
 4693 1a6e 6081      		ld r22,Z
 4694 1a70 7181      		ldd r23,Z+1
 4695 1a72 8281      		ldd r24,Z+2
 4696 1a74 9381      		ldd r25,Z+3
 4697 1a76 0E94 0000 		call __nesf2
 4698               	.LVL384:
 4699 1a7a 8111      		cpse r24,__zero_reg__
 4700 1a7c 00C0      		rjmp .L311
 4701 1a7e 00C0      		rjmp .L296
 4702               	.L301:
 4703               	.LVL385:
 4704               	.LBB238:
 474:/home/anaz/blinkyblocks/build/src-bobby/meldinterp-runtime/core.c ****     Set *setNew = MELD_SET(v2);
 4705               		.loc 1 474 0
 4706 1a80 AD85      		ldd r26,Y+13
 4707 1a82 BE85      		ldd r27,Y+14
 4708 1a84 CD90      		ld r12,X+
 4709 1a86 DC90      		ld r13,X
 4710               	.LVL386:
 476:/home/anaz/blinkyblocks/build/src-bobby/meldinterp-runtime/core.c ****     if(!set_equal(setOld, setNew))
 4711               		.loc 1 476 0
 4712 1a88 B601      		movw r22,r12
 4713 1a8a F701      		movw r30,r14
 4714 1a8c 8081      		ld r24,Z
 4715 1a8e 9181      		ldd r25,Z+1
 4716 1a90 0E94 0000 		call set_equal
 4717               	.LVL387:
 4718 1a94 892B      		or r24,r25
 4719 1a96 01F0      		breq .L311
 480:/home/anaz/blinkyblocks/build/src-bobby/meldinterp-runtime/core.c ****     set_delete(setNew);
 4720               		.loc 1 480 0
 4721 1a98 C601      		movw r24,r12
 4722 1a9a 0E94 0000 		call set_delete
 4723               	.LVL388:
 4724 1a9e 00C0      		rjmp .L296
 4725               	.LVL389:
 4726               	.L332:
 4727               	.LBE238:
 4728               	.LBB239:
 488:/home/anaz/blinkyblocks/build/src-bobby/meldinterp-runtime/core.c ****     List *listNew = MELD_LIST(v2);
 4729               		.loc 1 488 0
 4730 1aa0 AD85      		ldd r26,Y+13
 4731 1aa2 BE85      		ldd r27,Y+14
 4732 1aa4 CD90      		ld r12,X+
 4733 1aa6 DC90      		ld r13,X
 4734               	.LVL390:
 490:/home/anaz/blinkyblocks/build/src-bobby/meldinterp-runtime/core.c ****     if(!list_equal(listOld, listNew))
 4735               		.loc 1 490 0
 4736 1aa8 B601      		movw r22,r12
 4737 1aaa F701      		movw r30,r14
 4738 1aac 8081      		ld r24,Z
 4739 1aae 9181      		ldd r25,Z+1
 4740 1ab0 0E94 0000 		call list_equal
 4741               	.LVL391:
 4742 1ab4 892B      		or r24,r25
 4743 1ab6 01F0      		breq .L311
 494:/home/anaz/blinkyblocks/build/src-bobby/meldinterp-runtime/core.c ****     list_delete(listNew);
 4744               		.loc 1 494 0
 4745 1ab8 C601      		movw r24,r12
 4746 1aba 0E94 0000 		call list_delete
 4747               	.LVL392:
 4748 1abe 00C0      		rjmp .L296
 4749               	.LVL393:
 4750               	.L297:
 4751               	.LBE239:
 500:/home/anaz/blinkyblocks/build/src-bobby/meldinterp-runtime/core.c ****     assert(0);
 4752               		.loc 1 500 0
 4753 1ac0 40E0      		ldi r20,lo8(.LC0)
 4754 1ac2 50E0      		ldi r21,hi8(.LC0)
 4755 1ac4 64EF      		ldi r22,lo8(-12)
 4756 1ac6 71E0      		ldi r23,lo8(1)
 4757 1ac8 80E0      		ldi r24,lo8(.LC1)
 4758 1aca 90E0      		ldi r25,hi8(.LC1)
 4759 1acc 0E94 0000 		call __myassert
 4760               	.LVL394:
 4761               	.L311:
 4762               	.LBE237:
 4763               	.LBE236:
 653:/home/anaz/blinkyblocks/build/src-bobby/meldinterp-runtime/core.c ****     tuple_process(agg->tuple, TYPE_START(type), -1, reg);
 4764               		.loc 1 653 0
 4765 1ad0 AF80      		ldd r10,Y+7
 4766 1ad2 B884      		ldd r11,Y+8
 4767               	.LVL395:
 4768 1ad4 20E0      		ldi r18,lo8(meld_prog)
 4769 1ad6 30E0      		ldi r19,hi8(meld_prog)
 4770 1ad8 A20E      		add r10,r18
 4771 1ada B31E      		adc r11,r19
 4772 1adc D501      		movw r26,r10
 4773 1ade 6D91      		ld r22,X+
 4774 1ae0 7C91      		ld r23,X
 4775 1ae2 620F      		add r22,r18
 4776 1ae4 731F      		adc r23,r19
 4777 1ae6 2A85      		ldd r18,Y+10
 4778 1ae8 3B85      		ldd r19,Y+11
 4779 1aea 4FEF      		ldi r20,lo8(-1)
 4780 1aec 5FEF      		ldi r21,lo8(-1)
 4781 1aee F401      		movw r30,r8
 4782 1af0 8481      		ldd r24,Z+4
 4783 1af2 9581      		ldd r25,Z+5
 4784 1af4 0E94 0000 		call tuple_process
 4785               	.LVL396:
 654:/home/anaz/blinkyblocks/build/src-bobby/meldinterp-runtime/core.c ****     aggregate_free(agg->tuple, agg_field, agg_type);
 4786               		.loc 1 654 0
 4787 1af8 4981      		ldd r20,Y+1
 4788 1afa 6985      		ldd r22,Y+9
 4789 1afc D401      		movw r26,r8
 4790 1afe 1496      		adiw r26,4
 4791 1b00 8D91      		ld r24,X+
 4792 1b02 9C91      		ld r25,X
 4793 1b04 1597      		sbiw r26,4+1
 4794 1b06 0E94 0000 		call aggregate_free
 4795               	.LVL397:
 655:/home/anaz/blinkyblocks/build/src-bobby/meldinterp-runtime/core.c ****     memcpy(acc_area, accumulator, size);
 4796               		.loc 1 655 0
 4797 1b0a 4E81      		ldd r20,Y+6
 4798 1b0c 50E0      		ldi r21,0
 4799 1b0e 6D85      		ldd r22,Y+13
 4800 1b10 7E85      		ldd r23,Y+14
 4801 1b12 C701      		movw r24,r14
 4802 1b14 0E94 0000 		call memcpy
 4803               	.LVL398:
 656:/home/anaz/blinkyblocks/build/src-bobby/meldinterp-runtime/core.c ****     if (total_copy > 0) /* copy right side from target tuple */
 4804               		.loc 1 656 0
 4805 1b18 4114      		cp r4,__zero_reg__
 4806 1b1a 5104      		cpc r5,__zero_reg__
 4807 1b1c 01F0      		breq .L309
 657:/home/anaz/blinkyblocks/build/src-bobby/meldinterp-runtime/core.c ****       memcpy(((unsigned char *)agg->tuple) + size_offset, ((unsigned char *)target_tuple) + size_of
 4808               		.loc 1 657 0
 4809 1b1e F401      		movw r30,r8
 4810 1b20 2481      		ldd r18,Z+4
 4811 1b22 3581      		ldd r19,Z+5
 4812 1b24 200F      		add r18,r16
 4813 1b26 311F      		adc r19,r17
 4814 1b28 020D      		add r16,r2
 4815 1b2a 131D      		adc r17,r3
 4816               	.LVL399:
 4817 1b2c A201      		movw r20,r4
 4818 1b2e B801      		movw r22,r16
 4819 1b30 C901      		movw r24,r18
 4820 1b32 0E94 0000 		call memcpy
 4821               	.LVL400:
 4822               	.L309:
 658:/home/anaz/blinkyblocks/build/src-bobby/meldinterp-runtime/core.c ****     tuple_process(agg->tuple, TYPE_START(type), 1, reg);
 4823               		.loc 1 658 0
 4824 1b36 D501      		movw r26,r10
 4825 1b38 6D91      		ld r22,X+
 4826 1b3a 7C91      		ld r23,X
 4827 1b3c 6050      		subi r22,lo8(-(meld_prog))
 4828 1b3e 7040      		sbci r23,hi8(-(meld_prog))
 4829 1b40 2A85      		ldd r18,Y+10
 4830 1b42 3B85      		ldd r19,Y+11
 4831 1b44 41E0      		ldi r20,lo8(1)
 4832 1b46 50E0      		ldi r21,0
 4833 1b48 F401      		movw r30,r8
 4834 1b4a 8481      		ldd r24,Z+4
 4835 1b4c 9581      		ldd r25,Z+5
 4836 1b4e 0E94 0000 		call tuple_process
 4837               	.LVL401:
 4838               	.L296:
 661:/home/anaz/blinkyblocks/build/src-bobby/meldinterp-runtime/core.c ****   free(accumulator);
 4839               		.loc 1 661 0
 4840 1b52 8D85      		ldd r24,Y+13
 4841 1b54 9E85      		ldd r25,Y+14
 4842               	/* epilogue start */
 662:/home/anaz/blinkyblocks/build/src-bobby/meldinterp-runtime/core.c **** }
 4843               		.loc 1 662 0
 4844 1b56 6096      		adiw r28,16
 4845 1b58 CDBF      		out __SP_L__,r28
 4846 1b5a DEBF      		out __SP_H__,r29
 4847 1b5c DF91      		pop r29
 4848 1b5e CF91      		pop r28
 4849 1b60 1F91      		pop r17
 4850 1b62 0F91      		pop r16
 4851 1b64 FF90      		pop r15
 4852 1b66 EF90      		pop r14
 4853               	.LVL402:
 4854 1b68 DF90      		pop r13
 4855 1b6a CF90      		pop r12
 4856 1b6c BF90      		pop r11
 4857 1b6e AF90      		pop r10
 4858 1b70 9F90      		pop r9
 4859 1b72 8F90      		pop r8
 4860               	.LVL403:
 4861 1b74 7F90      		pop r7
 4862 1b76 6F90      		pop r6
 4863 1b78 5F90      		pop r5
 4864 1b7a 4F90      		pop r4
 4865               	.LVL404:
 4866 1b7c 3F90      		pop r3
 4867 1b7e 2F90      		pop r2
 4868               	.LVL405:
 661:/home/anaz/blinkyblocks/build/src-bobby/meldinterp-runtime/core.c ****   free(accumulator);
 4869               		.loc 1 661 0
 4870 1b80 0C94 0000 		jmp free
 4871               	.LVL406:
 4872               	.L283:
 645:/home/anaz/blinkyblocks/build/src-bobby/meldinterp-runtime/core.c ****       target_tuple = cur->tuple;
 4873               		.loc 1 645 0
 4874 1b84 2A80      		ldd r2,Y+2
 4875 1b86 3B80      		ldd r3,Y+3
 4876 1b88 00C0      		rjmp .L310
 4877               	.LFE37:
 4879               		.section	.rodata.str1.1
 4880               	.LC12:
 4881 0133 556E 7265 		.string	"Unrecognized type: %d\n"
 4881      636F 676E 
 4881      697A 6564 
 4881      2074 7970 
 4881      653A 2025 
 4882               	.LC13:
 4883 014a 6D65 6C64 		.string	"meld: persistent types can't be deleted\n"
 4883      3A20 7065 
 4883      7273 6973 
 4883      7465 6E74 
 4883      2074 7970 
 4884               		.text
 4885               	.global	tuple_do_handle
 4887               	tuple_do_handle:
 4888               	.LFB40:
 718:/home/anaz/blinkyblocks/build/src-bobby/meldinterp-runtime/core.c **** {
 4889               		.loc 1 718 0
 4890               	.LVL407:
 4891 1b8a 2F92      		push r2
 4892               	.LCFI96:
 4893 1b8c 3F92      		push r3
 4894               	.LCFI97:
 4895 1b8e 4F92      		push r4
 4896               	.LCFI98:
 4897 1b90 5F92      		push r5
 4898               	.LCFI99:
 4899 1b92 6F92      		push r6
 4900               	.LCFI100:
 4901 1b94 7F92      		push r7
 4902               	.LCFI101:
 4903 1b96 8F92      		push r8
 4904               	.LCFI102:
 4905 1b98 9F92      		push r9
 4906               	.LCFI103:
 4907 1b9a AF92      		push r10
 4908               	.LCFI104:
 4909 1b9c BF92      		push r11
 4910               	.LCFI105:
 4911 1b9e CF92      		push r12
 4912               	.LCFI106:
 4913 1ba0 DF92      		push r13
 4914               	.LCFI107:
 4915 1ba2 EF92      		push r14
 4916               	.LCFI108:
 4917 1ba4 FF92      		push r15
 4918               	.LCFI109:
 4919 1ba6 0F93      		push r16
 4920               	.LCFI110:
 4921 1ba8 1F93      		push r17
 4922               	.LCFI111:
 4923 1baa CF93      		push r28
 4924               	.LCFI112:
 4925 1bac DF93      		push r29
 4926               	.LCFI113:
 4927 1bae CDB7      		in r28,__SP_L__
 4928 1bb0 DEB7      		in r29,__SP_H__
 4929               	.LCFI114:
 4930 1bb2 6697      		sbiw r28,22
 4931               	.LCFI115:
 4932 1bb4 CDBF      		out __SP_L__,r28
 4933 1bb6 DEBF      		out __SP_H__,r29
 4934               	/* prologue: function */
 4935               	/* frame size = 22 */
 4936               	/* stack size = 40 */
 4937               	.L__stack_usage = 40
 4938 1bb8 8C01      		movw r16,r24
 4939 1bba 1B01      		movw r2,r22
 4940 1bbc 2A01      		movw r4,r20
 4941 1bbe 2987      		std Y+9,r18
 4942 1bc0 3A87      		std Y+10,r19
 719:/home/anaz/blinkyblocks/build/src-bobby/meldinterp-runtime/core.c ****   if(TYPE_IS_PROVED(type)) {
 4943               		.loc 1 719 0
 4944 1bc2 FC01      		movw r30,r24
 4945 1bc4 E050      		subi r30,lo8(-(meld_prog))
 4946 1bc6 F040      		sbci r31,hi8(-(meld_prog))
 4947 1bc8 8181      		ldd r24,Z+1
 4948               	.LVL408:
 4949 1bca 282F      		mov r18,r24
 4950               	.LVL409:
 4951 1bcc 30E0      		ldi r19,0
 4952 1bce 2D87      		std Y+13,r18
 4953 1bd0 3E87      		std Y+14,r19
 4954 1bd2 4901      		movw r8,r18
 4955 1bd4 80E0      		ldi r24,lo8(meld_prog+2)
 4956 1bd6 90E0      		ldi r25,hi8(meld_prog+2)
 4957 1bd8 880E      		add r8,r24
 4958 1bda 991E      		adc r9,r25
 4959 1bdc D401      		movw r26,r8
 4960 1bde 8C91      		ld r24,X
 4961 1be0 86FF      		sbrs r24,6
 4962 1be2 00C0      		rjmp .L340
 4963               	.LBB259:
 720:/home/anaz/blinkyblocks/build/src-bobby/meldinterp-runtime/core.c ****     PROVED[type] += (meld_int)isNew;
 4964               		.loc 1 720 0
 4965 1be4 C801      		movw r24,r16
 4966 1be6 880F      		lsl r24
 4967 1be8 991F      		rol r25
 4968 1bea 880F      		lsl r24
 4969 1bec 991F      		rol r25
 4970 1bee E091 0000 		lds r30,proved
 4971 1bf2 F091 0000 		lds r31,proved+1
 4972 1bf6 E80F      		add r30,r24
 4973 1bf8 F91F      		adc r31,r25
 4974 1bfa C201      		movw r24,r4
 4975 1bfc AA27      		clr r26
 4976 1bfe 97FD      		sbrc r25,7
 4977 1c00 A095      		com r26
 4978 1c02 BA2F      		mov r27,r26
 4979 1c04 4081      		ld r20,Z
 4980 1c06 5181      		ldd r21,Z+1
 4981 1c08 6281      		ldd r22,Z+2
 4982 1c0a 7381      		ldd r23,Z+3
 4983               	.LVL410:
 4984 1c0c 840F      		add r24,r20
 4985 1c0e 951F      		adc r25,r21
 4986 1c10 A61F      		adc r26,r22
 4987 1c12 B71F      		adc r27,r23
 4988 1c14 8083      		st Z,r24
 4989 1c16 9183      		std Z+1,r25
 4990 1c18 A283      		std Z+2,r26
 4991 1c1a B383      		std Z+3,r27
 4992               	.LVL411:
 4993 1c1c 8D83      		std Y+5,r24
 4994 1c1e 9E83      		std Y+6,r25
 4995 1c20 AF83      		std Y+7,r26
 4996 1c22 B887      		std Y+8,r27
 4997               	.LVL412:
 4998               	.LBB260:
 4999               	.LBB261:
 708:/home/anaz/blinkyblocks/build/src-bobby/meldinterp-runtime/core.c ****   tuple_t tuple = tuple_alloc(TYPE_PROVED);
 5000               		.loc 1 708 0
 5001 1c24 C090 0000 		lds r12,TYPE_PROVED
 5002 1c28 D090 0000 		lds r13,TYPE_PROVED+1
 5003               	.LVL413:
 5004               	.LBB262:
 5005               	.LBB263:
 5006               		.file 3 "/home/anaz/blinkyblocks/build/src-bobby/meldinterp-runtime/core.h"
   1:/home/anaz/blinkyblocks/build/src-bobby/meldinterp-runtime/core.h **** #ifndef __CORE_H_
   2:/home/anaz/blinkyblocks/build/src-bobby/meldinterp-runtime/core.h **** #define __CORE_H_
   3:/home/anaz/blinkyblocks/build/src-bobby/meldinterp-runtime/core.h **** 
   4:/home/anaz/blinkyblocks/build/src-bobby/meldinterp-runtime/core.h **** #include <stdlib.h>
   5:/home/anaz/blinkyblocks/build/src-bobby/meldinterp-runtime/core.h **** #include <stdio.h>
   6:/home/anaz/blinkyblocks/build/src-bobby/meldinterp-runtime/core.h **** 
   7:/home/anaz/blinkyblocks/build/src-bobby/meldinterp-runtime/core.h **** #include "api.h"
   8:/home/anaz/blinkyblocks/build/src-bobby/meldinterp-runtime/core.h **** #ifndef IGNORE_IN_PASS1_OFF_COMPILE_BB
   9:/home/anaz/blinkyblocks/build/src-bobby/meldinterp-runtime/core.h **** #include "model.h"
  10:/home/anaz/blinkyblocks/build/src-bobby/meldinterp-runtime/core.h **** #endif
  11:/home/anaz/blinkyblocks/build/src-bobby/meldinterp-runtime/core.h **** 
  12:/home/anaz/blinkyblocks/build/src-bobby/meldinterp-runtime/core.h **** /* print tuple allocations */
  13:/home/anaz/blinkyblocks/build/src-bobby/meldinterp-runtime/core.h **** //#define TUPLE_ALLOC_DEBUG 1
  14:/home/anaz/blinkyblocks/build/src-bobby/meldinterp-runtime/core.h **** /* tuple allocation checks */
  15:/home/anaz/blinkyblocks/build/src-bobby/meldinterp-runtime/core.h **** #define TUPLE_ALLOC_CHECKS 1
  16:/home/anaz/blinkyblocks/build/src-bobby/meldinterp-runtime/core.h **** 
  17:/home/anaz/blinkyblocks/build/src-bobby/meldinterp-runtime/core.h **** /* macros */
  18:/home/anaz/blinkyblocks/build/src-bobby/meldinterp-runtime/core.h **** #define IF(x)     (((*(const unsigned char*)(x))&0xe0) == 0x60)
  19:/home/anaz/blinkyblocks/build/src-bobby/meldinterp-runtime/core.h **** #define ELSE(x)   ((*(const unsigned char*)(x)) == 0x02)
  20:/home/anaz/blinkyblocks/build/src-bobby/meldinterp-runtime/core.h **** #define ITER(x)   (((*(const unsigned char*)(x))&0xff) == 0xa0)
  21:/home/anaz/blinkyblocks/build/src-bobby/meldinterp-runtime/core.h **** #define NEXT(x)   ((*(const unsigned char*)(x)) == 0x01)
  22:/home/anaz/blinkyblocks/build/src-bobby/meldinterp-runtime/core.h **** #define SEND(x)   (((*(const unsigned char*)(x))&0xfc) == 0x08)
  23:/home/anaz/blinkyblocks/build/src-bobby/meldinterp-runtime/core.h **** #define REMOVE(x) (((*(const unsigned char*)(x))&0xe0) == 0x80)
  24:/home/anaz/blinkyblocks/build/src-bobby/meldinterp-runtime/core.h **** #define OP(x)     (((*(const unsigned char*)(x))&0xc0) == 0xc0)
  25:/home/anaz/blinkyblocks/build/src-bobby/meldinterp-runtime/core.h **** #define MOVE(x)   (((*(const unsigned char*)(x))&0xf0) == 0x30)
  26:/home/anaz/blinkyblocks/build/src-bobby/meldinterp-runtime/core.h **** #define ALLOC(x)  (((*(const unsigned char*)(x))&0xe0) == 0x40)
  27:/home/anaz/blinkyblocks/build/src-bobby/meldinterp-runtime/core.h **** #define RETURN(x) ((*(const unsigned char*)(x)) == 0x00)
  28:/home/anaz/blinkyblocks/build/src-bobby/meldinterp-runtime/core.h **** #define CALL(x)   (((*(const unsigned char*)(x)) & 0xf0) == 0x20)
  29:/home/anaz/blinkyblocks/build/src-bobby/meldinterp-runtime/core.h **** 
  30:/home/anaz/blinkyblocks/build/src-bobby/meldinterp-runtime/core.h **** #define IF_REG(x)     ((*(const unsigned char*)(x))&0x1f)
  31:/home/anaz/blinkyblocks/build/src-bobby/meldinterp-runtime/core.h **** #define IF_JUMP(x)    (*(unsigned short*)((const unsigned char*)(x)+1))
  32:/home/anaz/blinkyblocks/build/src-bobby/meldinterp-runtime/core.h **** #define IF_BASE       3
  33:/home/anaz/blinkyblocks/build/src-bobby/meldinterp-runtime/core.h **** 
  34:/home/anaz/blinkyblocks/build/src-bobby/meldinterp-runtime/core.h **** #define ITER_TYPE(x)  ((*(const unsigned char*)((x)+1))&0x7f)
  35:/home/anaz/blinkyblocks/build/src-bobby/meldinterp-runtime/core.h **** #define ITER_JUMP(x)  (*(unsigned short*)((const unsigned char*)((x)+2)))
  36:/home/anaz/blinkyblocks/build/src-bobby/meldinterp-runtime/core.h **** #define ITER_MATCH_END(x)   (((*(const unsigned char*)((x)+1))&0xc0) == 0x40)
  37:/home/anaz/blinkyblocks/build/src-bobby/meldinterp-runtime/core.h **** #define ITER_MATCH_NONE(x)  (((*(const unsigned char*)((x)+1))&0xc0) == 0xc0)
  38:/home/anaz/blinkyblocks/build/src-bobby/meldinterp-runtime/core.h **** #define ITER_MATCH_FIELD(x)   (*(const unsigned char*)(x))
  39:/home/anaz/blinkyblocks/build/src-bobby/meldinterp-runtime/core.h **** #define ITER_BASE     4
  40:/home/anaz/blinkyblocks/build/src-bobby/meldinterp-runtime/core.h **** 
  41:/home/anaz/blinkyblocks/build/src-bobby/meldinterp-runtime/core.h **** #define ITER_MATCH_VAL(x)   (((*(const unsigned char*)((x)+1))&0x3f))
  42:/home/anaz/blinkyblocks/build/src-bobby/meldinterp-runtime/core.h **** #define SEND_MSG(x)   ((((*(const unsigned char*)(x))&0x3) << 3) | \
  43:/home/anaz/blinkyblocks/build/src-bobby/meldinterp-runtime/core.h ****                       (((*(const unsigned char*)((x)+1))&0xe0) >> 5))
  44:/home/anaz/blinkyblocks/build/src-bobby/meldinterp-runtime/core.h **** #define SEND_RT(x)    ((*(const unsigned char*)((x)+1))&0x1f)
  45:/home/anaz/blinkyblocks/build/src-bobby/meldinterp-runtime/core.h **** #define SEND_DELAY(x) (*(const unsigned char *)((x)+2))
  46:/home/anaz/blinkyblocks/build/src-bobby/meldinterp-runtime/core.h **** #define REMOVE_REG(x) ((*(const unsigned char*)(x))&0x1f)
  47:/home/anaz/blinkyblocks/build/src-bobby/meldinterp-runtime/core.h **** 
  48:/home/anaz/blinkyblocks/build/src-bobby/meldinterp-runtime/core.h **** #define SEND_ARG1(x)  ((*((const unsigned char*)(x)+2)) & 0x3f)
  49:/home/anaz/blinkyblocks/build/src-bobby/meldinterp-runtime/core.h **** 
  50:/home/anaz/blinkyblocks/build/src-bobby/meldinterp-runtime/core.h **** #define OP_ARG1(x)    (((*(const unsigned char*)(x)) & 0x3f))
  51:/home/anaz/blinkyblocks/build/src-bobby/meldinterp-runtime/core.h **** #define OP_ARG2(x)    (((*(const unsigned char*)((x)+1)) & 0xfc) >> 2)
  52:/home/anaz/blinkyblocks/build/src-bobby/meldinterp-runtime/core.h **** #define OP_OP(x)      ((*(const unsigned char*)((x)+2)) & 0x1f)
  53:/home/anaz/blinkyblocks/build/src-bobby/meldinterp-runtime/core.h **** #define OP_DST(x)     ((((*(const unsigned char*)((x)+1)) & 0x03) << 3) | \
  54:/home/anaz/blinkyblocks/build/src-bobby/meldinterp-runtime/core.h ****                       (((*(const unsigned char*)((x)+2)) & 0xe0) >> 5))
  55:/home/anaz/blinkyblocks/build/src-bobby/meldinterp-runtime/core.h **** 
  56:/home/anaz/blinkyblocks/build/src-bobby/meldinterp-runtime/core.h **** #define MOVE_SRC(x)   ((((*(const unsigned char*)(x))&0xf) << 2) | \
  57:/home/anaz/blinkyblocks/build/src-bobby/meldinterp-runtime/core.h **** 					   (((*(const unsigned char*)((x)+1))&0xc0) >> 6))
  58:/home/anaz/blinkyblocks/build/src-bobby/meldinterp-runtime/core.h **** #define MOVE_DST(x)   (((*(const unsigned char*)((x)+1))&0x3f))
  59:/home/anaz/blinkyblocks/build/src-bobby/meldinterp-runtime/core.h **** #define ALLOC_TYPE(x) ((((*(const unsigned char *)(x))&0x1f) << 2) | \
  60:/home/anaz/blinkyblocks/build/src-bobby/meldinterp-runtime/core.h **** 					   (((*(const unsigned char *)(x+1))&0xc0) >> 6))
  61:/home/anaz/blinkyblocks/build/src-bobby/meldinterp-runtime/core.h **** #define ALLOC_DST(x)  ((*(const unsigned char *)((x)+1))&0x3f)
  62:/home/anaz/blinkyblocks/build/src-bobby/meldinterp-runtime/core.h **** 
  63:/home/anaz/blinkyblocks/build/src-bobby/meldinterp-runtime/core.h **** #define CALL_VAL(x)   (*(const unsigned char *)(x))
  64:/home/anaz/blinkyblocks/build/src-bobby/meldinterp-runtime/core.h **** #define CALL_DST(x)   ((*(const unsigned char *)((x)+1)) & 0x1f)
  65:/home/anaz/blinkyblocks/build/src-bobby/meldinterp-runtime/core.h **** #define CALL_ID(x)    ((((*(const unsigned char *)((x))) & 0x0f) << 3) | \
  66:/home/anaz/blinkyblocks/build/src-bobby/meldinterp-runtime/core.h **** 						(((*(const unsigned char *)((x)+1)) & 0xe0) >> 5))
  67:/home/anaz/blinkyblocks/build/src-bobby/meldinterp-runtime/core.h **** 
  68:/home/anaz/blinkyblocks/build/src-bobby/meldinterp-runtime/core.h **** #define CALL_ARGS(x)  (extern_functs_args[CALL_ID(x)])
  69:/home/anaz/blinkyblocks/build/src-bobby/meldinterp-runtime/core.h **** #define CALL_FUNC(x)  (extern_functs[CALL_ID(x)])
  70:/home/anaz/blinkyblocks/build/src-bobby/meldinterp-runtime/core.h **** 
  71:/home/anaz/blinkyblocks/build/src-bobby/meldinterp-runtime/core.h **** #define OP_NEQF       0x0
  72:/home/anaz/blinkyblocks/build/src-bobby/meldinterp-runtime/core.h **** #define OP_NEQI       0x1
  73:/home/anaz/blinkyblocks/build/src-bobby/meldinterp-runtime/core.h **** #define OP_EQF        0x2
  74:/home/anaz/blinkyblocks/build/src-bobby/meldinterp-runtime/core.h **** #define OP_EQI        0x3
  75:/home/anaz/blinkyblocks/build/src-bobby/meldinterp-runtime/core.h **** #define OP_LESSF      0x4
  76:/home/anaz/blinkyblocks/build/src-bobby/meldinterp-runtime/core.h **** #define OP_LESSI      0x5
  77:/home/anaz/blinkyblocks/build/src-bobby/meldinterp-runtime/core.h **** #define OP_LESSEQF    0x6
  78:/home/anaz/blinkyblocks/build/src-bobby/meldinterp-runtime/core.h **** #define OP_LESSEQI    0x7
  79:/home/anaz/blinkyblocks/build/src-bobby/meldinterp-runtime/core.h **** #define OP_GREATERF   0x8
  80:/home/anaz/blinkyblocks/build/src-bobby/meldinterp-runtime/core.h **** #define OP_GREATERI   0x9
  81:/home/anaz/blinkyblocks/build/src-bobby/meldinterp-runtime/core.h **** #define OP_GREATEREQF 0xa
  82:/home/anaz/blinkyblocks/build/src-bobby/meldinterp-runtime/core.h **** #define OP_GREATEREQI 0xb
  83:/home/anaz/blinkyblocks/build/src-bobby/meldinterp-runtime/core.h **** #define OP_MODF       0xc
  84:/home/anaz/blinkyblocks/build/src-bobby/meldinterp-runtime/core.h **** #define OP_MODI       0xd
  85:/home/anaz/blinkyblocks/build/src-bobby/meldinterp-runtime/core.h **** #define OP_PLUSF      0xe
  86:/home/anaz/blinkyblocks/build/src-bobby/meldinterp-runtime/core.h **** #define OP_PLUSI      0xf
  87:/home/anaz/blinkyblocks/build/src-bobby/meldinterp-runtime/core.h **** #define OP_MINUSF     0x10
  88:/home/anaz/blinkyblocks/build/src-bobby/meldinterp-runtime/core.h **** #define OP_MINUSI     0x11
  89:/home/anaz/blinkyblocks/build/src-bobby/meldinterp-runtime/core.h **** #define OP_TIMESF     0x12
  90:/home/anaz/blinkyblocks/build/src-bobby/meldinterp-runtime/core.h **** #define OP_TIMESI     0x13
  91:/home/anaz/blinkyblocks/build/src-bobby/meldinterp-runtime/core.h **** #define OP_DIVF       0x14
  92:/home/anaz/blinkyblocks/build/src-bobby/meldinterp-runtime/core.h **** #define OP_DIVI       0x15
  93:/home/anaz/blinkyblocks/build/src-bobby/meldinterp-runtime/core.h **** #define OP_NEQA       0x16
  94:/home/anaz/blinkyblocks/build/src-bobby/meldinterp-runtime/core.h **** #define OP_EQA        0x17
  95:/home/anaz/blinkyblocks/build/src-bobby/meldinterp-runtime/core.h **** 
  96:/home/anaz/blinkyblocks/build/src-bobby/meldinterp-runtime/core.h **** #define VALUE_TYPE_FLOAT 0x00
  97:/home/anaz/blinkyblocks/build/src-bobby/meldinterp-runtime/core.h **** #define VALUE_TYPE_INT 0x01
  98:/home/anaz/blinkyblocks/build/src-bobby/meldinterp-runtime/core.h **** #define VALUE_TYPE_FIELD 0x02
  99:/home/anaz/blinkyblocks/build/src-bobby/meldinterp-runtime/core.h **** #define VALUE_TYPE_HOST 0x03
 100:/home/anaz/blinkyblocks/build/src-bobby/meldinterp-runtime/core.h **** #define VALUE_TYPE_REVERSE 0x04
 101:/home/anaz/blinkyblocks/build/src-bobby/meldinterp-runtime/core.h **** #define VALUE_TYPE_TUPLE 0x1f
 102:/home/anaz/blinkyblocks/build/src-bobby/meldinterp-runtime/core.h **** 
 103:/home/anaz/blinkyblocks/build/src-bobby/meldinterp-runtime/core.h **** #define VAL_IS_REG(x)   (((const unsigned char)(x)) & 0x20)
 104:/home/anaz/blinkyblocks/build/src-bobby/meldinterp-runtime/core.h **** #define VAL_IS_TUPLE(x) (((const unsigned char)(x)) == VALUE_TYPE_TUPLE)
 105:/home/anaz/blinkyblocks/build/src-bobby/meldinterp-runtime/core.h **** #define VAL_IS_FLOAT(x) (((const unsigned char)(x)) == VALUE_TYPE_FLOAT)
 106:/home/anaz/blinkyblocks/build/src-bobby/meldinterp-runtime/core.h **** #define VAL_IS_INT(x)   (((const unsigned char)(x)) == VALUE_TYPE_INT)
 107:/home/anaz/blinkyblocks/build/src-bobby/meldinterp-runtime/core.h **** #define VAL_IS_FIELD(x) (((const unsigned char)(x)) == VALUE_TYPE_FIELD)
 108:/home/anaz/blinkyblocks/build/src-bobby/meldinterp-runtime/core.h **** #define VAL_IS_HOST(x)  (((const unsigned char)(x)) == VALUE_TYPE_HOST)
 109:/home/anaz/blinkyblocks/build/src-bobby/meldinterp-runtime/core.h **** #define VAL_IS_REVERSE(x) (((const unsigned char)(x)) == VALUE_TYPE_REVERSE)
 110:/home/anaz/blinkyblocks/build/src-bobby/meldinterp-runtime/core.h **** 
 111:/home/anaz/blinkyblocks/build/src-bobby/meldinterp-runtime/core.h **** #define VAL_REG(x) (((const unsigned char)(x)) & 0x1f)
 112:/home/anaz/blinkyblocks/build/src-bobby/meldinterp-runtime/core.h **** #define VAL_FIELD_NUM(x) ((*(const unsigned char *)(x)) & 0xff)
 113:/home/anaz/blinkyblocks/build/src-bobby/meldinterp-runtime/core.h **** #define VAL_FIELD_REG(x) ((*(const unsigned char *)((x)+1)) & 0x1f)
 114:/home/anaz/blinkyblocks/build/src-bobby/meldinterp-runtime/core.h **** 
 115:/home/anaz/blinkyblocks/build/src-bobby/meldinterp-runtime/core.h **** #define TYPE_DESCRIPTOR_SIZE 7
 116:/home/anaz/blinkyblocks/build/src-bobby/meldinterp-runtime/core.h **** #define DELTA_SIZE 2
 117:/home/anaz/blinkyblocks/build/src-bobby/meldinterp-runtime/core.h **** #define TYPE_FIELD_SIZE 1
 118:/home/anaz/blinkyblocks/build/src-bobby/meldinterp-runtime/core.h **** #define TYPE_FIELD_TYPE unsigned char
 119:/home/anaz/blinkyblocks/build/src-bobby/meldinterp-runtime/core.h **** 
 120:/home/anaz/blinkyblocks/build/src-bobby/meldinterp-runtime/core.h **** #define TUPLE_TYPE(x)   (*(TYPE_FIELD_TYPE *)(x))
 121:/home/anaz/blinkyblocks/build/src-bobby/meldinterp-runtime/core.h **** #define TUPLE_FIELD(x,off)  ((void *)(((unsigned char*)(x)) + TYPE_FIELD_SIZE + (off)))
 122:/home/anaz/blinkyblocks/build/src-bobby/meldinterp-runtime/core.h **** 
 123:/home/anaz/blinkyblocks/build/src-bobby/meldinterp-runtime/core.h **** #define TYPE_OFFSET(x)     (meld_prog[1 + (x)])
 124:/home/anaz/blinkyblocks/build/src-bobby/meldinterp-runtime/core.h **** #define TYPE_DESCRIPTOR(x) ((unsigned char *)(meld_prog + TYPE_OFFSET(x)))
 125:/home/anaz/blinkyblocks/build/src-bobby/meldinterp-runtime/core.h **** 
 126:/home/anaz/blinkyblocks/build/src-bobby/meldinterp-runtime/core.h **** #define TYPE_PROPERTIES(x) (*(TYPE_DESCRIPTOR(x) + 2))
 127:/home/anaz/blinkyblocks/build/src-bobby/meldinterp-runtime/core.h **** #define TYPE_AGGREGATE(x)  (*(TYPE_DESCRIPTOR(x) + 3))
 128:/home/anaz/blinkyblocks/build/src-bobby/meldinterp-runtime/core.h **** #define TYPE_NOARGS(x)     (*(TYPE_DESCRIPTOR(x) + 5))
 129:/home/anaz/blinkyblocks/build/src-bobby/meldinterp-runtime/core.h **** #define TYPE_STRATIFICATION_ROUND(x) (*(TYPE_DESCRIPTOR(x)+5))
 130:/home/anaz/blinkyblocks/build/src-bobby/meldinterp-runtime/core.h **** #define TYPE_IS_STRATIFIED(x) (TYPE_STRATIFICATION_ROUND(x) > 0)
 131:/home/anaz/blinkyblocks/build/src-bobby/meldinterp-runtime/core.h **** #define TYPE_ARGS_DESC(x)  ((unsigned char*)(TYPE_DESCRIPTOR(x)+TYPE_DESCRIPTOR_SIZE))
 132:/home/anaz/blinkyblocks/build/src-bobby/meldinterp-runtime/core.h **** #define TYPE_NODELTAS(x)   (*(TYPE_DESCRIPTOR(x) + 6))
 133:/home/anaz/blinkyblocks/build/src-bobby/meldinterp-runtime/core.h **** #define TYPE_DELTAS(x)     (TYPE_ARGS_DESC(x) + 1*TYPE_NOARGS(x))
 134:/home/anaz/blinkyblocks/build/src-bobby/meldinterp-runtime/core.h **** #define TYPE_START(x)      ((unsigned char*)(meld_prog + *(unsigned short *)TYPE_DESCRIPTOR(x)))
 135:/home/anaz/blinkyblocks/build/src-bobby/meldinterp-runtime/core.h **** #define TYPE_NAME(x)       (tuple_names[x])
 136:/home/anaz/blinkyblocks/build/src-bobby/meldinterp-runtime/core.h **** #define TYPE_ARG_DESC(x, f) ((unsigned char *)(TYPE_ARGS_DESC(x)+1*(f)))
 137:/home/anaz/blinkyblocks/build/src-bobby/meldinterp-runtime/core.h **** #define TYPE_ARG_TYPE(x, f) ((unsigned char)(*TYPE_ARG_DESC(x, f)))
 138:/home/anaz/blinkyblocks/build/src-bobby/meldinterp-runtime/core.h **** 
 139:/home/anaz/blinkyblocks/build/src-bobby/meldinterp-runtime/core.h **** #define TYPE_SIZE(x)       (arguments[(x) * 2 + 1])
 140:/home/anaz/blinkyblocks/build/src-bobby/meldinterp-runtime/core.h **** #define TYPE_ARGS(x)       (arguments + arguments[(x) * 2])
 141:/home/anaz/blinkyblocks/build/src-bobby/meldinterp-runtime/core.h **** 
 142:/home/anaz/blinkyblocks/build/src-bobby/meldinterp-runtime/core.h **** #define TYPE_ARG(x, f)     (TYPE_ARGS(x)+2*(f))
 143:/home/anaz/blinkyblocks/build/src-bobby/meldinterp-runtime/core.h **** #define TYPE_ARG_SIZE(x, f) (*TYPE_ARG(x, f))
 144:/home/anaz/blinkyblocks/build/src-bobby/meldinterp-runtime/core.h **** #define TYPE_ARG_OFFSET(x, f)   (*(TYPE_ARG(x, f) + 1))
 145:/home/anaz/blinkyblocks/build/src-bobby/meldinterp-runtime/core.h **** 
 146:/home/anaz/blinkyblocks/build/src-bobby/meldinterp-runtime/core.h **** #define SET_TUPLE_FIELD(tuple, field, data) \
 147:/home/anaz/blinkyblocks/build/src-bobby/meldinterp-runtime/core.h **** 		memcpy(TUPLE_FIELD(tuple, TYPE_ARG_OFFSET(TUPLE_TYPE(tuple), field)), \
 148:/home/anaz/blinkyblocks/build/src-bobby/meldinterp-runtime/core.h **** 				data, TYPE_ARG_SIZE(TUPLE_TYPE(tuple), field))
 149:/home/anaz/blinkyblocks/build/src-bobby/meldinterp-runtime/core.h **** #define GET_TUPLE_FIELD(tuple, field) \
 150:/home/anaz/blinkyblocks/build/src-bobby/meldinterp-runtime/core.h **** 		TUPLE_FIELD(tuple, TYPE_ARG_OFFSET(TUPLE_TYPE(tuple), field))
 151:/home/anaz/blinkyblocks/build/src-bobby/meldinterp-runtime/core.h **** #define GET_TUPLE_SIZE(tuple, field) \
 152:/home/anaz/blinkyblocks/build/src-bobby/meldinterp-runtime/core.h **** 		TYPE_ARG_SIZE(TUPLE_TYPE(tuple), field)
 153:/home/anaz/blinkyblocks/build/src-bobby/meldinterp-runtime/core.h **** 		
 154:/home/anaz/blinkyblocks/build/src-bobby/meldinterp-runtime/core.h **** #define TYPE_IS_AGG(x)        (TYPE_PROPERTIES(x) & 0x01)
 155:/home/anaz/blinkyblocks/build/src-bobby/meldinterp-runtime/core.h **** #define TYPE_IS_PERSISTENT(x) (TYPE_PROPERTIES(x) & 0x02)
 156:/home/anaz/blinkyblocks/build/src-bobby/meldinterp-runtime/core.h **** #define TYPE_IS_LINEAR(x) 		(TYPE_PROPERTIES(x) & 0x04)
 157:/home/anaz/blinkyblocks/build/src-bobby/meldinterp-runtime/core.h **** #define TYPE_IS_DELETE(x) 		(TYPE_PROPERTIES(x) & 0x08)
 158:/home/anaz/blinkyblocks/build/src-bobby/meldinterp-runtime/core.h **** #define TYPE_IS_SCHEDULE(x) 	(TYPE_PROPERTIES(x) & 0x10)
 159:/home/anaz/blinkyblocks/build/src-bobby/meldinterp-runtime/core.h **** #define TYPE_IS_ROUTING(x) 		(TYPE_PROPERTIES(x) & 0x20)
 160:/home/anaz/blinkyblocks/build/src-bobby/meldinterp-runtime/core.h **** #define TYPE_IS_PROVED(x)     (TYPE_PROPERTIES(x) & 0x40)
 161:/home/anaz/blinkyblocks/build/src-bobby/meldinterp-runtime/core.h **** 
 162:/home/anaz/blinkyblocks/build/src-bobby/meldinterp-runtime/core.h **** #define AGG_AGG(x)    (((x) & (0xf0)) >> 4)
 163:/home/anaz/blinkyblocks/build/src-bobby/meldinterp-runtime/core.h **** #define AGG_FIELD(x)  ((x) & 0x0f)
 164:/home/anaz/blinkyblocks/build/src-bobby/meldinterp-runtime/core.h **** 
 165:/home/anaz/blinkyblocks/build/src-bobby/meldinterp-runtime/core.h **** #define AGG_NONE 0
 166:/home/anaz/blinkyblocks/build/src-bobby/meldinterp-runtime/core.h **** #define AGG_FIRST 1
 167:/home/anaz/blinkyblocks/build/src-bobby/meldinterp-runtime/core.h **** #define AGG_MAX_INT 2
 168:/home/anaz/blinkyblocks/build/src-bobby/meldinterp-runtime/core.h **** #define AGG_MIN_INT 3
 169:/home/anaz/blinkyblocks/build/src-bobby/meldinterp-runtime/core.h **** #define AGG_SUM_INT 4
 170:/home/anaz/blinkyblocks/build/src-bobby/meldinterp-runtime/core.h **** #define AGG_MAX_FLOAT 5
 171:/home/anaz/blinkyblocks/build/src-bobby/meldinterp-runtime/core.h **** #define AGG_MIN_FLOAT 6
 172:/home/anaz/blinkyblocks/build/src-bobby/meldinterp-runtime/core.h **** #define AGG_SUM_FLOAT 7
 173:/home/anaz/blinkyblocks/build/src-bobby/meldinterp-runtime/core.h **** #define AGG_SET_UNION_INT 8
 174:/home/anaz/blinkyblocks/build/src-bobby/meldinterp-runtime/core.h **** #define AGG_SET_UNION_FLOAT 9
 175:/home/anaz/blinkyblocks/build/src-bobby/meldinterp-runtime/core.h **** #define AGG_SUM_LIST_INT 10
 176:/home/anaz/blinkyblocks/build/src-bobby/meldinterp-runtime/core.h **** #define AGG_SUM_LIST_FLOAT 11
 177:/home/anaz/blinkyblocks/build/src-bobby/meldinterp-runtime/core.h **** 
 178:/home/anaz/blinkyblocks/build/src-bobby/meldinterp-runtime/core.h **** #define FIELD_INT 0x0
 179:/home/anaz/blinkyblocks/build/src-bobby/meldinterp-runtime/core.h **** #define FIELD_FLOAT 0x1
 180:/home/anaz/blinkyblocks/build/src-bobby/meldinterp-runtime/core.h **** #define FIELD_ADDR 0x2
 181:/home/anaz/blinkyblocks/build/src-bobby/meldinterp-runtime/core.h **** #define FIELD_OTHER 0x2
 182:/home/anaz/blinkyblocks/build/src-bobby/meldinterp-runtime/core.h **** #define FIELD_LIST_INT 0x3
 183:/home/anaz/blinkyblocks/build/src-bobby/meldinterp-runtime/core.h **** #define FIELD_LIST_FLOAT 0x4
 184:/home/anaz/blinkyblocks/build/src-bobby/meldinterp-runtime/core.h **** #define FIELD_LIST_ADDR 0x5
 185:/home/anaz/blinkyblocks/build/src-bobby/meldinterp-runtime/core.h **** #define FIELD_SET_INT 0x6
 186:/home/anaz/blinkyblocks/build/src-bobby/meldinterp-runtime/core.h **** #define FIELD_SET_FLOAT 0x7
 187:/home/anaz/blinkyblocks/build/src-bobby/meldinterp-runtime/core.h **** #define FIELD_TYPE 0x8
 188:/home/anaz/blinkyblocks/build/src-bobby/meldinterp-runtime/core.h **** 
 189:/home/anaz/blinkyblocks/build/src-bobby/meldinterp-runtime/core.h **** #define TYPE_NEIGHBOR		0
 190:/home/anaz/blinkyblocks/build/src-bobby/meldinterp-runtime/core.h **** #define TYPE_NEIGHBORCOUNT	1
 191:/home/anaz/blinkyblocks/build/src-bobby/meldinterp-runtime/core.h **** #define TYPE_VACANT			2
 192:/home/anaz/blinkyblocks/build/src-bobby/meldinterp-runtime/core.h **** #define TYPE_SETCOLOR		3
 193:/home/anaz/blinkyblocks/build/src-bobby/meldinterp-runtime/core.h **** #define TYPE_SETCOLOR2		4
 194:/home/anaz/blinkyblocks/build/src-bobby/meldinterp-runtime/core.h **** 
 195:/home/anaz/blinkyblocks/build/src-bobby/meldinterp-runtime/core.h **** 
 196:/home/anaz/blinkyblocks/build/src-bobby/meldinterp-runtime/core.h **** #define NUM_TYPES  (meld_prog[0])
 197:/home/anaz/blinkyblocks/build/src-bobby/meldinterp-runtime/core.h **** 
 198:/home/anaz/blinkyblocks/build/src-bobby/meldinterp-runtime/core.h **** #define DELTA_TYPE(ori, id) (*(unsigned char*)(deltas[ori] + (id)*DELTA_SIZE))
 199:/home/anaz/blinkyblocks/build/src-bobby/meldinterp-runtime/core.h **** #define DELTA_POSITION(ori, id) (*(unsigned char*)(deltas[ori] + (id)*DELTA_SIZE + 1))
 200:/home/anaz/blinkyblocks/build/src-bobby/meldinterp-runtime/core.h **** #define DELTA_WITH(ori) (delta_sizes[ori])
 201:/home/anaz/blinkyblocks/build/src-bobby/meldinterp-runtime/core.h **** #define DELTA_TOTAL(ori) (delta_sizes[ori])
 202:/home/anaz/blinkyblocks/build/src-bobby/meldinterp-runtime/core.h **** 
 203:/home/anaz/blinkyblocks/build/src-bobby/meldinterp-runtime/core.h **** #define RET_RET 0
 204:/home/anaz/blinkyblocks/build/src-bobby/meldinterp-runtime/core.h **** #define RET_NEXT 1
 205:/home/anaz/blinkyblocks/build/src-bobby/meldinterp-runtime/core.h **** 
 206:/home/anaz/blinkyblocks/build/src-bobby/meldinterp-runtime/core.h **** extern const unsigned char meld_prog[];
 207:/home/anaz/blinkyblocks/build/src-bobby/meldinterp-runtime/core.h **** typedef Register (*extern_funct_type)();
 208:/home/anaz/blinkyblocks/build/src-bobby/meldinterp-runtime/core.h **** extern extern_funct_type extern_functs[];
 209:/home/anaz/blinkyblocks/build/src-bobby/meldinterp-runtime/core.h **** extern int extern_functs_args[];
 210:/home/anaz/blinkyblocks/build/src-bobby/meldinterp-runtime/core.h **** extern char *tuple_names[];
 211:/home/anaz/blinkyblocks/build/src-bobby/meldinterp-runtime/core.h **** extern unsigned char *arguments;
 212:/home/anaz/blinkyblocks/build/src-bobby/meldinterp-runtime/core.h **** extern int *delta_sizes;
 213:/home/anaz/blinkyblocks/build/src-bobby/meldinterp-runtime/core.h **** 
 214:/home/anaz/blinkyblocks/build/src-bobby/meldinterp-runtime/core.h **** static inline tuple_t
 215:/home/anaz/blinkyblocks/build/src-bobby/meldinterp-runtime/core.h **** tuple_alloc(tuple_type type)
 216:/home/anaz/blinkyblocks/build/src-bobby/meldinterp-runtime/core.h **** {
 217:/home/anaz/blinkyblocks/build/src-bobby/meldinterp-runtime/core.h **** #ifdef TUPLE_ALLOC_CHECKS
 218:/home/anaz/blinkyblocks/build/src-bobby/meldinterp-runtime/core.h ****   if(type >= NUM_TYPES || type < 0) {
 5007               		.loc 3 218 0
 5008 1c2c 8091 0000 		lds r24,meld_prog
 5009 1c30 90E0      		ldi r25,0
 5010 1c32 C816      		cp r12,r24
 5011 1c34 D906      		cpc r13,r25
 5012 1c36 04F4      		brge .L341
 5013 1c38 D7FE      		sbrs r13,7
 5014 1c3a 00C0      		rjmp .L342
 5015               	.L341:
 219:/home/anaz/blinkyblocks/build/src-bobby/meldinterp-runtime/core.h ****     fprintf(stderr, "Unrecognized type: %d\n", type);
 5016               		.loc 3 219 0
 5017 1c3c DF92      		push r13
 5018 1c3e CF92      		push r12
 5019 1c40 80E0      		ldi r24,lo8(.LC12)
 5020 1c42 90E0      		ldi r25,hi8(.LC12)
 5021 1c44 9F93      		push r25
 5022 1c46 8F93      		push r24
 5023 1c48 8091 0000 		lds r24,__iob+5
 5024 1c4c 8F93      		push r24
 5025 1c4e 8091 0000 		lds r24,__iob+4
 5026 1c52 8F93      		push r24
 5027 1c54 0E94 0000 		call fprintf
 5028               	.LVL414:
 220:/home/anaz/blinkyblocks/build/src-bobby/meldinterp-runtime/core.h ****     exit(EXIT_FAILURE);
 5029               		.loc 3 220 0
 5030 1c58 8FEF      		ldi r24,lo8(-1)
 5031 1c5a 9FEF      		ldi r25,lo8(-1)
 5032 1c5c 0E94 0000 		call exit
 5033               	.LVL415:
 5034               	.L342:
 221:/home/anaz/blinkyblocks/build/src-bobby/meldinterp-runtime/core.h ****   }
 222:/home/anaz/blinkyblocks/build/src-bobby/meldinterp-runtime/core.h **** #endif
 223:/home/anaz/blinkyblocks/build/src-bobby/meldinterp-runtime/core.h ****   
 224:/home/anaz/blinkyblocks/build/src-bobby/meldinterp-runtime/core.h **** 	tuple_t tuple = ALLOC_TUPLE(TYPE_SIZE(type));
 5035               		.loc 3 224 0
 5036 1c60 A090 0000 		lds r10,arguments
 5037 1c64 B090 0000 		lds r11,arguments+1
 5038 1c68 3601      		movw r6,r12
 5039 1c6a 660C      		lsl r6
 5040 1c6c 771C      		rol r7
 5041 1c6e 6A0C      		add r6,r10
 5042 1c70 7B1C      		adc r7,r11
 5043 1c72 F301      		movw r30,r6
 5044 1c74 8181      		ldd r24,Z+1
 5045 1c76 90E0      		ldi r25,0
 5046 1c78 0E94 0000 		call malloc
 5047               	.LVL416:
 5048 1c7c 7C01      		movw r14,r24
 5049               	.LVL417:
 225:/home/anaz/blinkyblocks/build/src-bobby/meldinterp-runtime/core.h **** 
 226:/home/anaz/blinkyblocks/build/src-bobby/meldinterp-runtime/core.h **** 	TUPLE_TYPE(tuple) = type;
 5050               		.loc 3 226 0
 5051 1c7e DC01      		movw r26,r24
 5052 1c80 CC92      		st X,r12
 5053               	.LBE263:
 5054               	.LBE262:
 709:/home/anaz/blinkyblocks/build/src-bobby/meldinterp-runtime/core.c ****   meld_int type_int = (meld_int)type;
 5055               		.loc 1 709 0
 5056 1c82 C801      		movw r24,r16
 5057 1c84 AA27      		clr r26
 5058 1c86 97FD      		sbrc r25,7
 5059 1c88 A095      		com r26
 5060 1c8a BA2F      		mov r27,r26
 5061 1c8c 8983      		std Y+1,r24
 5062 1c8e 9A83      		std Y+2,r25
 5063 1c90 AB83      		std Y+3,r26
 5064 1c92 BC83      		std Y+4,r27
 5065               	.LVL418:
 711:/home/anaz/blinkyblocks/build/src-bobby/meldinterp-runtime/core.c ****   SET_TUPLE_FIELD(tuple, 0, &type_int);
 5066               		.loc 1 711 0
 5067 1c94 F301      		movw r30,r6
 5068 1c96 8081      		ld r24,Z
 5069 1c98 F501      		movw r30,r10
 5070 1c9a E80F      		add r30,r24
 5071 1c9c F11D      		adc r31,__zero_reg__
 5072 1c9e 2181      		ldd r18,Z+1
 5073 1ca0 30E0      		ldi r19,0
 5074 1ca2 2F5F      		subi r18,-1
 5075 1ca4 3F4F      		sbci r19,-1
 5076 1ca6 2E0D      		add r18,r14
 5077 1ca8 3F1D      		adc r19,r15
 5078 1caa 4081      		ld r20,Z
 5079 1cac 50E0      		ldi r21,0
 5080 1cae BE01      		movw r22,r28
 5081 1cb0 6F5F      		subi r22,-1
 5082 1cb2 7F4F      		sbci r23,-1
 5083 1cb4 C901      		movw r24,r18
 5084 1cb6 0E94 0000 		call memcpy
 5085               	.LVL419:
 712:/home/anaz/blinkyblocks/build/src-bobby/meldinterp-runtime/core.c ****   SET_TUPLE_FIELD(tuple, 1, &total);
 5086               		.loc 1 712 0
 5087 1cba 8091 0000 		lds r24,arguments
 5088 1cbe 9091 0000 		lds r25,arguments+1
 5089 1cc2 D701      		movw r26,r14
 5090 1cc4 2C91      		ld r18,X
 5091 1cc6 FC01      		movw r30,r24
 5092 1cc8 E20F      		add r30,r18
 5093 1cca F11D      		adc r31,__zero_reg__
 5094 1ccc E20F      		add r30,r18
 5095 1cce F11D      		adc r31,__zero_reg__
 5096 1cd0 2081      		ld r18,Z
 5097 1cd2 FC01      		movw r30,r24
 5098 1cd4 E20F      		add r30,r18
 5099 1cd6 F11D      		adc r31,__zero_reg__
 5100 1cd8 2381      		ldd r18,Z+3
 5101 1cda 30E0      		ldi r19,0
 5102 1cdc 2F5F      		subi r18,-1
 5103 1cde 3F4F      		sbci r19,-1
 5104 1ce0 2E0D      		add r18,r14
 5105 1ce2 3F1D      		adc r19,r15
 5106 1ce4 4281      		ldd r20,Z+2
 5107 1ce6 CE01      		movw r24,r28
 5108 1ce8 0596      		adiw r24,5
 5109 1cea 50E0      		ldi r21,0
 5110 1cec BC01      		movw r22,r24
 5111 1cee C901      		movw r24,r18
 5112 1cf0 0E94 0000 		call memcpy
 5113               	.LVL420:
 5114               	.LBE261:
 5115               	.LBE260:
 725:/home/anaz/blinkyblocks/build/src-bobby/meldinterp-runtime/core.c ****     PUSH_NEW_TUPLE(_proved);
 5116               		.loc 1 725 0
 5117 1cf4 61E0      		ldi r22,lo8(1)
 5118 1cf6 70E0      		ldi r23,0
 5119 1cf8 C701      		movw r24,r14
 5120 1cfa 0E94 0000 		call enqueueNewTuple
 5121               	.LVL421:
 5122 1cfe 00C0      		rjmp .L343
 5123               	.LVL422:
 5124               	.L340:
 5125               	.LBE259:
 726:/home/anaz/blinkyblocks/build/src-bobby/meldinterp-runtime/core.c ****   } else if(type == TYPE_PROVED) {
 5126               		.loc 1 726 0
 5127 1d00 8091 0000 		lds r24,TYPE_PROVED
 5128 1d04 9091 0000 		lds r25,TYPE_PROVED+1
 5129 1d08 0817      		cp r16,r24
 5130 1d0a 1907      		cpc r17,r25
 5131 1d0c 01F4      		brne .L344
 727:/home/anaz/blinkyblocks/build/src-bobby/meldinterp-runtime/core.c ****     tuple_process(tuple, TYPE_START(type), isNew, reg);
 5132               		.loc 1 727 0
 5133 1d0e ED85      		ldd r30,Y+13
 5134 1d10 FE85      		ldd r31,Y+14
 5135 1d12 E050      		subi r30,lo8(-(meld_prog))
 5136 1d14 F040      		sbci r31,hi8(-(meld_prog))
 5137 1d16 6081      		ld r22,Z
 5138 1d18 7181      		ldd r23,Z+1
 5139 1d1a 6050      		subi r22,lo8(-(meld_prog))
 5140 1d1c 7040      		sbci r23,hi8(-(meld_prog))
 5141 1d1e 2985      		ldd r18,Y+9
 5142 1d20 3A85      		ldd r19,Y+10
 5143 1d22 C101      		movw r24,r2
 5144 1d24 0E94 0000 		call tuple_process
 5145               	.LVL423:
 5146 1d28 00C0      		rjmp .L349
 5147               	.L344:
 730:/home/anaz/blinkyblocks/build/src-bobby/meldinterp-runtime/core.c ****   } else if(type == TYPE_TERMINATE) {
 5148               		.loc 1 730 0
 5149 1d2a 8091 0000 		lds r24,TYPE_TERMINATE
 5150 1d2e 9091 0000 		lds r25,TYPE_TERMINATE+1
 5151 1d32 0817      		cp r16,r24
 5152 1d34 1907      		cpc r17,r25
 5153 1d36 01F4      		brne .L343
 5154               	.LVL424:
 5155               	.L349:
 731:/home/anaz/blinkyblocks/build/src-bobby/meldinterp-runtime/core.c ****     FREE_TUPLE(tuple);
 5156               		.loc 1 731 0
 5157 1d38 C101      		movw r24,r2
 5158               	/* epilogue start */
 936:/home/anaz/blinkyblocks/build/src-bobby/meldinterp-runtime/core.c **** }
 5159               		.loc 1 936 0
 5160 1d3a 6696      		adiw r28,22
 5161 1d3c CDBF      		out __SP_L__,r28
 5162 1d3e DEBF      		out __SP_H__,r29
 5163 1d40 DF91      		pop r29
 5164 1d42 CF91      		pop r28
 5165 1d44 1F91      		pop r17
 5166 1d46 0F91      		pop r16
 5167 1d48 FF90      		pop r15
 5168 1d4a EF90      		pop r14
 5169 1d4c DF90      		pop r13
 5170 1d4e CF90      		pop r12
 5171 1d50 BF90      		pop r11
 5172 1d52 AF90      		pop r10
 5173 1d54 9F90      		pop r9
 5174 1d56 8F90      		pop r8
 5175 1d58 7F90      		pop r7
 5176 1d5a 6F90      		pop r6
 5177 1d5c 5F90      		pop r5
 5178 1d5e 4F90      		pop r4
 5179               	.LVL425:
 5180 1d60 3F90      		pop r3
 5181 1d62 2F90      		pop r2
 5182               	.LVL426:
 731:/home/anaz/blinkyblocks/build/src-bobby/meldinterp-runtime/core.c ****     FREE_TUPLE(tuple);
 5183               		.loc 1 731 0
 5184 1d64 0C94 0000 		jmp free
 5185               	.LVL427:
 5186               	.L343:
 736:/home/anaz/blinkyblocks/build/src-bobby/meldinterp-runtime/core.c ****   if(!TYPE_IS_AGG(type) && TYPE_IS_PERSISTENT(type)) {
 5187               		.loc 1 736 0
 5188 1d68 F401      		movw r30,r8
 5189 1d6a 2081      		ld r18,Z
 5190 1d6c C801      		movw r24,r16
 5191 1d6e 880F      		lsl r24
 5192 1d70 991F      		rol r25
 5193 1d72 20FD      		sbrc r18,0
 5194 1d74 00C0      		rjmp .L345
 736:/home/anaz/blinkyblocks/build/src-bobby/meldinterp-runtime/core.c ****   if(!TYPE_IS_AGG(type) && TYPE_IS_PERSISTENT(type)) {
 5195               		.loc 1 736 0 is_stmt 0 discriminator 1
 5196 1d76 21FF      		sbrs r18,1
 5197 1d78 00C0      		rjmp .L346
 5198               	.LBB264:
 737:/home/anaz/blinkyblocks/build/src-bobby/meldinterp-runtime/core.c ****     persistent_set *persistents = &PERSISTENT[type];
 5199               		.loc 1 737 0 is_stmt 1
 5200 1d7a 46E0      		ldi r20,lo8(6)
 5201 1d7c 409F      		mul r20,r16
 5202 1d7e 9001      		movw r18,r0
 5203 1d80 419F      		mul r20,r17
 5204 1d82 300D      		add r19,r0
 5205 1d84 1124      		clr __zero_reg__
 5206 1d86 0091 0000 		lds r16,persistent
 5207 1d8a 1091 0000 		lds r17,persistent+1
 5208               	.LVL428:
 5209 1d8e 020F      		add r16,r18
 5210 1d90 131F      		adc r17,r19
 5211               	.LVL429:
 739:/home/anaz/blinkyblocks/build/src-bobby/meldinterp-runtime/core.c ****     int size = TYPE_SIZE(type);
 5212               		.loc 1 739 0
 5213 1d92 E091 0000 		lds r30,arguments
 5214 1d96 F091 0000 		lds r31,arguments+1
 5215 1d9a E80F      		add r30,r24
 5216 1d9c F91F      		adc r31,r25
 5217 1d9e 7180      		ldd r7,Z+1
 5218 1da0 C72C      		mov r12,r7
 5219 1da2 D12C      		mov r13,__zero_reg__
 5220               	.LVL430:
 741:/home/anaz/blinkyblocks/build/src-bobby/meldinterp-runtime/core.c ****     if(isNew < 0) {
 5221               		.loc 1 741 0
 5222 1da4 57FC      		sbrc r5,7
 5223 1da6 00C0      		rjmp .L347
 746:/home/anaz/blinkyblocks/build/src-bobby/meldinterp-runtime/core.c ****     for(i = 0; i < persistents->total; ++i) {
 5224               		.loc 1 746 0
 5225 1da8 D801      		movw r26,r16
 5226 1daa 1296      		adiw r26,2
 5227 1dac ED90      		ld r14,X+
 5228 1dae FC90      		ld r15,X
 5229 1db0 1397      		sbiw r26,2+1
 5230               	.LBE264:
 717:/home/anaz/blinkyblocks/build/src-bobby/meldinterp-runtime/core.c **** void tuple_do_handle(tuple_type type,	tuple_t tuple, int isNew, Register *reg)
 5231               		.loc 1 717 0
 5232 1db2 812C      		mov r8,__zero_reg__
 5233 1db4 912C      		mov r9,__zero_reg__
 5234 1db6 A12C      		mov r10,__zero_reg__
 5235 1db8 B12C      		mov r11,__zero_reg__
 5236 1dba 00C0      		rjmp .L348
 5237               	.L347:
 5238               	.LBB266:
 742:/home/anaz/blinkyblocks/build/src-bobby/meldinterp-runtime/core.c ****       fprintf(stderr, "meld: persistent types can't be deleted\n");
 5239               		.loc 1 742 0
 5240 1dbc 6091 0000 		lds r22,__iob+4
 5241 1dc0 7091 0000 		lds r23,__iob+4+1
 5242 1dc4 80E0      		ldi r24,lo8(.LC13)
 5243 1dc6 90E0      		ldi r25,hi8(.LC13)
 5244 1dc8 0E94 0000 		call fputs
 5245               	.LVL431:
 743:/home/anaz/blinkyblocks/build/src-bobby/meldinterp-runtime/core.c ****       exit(EXIT_FAILURE);
 5246               		.loc 1 743 0
 5247 1dcc 8FEF      		ldi r24,lo8(-1)
 5248 1dce 9FEF      		ldi r25,lo8(-1)
 5249 1dd0 0E94 0000 		call exit
 5250               	.LVL432:
 5251               	.L350:
 5252               	.LBB265:
 747:/home/anaz/blinkyblocks/build/src-bobby/meldinterp-runtime/core.c ****       void *stored_tuple = persistents->array + i * size;
 5253               		.loc 1 747 0
 5254 1dd4 F801      		movw r30,r16
 5255 1dd6 8081      		ld r24,Z
 5256 1dd8 9181      		ldd r25,Z+1
 749:/home/anaz/blinkyblocks/build/src-bobby/meldinterp-runtime/core.c ****       if(memcmp(stored_tuple, tuple, size) == 0) {
 5257               		.loc 1 749 0
 5258 1dda 472D      		mov r20,r7
 5259 1ddc 50E0      		ldi r21,0
 5260 1dde B101      		movw r22,r2
 5261 1de0 880D      		add r24,r8
 5262 1de2 991D      		adc r25,r9
 5263               	.LVL433:
 5264 1de4 0E94 0000 		call memcmp
 5265               	.LVL434:
 5266 1de8 8C0C      		add r8,r12
 5267 1dea 9D1C      		adc r9,r13
 5268 1dec 0097      		sbiw r24,0
 5269 1dee 01F4      		brne .+2
 5270 1df0 00C0      		rjmp .L349
 5271               	.LBE265:
 746:/home/anaz/blinkyblocks/build/src-bobby/meldinterp-runtime/core.c ****     for(i = 0; i < persistents->total; ++i) {
 5272               		.loc 1 746 0
 5273 1df2 FFEF      		ldi r31,-1
 5274 1df4 AF1A      		sub r10,r31
 5275 1df6 BF0A      		sbc r11,r31
 5276               	.LVL435:
 5277               	.L348:
 746:/home/anaz/blinkyblocks/build/src-bobby/meldinterp-runtime/core.c ****     for(i = 0; i < persistents->total; ++i) {
 5278               		.loc 1 746 0 is_stmt 0 discriminator 1
 5279 1df8 AE14      		cp r10,r14
 5280 1dfa BF04      		cpc r11,r15
 5281 1dfc 04F0      		brlt .L350
 756:/home/anaz/blinkyblocks/build/src-bobby/meldinterp-runtime/core.c ****     if(persistents->total == persistents->current) {
 5282               		.loc 1 756 0 is_stmt 1
 5283 1dfe D801      		movw r26,r16
 5284 1e00 1496      		adiw r26,4
 5285 1e02 8D91      		ld r24,X+
 5286 1e04 9C91      		ld r25,X
 5287 1e06 1597      		sbiw r26,4+1
 5288 1e08 E816      		cp r14,r24
 5289 1e0a F906      		cpc r15,r25
 5290 1e0c 01F4      		brne .L351
 757:/home/anaz/blinkyblocks/build/src-bobby/meldinterp-runtime/core.c ****       if(persistents->total == 0)
 5291               		.loc 1 757 0
 5292 1e0e E114      		cp r14,__zero_reg__
 5293 1e10 F104      		cpc r15,__zero_reg__
 5294 1e12 01F4      		brne .L352
 758:/home/anaz/blinkyblocks/build/src-bobby/meldinterp-runtime/core.c ****         persistents->total = PERSISTENT_INITIAL;
 5295               		.loc 1 758 0
 5296 1e14 82E0      		ldi r24,lo8(2)
 5297 1e16 90E0      		ldi r25,0
 5298 1e18 1296      		adiw r26,2
 5299 1e1a 8D93      		st X+,r24
 5300 1e1c 9C93      		st X,r25
 5301 1e1e 1397      		sbiw r26,2+1
 5302 1e20 00C0      		rjmp .L353
 5303               	.L352:
 760:/home/anaz/blinkyblocks/build/src-bobby/meldinterp-runtime/core.c ****         persistents->total *= 2;
 5304               		.loc 1 760 0
 5305 1e22 EE0C      		lsl r14
 5306 1e24 FF1C      		rol r15
 5307 1e26 F801      		movw r30,r16
 5308 1e28 E282      		std Z+2,r14
 5309 1e2a F382      		std Z+3,r15
 5310               	.L353:
 762:/home/anaz/blinkyblocks/build/src-bobby/meldinterp-runtime/core.c ****       persistents->array = realloc(persistents->array, size * persistents->total);
 5311               		.loc 1 762 0
 5312 1e2c D801      		movw r26,r16
 5313 1e2e 1296      		adiw r26,2
 5314 1e30 8D91      		ld r24,X+
 5315 1e32 9C91      		ld r25,X
 5316 1e34 1397      		sbiw r26,2+1
 5317 1e36 C89E      		mul r12,r24
 5318 1e38 B001      		movw r22,r0
 5319 1e3a C99E      		mul r12,r25
 5320 1e3c 700D      		add r23,r0
 5321 1e3e D89E      		mul r13,r24
 5322 1e40 700D      		add r23,r0
 5323 1e42 1124      		clr r1
 5324 1e44 8D91      		ld r24,X+
 5325 1e46 9C91      		ld r25,X
 5326 1e48 0E94 0000 		call realloc
 5327               	.LVL436:
 5328 1e4c F801      		movw r30,r16
 5329 1e4e 8083      		st Z,r24
 5330 1e50 9183      		std Z+1,r25
 5331               	.L351:
 765:/home/anaz/blinkyblocks/build/src-bobby/meldinterp-runtime/core.c ****     memcpy(persistents->array + persistents->current * size, tuple, size);
 5332               		.loc 1 765 0
 5333 1e52 D801      		movw r26,r16
 5334 1e54 1496      		adiw r26,4
 5335 1e56 2D91      		ld r18,X+
 5336 1e58 3C91      		ld r19,X
 5337 1e5a 1597      		sbiw r26,4+1
 5338 1e5c C29E      		mul r12,r18
 5339 1e5e C001      		movw r24,r0
 5340 1e60 C39E      		mul r12,r19
 5341 1e62 900D      		add r25,r0
 5342 1e64 D29E      		mul r13,r18
 5343 1e66 900D      		add r25,r0
 5344 1e68 1124      		clr r1
 5345 1e6a 2D91      		ld r18,X+
 5346 1e6c 3C91      		ld r19,X
 5347 1e6e 280F      		add r18,r24
 5348 1e70 391F      		adc r19,r25
 5349 1e72 472D      		mov r20,r7
 5350 1e74 50E0      		ldi r21,0
 5351 1e76 B101      		movw r22,r2
 5352 1e78 C901      		movw r24,r18
 5353 1e7a 0E94 0000 		call memcpy
 5354               	.LVL437:
 766:/home/anaz/blinkyblocks/build/src-bobby/meldinterp-runtime/core.c ****     ++persistents->current;
 5355               		.loc 1 766 0
 5356 1e7e F801      		movw r30,r16
 5357 1e80 8481      		ldd r24,Z+4
 5358 1e82 9581      		ldd r25,Z+5
 5359 1e84 0196      		adiw r24,1
 5360 1e86 8483      		std Z+4,r24
 5361 1e88 9583      		std Z+5,r25
 5362 1e8a 00C0      		rjmp .L399
 5363               	.LVL438:
 5364               	.L345:
 5365               	.LBE266:
 773:/home/anaz/blinkyblocks/build/src-bobby/meldinterp-runtime/core.c ****   if (!TYPE_IS_AGG(type) || TYPE_IS_LINEAR(type))
 5366               		.loc 1 773 0 discriminator 1
 5367 1e8c 22FF      		sbrs r18,2
 5368 1e8e 00C0      		rjmp .L355
 5369               	.L346:
 5370               	.LBB267:
 775:/home/anaz/blinkyblocks/build/src-bobby/meldinterp-runtime/core.c ****       tuple_queue *queue = &TUPLES[type];
 5371               		.loc 1 775 0
 5372 1e90 9801      		movw r18,r16
 5373 1e92 220F      		lsl r18
 5374 1e94 331F      		rol r19
 5375 1e96 220F      		lsl r18
 5376 1e98 331F      		rol r19
 5377 1e9a E090 0000 		lds r14,tuples
 5378 1e9e F090 0000 		lds r15,tuples+1
 5379 1ea2 E20E      		add r14,r18
 5380 1ea4 F31E      		adc r15,r19
 5381               	.LVL439:
 779:/home/anaz/blinkyblocks/build/src-bobby/meldinterp-runtime/core.c ****       for (current = &queue->head;
 5382               		.loc 1 779 0
 5383 1ea6 6701      		movw r12,r14
 5384               	.LVL440:
 787:/home/anaz/blinkyblocks/build/src-bobby/meldinterp-runtime/core.c **** 		     TYPE_SIZE(type)) == 0)
 5385               		.loc 1 787 0
 5386 1ea8 0196      		adiw r24,1
 5387 1eaa 6090 0000 		lds r6,arguments
 5388 1eae 7090 0000 		lds r7,arguments+1
 5389 1eb2 680E      		add r6,r24
 5390 1eb4 791E      		adc r7,r25
 779:/home/anaz/blinkyblocks/build/src-bobby/meldinterp-runtime/core.c ****       for (current = &queue->head;
 5391               		.loc 1 779 0
 5392 1eb6 00C0      		rjmp .L356
 5393               	.LVL441:
 5394               	.L361:
 785:/home/anaz/blinkyblocks/build/src-bobby/meldinterp-runtime/core.c **** 	  if (memcmp(cur->tuple,
 5395               		.loc 1 785 0
 5396 1eb8 D301      		movw r26,r6
 5397 1eba 4C91      		ld r20,X
 5398 1ebc 50E0      		ldi r21,0
 5399 1ebe B101      		movw r22,r2
 5400 1ec0 F501      		movw r30,r10
 5401 1ec2 8481      		ldd r24,Z+4
 5402 1ec4 9581      		ldd r25,Z+5
 5403 1ec6 0E94 0000 		call memcmp
 5404               	.LVL442:
 5405 1eca 0097      		sbiw r24,0
 5406 1ecc 01F0      		breq .+2
 5407 1ece 00C0      		rjmp .L357
 789:/home/anaz/blinkyblocks/build/src-bobby/meldinterp-runtime/core.c **** 	      cur->records.count += isNew;
 5408               		.loc 1 789 0
 5409 1ed0 D501      		movw r26,r10
 5410 1ed2 1296      		adiw r26,2
 5411 1ed4 8D91      		ld r24,X+
 5412 1ed6 9C91      		ld r25,X
 5413 1ed8 1397      		sbiw r26,2+1
 5414 1eda 840D      		add r24,r4
 5415 1edc 951D      		adc r25,r5
 5416 1ede 1296      		adiw r26,2
 5417 1ee0 8D93      		st X+,r24
 5418 1ee2 9C93      		st X,r25
 5419 1ee4 1397      		sbiw r26,2+1
 791:/home/anaz/blinkyblocks/build/src-bobby/meldinterp-runtime/core.c **** 	      if (cur->records.count <= 0) {
 5420               		.loc 1 791 0
 5421 1ee6 1816      		cp __zero_reg__,r24
 5422 1ee8 1906      		cpc __zero_reg__,r25
 5423 1eea 04F4      		brge .+2
 5424 1eec 00C0      		rjmp .L349
 793:/home/anaz/blinkyblocks/build/src-bobby/meldinterp-runtime/core.c **** 		if (!TYPE_IS_LINEAR(type)) {
 5425               		.loc 1 793 0
 5426 1eee F401      		movw r30,r8
 5427 1ef0 8081      		ld r24,Z
 5428 1ef2 82FD      		sbrc r24,2
 5429 1ef4 00C0      		rjmp .L358
 794:/home/anaz/blinkyblocks/build/src-bobby/meldinterp-runtime/core.c **** 		  tuple_process(tuple, TYPE_START(TUPLE_TYPE(tuple)), -1, reg);
 5430               		.loc 1 794 0
 5431 1ef6 D101      		movw r26,r2
 5432 1ef8 EC91      		ld r30,X
 5433 1efa F0E0      		ldi r31,0
 5434 1efc E050      		subi r30,lo8(-(meld_prog))
 5435 1efe F040      		sbci r31,hi8(-(meld_prog))
 5436 1f00 E181      		ldd r30,Z+1
 5437 1f02 F0E0      		ldi r31,0
 5438 1f04 E050      		subi r30,lo8(-(meld_prog))
 5439 1f06 F040      		sbci r31,hi8(-(meld_prog))
 5440 1f08 6081      		ld r22,Z
 5441 1f0a 7181      		ldd r23,Z+1
 5442 1f0c 6050      		subi r22,lo8(-(meld_prog))
 5443 1f0e 7040      		sbci r23,hi8(-(meld_prog))
 5444 1f10 2985      		ldd r18,Y+9
 5445 1f12 3A85      		ldd r19,Y+10
 5446 1f14 4FEF      		ldi r20,lo8(-1)
 5447 1f16 5FEF      		ldi r21,lo8(-1)
 5448 1f18 C101      		movw r24,r2
 5449 1f1a 0E94 0000 		call tuple_process
 5450               	.LVL443:
 5451 1f1e 00C0      		rjmp .L359
 5452               	.L358:
 797:/home/anaz/blinkyblocks/build/src-bobby/meldinterp-runtime/core.c **** 		  if(DELTA_WITH(type)) {
 5453               		.loc 1 797 0
 5454 1f20 000F      		lsl r16
 5455 1f22 111F      		rol r17
 5456               	.LVL444:
 5457 1f24 E091 0000 		lds r30,delta_sizes
 5458 1f28 F091 0000 		lds r31,delta_sizes+1
 5459 1f2c E00F      		add r30,r16
 5460 1f2e F11F      		adc r31,r17
 5461 1f30 8081      		ld r24,Z
 5462 1f32 9181      		ldd r25,Z+1
 5463 1f34 892B      		or r24,r25
 5464 1f36 01F0      		breq .L359
 798:/home/anaz/blinkyblocks/build/src-bobby/meldinterp-runtime/core.c **** 		    if(OLDTUPLES[type])
 5465               		.loc 1 798 0
 5466 1f38 E091 0000 		lds r30,oldTuples
 5467 1f3c F091 0000 		lds r31,oldTuples+1
 5468 1f40 E00F      		add r30,r16
 5469 1f42 F11F      		adc r31,r17
 5470 1f44 8081      		ld r24,Z
 5471 1f46 9181      		ldd r25,Z+1
 5472 1f48 0097      		sbiw r24,0
 5473 1f4a 01F0      		breq .L360
 799:/home/anaz/blinkyblocks/build/src-bobby/meldinterp-runtime/core.c **** 		      FREE_TUPLE(OLDTUPLES[type]);
 5474               		.loc 1 799 0
 5475 1f4c 0E94 0000 		call free
 5476               	.LVL445:
 5477               	.L360:
 801:/home/anaz/blinkyblocks/build/src-bobby/meldinterp-runtime/core.c **** 		    OLDTUPLES[type] = queue_dequeue_pos(queue, current);
 5478               		.loc 1 801 0
 5479 1f50 A090 0000 		lds r10,oldTuples
 5480 1f54 B090 0000 		lds r11,oldTuples+1
 5481               	.LVL446:
 5482 1f58 A00E      		add r10,r16
 5483 1f5a B11E      		adc r11,r17
 5484 1f5c B601      		movw r22,r12
 5485 1f5e C701      		movw r24,r14
 5486 1f60 0E94 0000 		call queue_dequeue_pos
 5487               	.LVL447:
 5488 1f64 F501      		movw r30,r10
 5489 1f66 8083      		st Z,r24
 5490 1f68 9183      		std Z+1,r25
 5491 1f6a 00C0      		rjmp .L349
 5492               	.LVL448:
 5493               	.L359:
 803:/home/anaz/blinkyblocks/build/src-bobby/meldinterp-runtime/core.c **** 		    FREE_TUPLE(queue_dequeue_pos(queue, current));
 5494               		.loc 1 803 0
 5495 1f6c B601      		movw r22,r12
 5496 1f6e C701      		movw r24,r14
 5497 1f70 0E94 0000 		call queue_dequeue_pos
 5498               	.LVL449:
 5499 1f74 00C0      		rjmp .L397
 5500               	.LVL450:
 5501               	.L357:
 781:/home/anaz/blinkyblocks/build/src-bobby/meldinterp-runtime/core.c **** 	   current = &(*current)->next)
 5502               		.loc 1 781 0
 5503 1f76 6501      		movw r12,r10
 5504               	.LVL451:
 5505               	.L356:
 780:/home/anaz/blinkyblocks/build/src-bobby/meldinterp-runtime/core.c **** 	   *current != NULL;
 5506               		.loc 1 780 0 discriminator 1
 5507 1f78 D601      		movw r26,r12
 5508 1f7a AD90      		ld r10,X+
 5509 1f7c BC90      		ld r11,X
 779:/home/anaz/blinkyblocks/build/src-bobby/meldinterp-runtime/core.c ****       for (current = &queue->head;
 5510               		.loc 1 779 0 discriminator 1
 5511 1f7e A114      		cp r10,__zero_reg__
 5512 1f80 B104      		cpc r11,__zero_reg__
 5513 1f82 01F0      		breq .+2
 5514 1f84 00C0      		rjmp .L361
 814:/home/anaz/blinkyblocks/build/src-bobby/meldinterp-runtime/core.c ****       if (isNew <= 0) {
 5515               		.loc 1 814 0
 5516 1f86 1414      		cp __zero_reg__,r4
 5517 1f88 1504      		cpc __zero_reg__,r5
 5518 1f8a 04F0      		brlt .+2
 5519 1f8c 00C0      		rjmp .L349
 819:/home/anaz/blinkyblocks/build/src-bobby/meldinterp-runtime/core.c ****       queue_enqueue(queue, tuple, (record_type) isNew);
 5520               		.loc 1 819 0
 5521 1f8e A201      		movw r20,r4
 5522 1f90 B101      		movw r22,r2
 5523 1f92 C701      		movw r24,r14
 5524 1f94 0E94 0000 		call queue_enqueue
 5525               	.LVL452:
 821:/home/anaz/blinkyblocks/build/src-bobby/meldinterp-runtime/core.c ****       if(TYPE_IS_LINEAR(type) && DELTA_WITH(type))
 5526               		.loc 1 821 0
 5527 1f98 F401      		movw r30,r8
 5528 1f9a 8081      		ld r24,Z
 5529 1f9c 82FF      		sbrs r24,2
 5530 1f9e 00C0      		rjmp .L362
 821:/home/anaz/blinkyblocks/build/src-bobby/meldinterp-runtime/core.c ****       if(TYPE_IS_LINEAR(type) && DELTA_WITH(type))
 5531               		.loc 1 821 0 is_stmt 0 discriminator 1
 5532 1fa0 4801      		movw r8,r16
 5533 1fa2 880C      		lsl r8
 5534 1fa4 991C      		rol r9
 5535 1fa6 E091 0000 		lds r30,delta_sizes
 5536 1faa F091 0000 		lds r31,delta_sizes+1
 5537 1fae E80D      		add r30,r8
 5538 1fb0 F91D      		adc r31,r9
 5539 1fb2 8081      		ld r24,Z
 5540 1fb4 9181      		ldd r25,Z+1
 5541 1fb6 892B      		or r24,r25
 5542 1fb8 01F4      		brne .+2
 5543 1fba 00C0      		rjmp .L362
 5544               	.LVL453:
 5545               	.LBB268:
 5546               	.LBB269:
 667:/home/anaz/blinkyblocks/build/src-bobby/meldinterp-runtime/core.c ****   void *old = OLDTUPLES[type];
 5547               		.loc 1 667 0 is_stmt 1
 5548 1fbc E091 0000 		lds r30,oldTuples
 5549 1fc0 F091 0000 		lds r31,oldTuples+1
 5550 1fc4 E80D      		add r30,r8
 5551 1fc6 F91D      		adc r31,r9
 5552 1fc8 E080      		ld r14,Z
 5553 1fca F180      		ldd r15,Z+1
 5554               	.LVL454:
 669:/home/anaz/blinkyblocks/build/src-bobby/meldinterp-runtime/core.c ****   if(old == NULL)
 5555               		.loc 1 669 0
 5556 1fcc E114      		cp r14,__zero_reg__
 5557 1fce F104      		cpc r15,__zero_reg__
 5558 1fd0 01F4      		brne .+2
 5559 1fd2 00C0      		rjmp .L362
 672:/home/anaz/blinkyblocks/build/src-bobby/meldinterp-runtime/core.c ****   OLDTUPLES[type] = NULL;
 5560               		.loc 1 672 0
 5561 1fd4 1082      		st Z,__zero_reg__
 5562 1fd6 1182      		std Z+1,__zero_reg__
 5563               	.LVL455:
 5564 1fd8 21E0      		ldi r18,lo8(1)
 5565 1fda 30E0      		ldi r19,0
 5566 1fdc 2B87      		std Y+11,r18
 5567 1fde 3C87      		std Y+12,r19
 675:/home/anaz/blinkyblocks/build/src-bobby/meldinterp-runtime/core.c ****   for(i = 0; i < DELTA_TOTAL(type); ++i) {
 5568               		.loc 1 675 0
 5569 1fe0 A12C      		mov r10,__zero_reg__
 5570 1fe2 B12C      		mov r11,__zero_reg__
 5571 1fe4 00C0      		rjmp .L363
 5572               	.LVL456:
 5573               	.L368:
 5574               	.LBB270:
 676:/home/anaz/blinkyblocks/build/src-bobby/meldinterp-runtime/core.c ****     int delta_type = DELTA_TYPE(type, i);
 5575               		.loc 1 676 0
 5576 1fe6 E091 0000 		lds r30,deltas
 5577 1fea F091 0000 		lds r31,deltas+1
 5578 1fee E80D      		add r30,r8
 5579 1ff0 F91D      		adc r31,r9
 5580 1ff2 8081      		ld r24,Z
 5581 1ff4 9181      		ldd r25,Z+1
 5582 1ff6 F501      		movw r30,r10
 5583 1ff8 EE0F      		lsl r30
 5584 1ffa FF1F      		rol r31
 5585 1ffc E80F      		add r30,r24
 5586 1ffe F91F      		adc r31,r25
 5587 2000 3081      		ld r19,Z
 5588               	.LVL457:
 677:/home/anaz/blinkyblocks/build/src-bobby/meldinterp-runtime/core.c ****     int delta_pos = DELTA_POSITION(type, i);
 5589               		.loc 1 677 0
 5590 2002 EB85      		ldd r30,Y+11
 5591 2004 FC85      		ldd r31,Y+12
 5592 2006 E80F      		add r30,r24
 5593 2008 F91F      		adc r31,r25
 5594 200a 2081      		ld r18,Z
 5595               	.LVL458:
 678:/home/anaz/blinkyblocks/build/src-bobby/meldinterp-runtime/core.c ****     void *delta_tuple = ALLOC_TUPLE(TYPE_SIZE(delta_type));
 5596               		.loc 1 678 0
 5597 200c 6090 0000 		lds r6,arguments
 5598 2010 7090 0000 		lds r7,arguments+1
 5599 2014 6301      		movw r12,r6
 5600 2016 C30E      		add r12,r19
 5601 2018 D11C      		adc r13,__zero_reg__
 5602 201a C30E      		add r12,r19
 5603 201c D11C      		adc r13,__zero_reg__
 5604 201e D601      		movw r26,r12
 5605 2020 1196      		adiw r26,1
 5606 2022 4C91      		ld r20,X
 5607 2024 842F      		mov r24,r20
 5608 2026 90E0      		ldi r25,0
 5609 2028 2D8B      		std Y+21,r18
 5610 202a 3C8B      		std Y+20,r19
 5611 202c 4E8B      		std Y+22,r20
 5612 202e 0E94 0000 		call malloc
 5613               	.LVL459:
 5614 2032 8C01      		movw r16,r24
 5615               	.LVL460:
 680:/home/anaz/blinkyblocks/build/src-bobby/meldinterp-runtime/core.c ****     memcpy(delta_tuple, old, TYPE_SIZE(delta_type));
 5616               		.loc 1 680 0
 5617 2034 4E89      		ldd r20,Y+22
 5618 2036 50E0      		ldi r21,0
 5619 2038 B701      		movw r22,r14
 5620 203a 0E94 0000 		call memcpy
 5621               	.LVL461:
 681:/home/anaz/blinkyblocks/build/src-bobby/meldinterp-runtime/core.c ****     TUPLE_TYPE(delta_tuple) = delta_type;
 5622               		.loc 1 681 0
 5623 203e 3C89      		ldd r19,Y+20
 5624 2040 F801      		movw r30,r16
 5625 2042 3083      		st Z,r19
 683:/home/anaz/blinkyblocks/build/src-bobby/meldinterp-runtime/core.c ****     void *field_delta = GET_TUPLE_FIELD(delta_tuple, delta_pos);
 5626               		.loc 1 683 0
 5627 2044 2D89      		ldd r18,Y+21
 5628 2046 30E0      		ldi r19,0
 5629 2048 C901      		movw r24,r18
 5630 204a 880F      		lsl r24
 5631 204c 991F      		rol r25
 5632 204e D601      		movw r26,r12
 5633 2050 4C91      		ld r20,X
 5634 2052 860D      		add r24,r6
 5635 2054 971D      		adc r25,r7
 5636 2056 FC01      		movw r30,r24
 5637 2058 E40F      		add r30,r20
 5638 205a F11D      		adc r31,__zero_reg__
 5639 205c C180      		ldd r12,Z+1
 5640 205e D12C      		mov r13,__zero_reg__
 5641 2060 BFEF      		ldi r27,-1
 5642 2062 CB1A      		sub r12,r27
 5643 2064 DB0A      		sbc r13,r27
 5644 2066 C00E      		add r12,r16
 5645 2068 D11E      		adc r13,r17
 5646               	.LVL462:
 684:/home/anaz/blinkyblocks/build/src-bobby/meldinterp-runtime/core.c ****     void *field_old = GET_TUPLE_FIELD(old, delta_pos);
 5647               		.loc 1 684 0
 5648 206a F701      		movw r30,r14
 5649 206c 4081      		ld r20,Z
 5650 206e F301      		movw r30,r6
 5651 2070 E40F      		add r30,r20
 5652 2072 F11D      		adc r31,__zero_reg__
 5653 2074 E40F      		add r30,r20
 5654 2076 F11D      		adc r31,__zero_reg__
 5655 2078 4081      		ld r20,Z
 5656 207a FC01      		movw r30,r24
 5657 207c E40F      		add r30,r20
 5658 207e F11D      		adc r31,__zero_reg__
 5659 2080 E181      		ldd r30,Z+1
 5660 2082 6E2F      		mov r22,r30
 5661 2084 70E0      		ldi r23,0
 5662 2086 6F5F      		subi r22,-1
 5663 2088 7F4F      		sbci r23,-1
 5664 208a 6E0D      		add r22,r14
 5665 208c 7F1D      		adc r23,r15
 5666               	.LVL463:
 685:/home/anaz/blinkyblocks/build/src-bobby/meldinterp-runtime/core.c ****     void *field_new = GET_TUPLE_FIELD(tuple, delta_pos);
 5667               		.loc 1 685 0
 5668 208e D101      		movw r26,r2
 5669 2090 4C91      		ld r20,X
 5670 2092 D301      		movw r26,r6
 5671 2094 A40F      		add r26,r20
 5672 2096 B11D      		adc r27,__zero_reg__
 5673 2098 A40F      		add r26,r20
 5674 209a B11D      		adc r27,__zero_reg__
 5675 209c 4C91      		ld r20,X
 5676 209e DC01      		movw r26,r24
 5677 20a0 A40F      		add r26,r20
 5678 20a2 B11D      		adc r27,__zero_reg__
 5679 20a4 1196      		adiw r26,1
 5680 20a6 AC91      		ld r26,X
 5681 20a8 B0E0      		ldi r27,0
 5682 20aa 1196      		adiw r26,1
 5683 20ac A20D      		add r26,r2
 5684 20ae B31D      		adc r27,r3
 5685               	.LVL464:
 687:/home/anaz/blinkyblocks/build/src-bobby/meldinterp-runtime/core.c ****     switch(TYPE_ARG_TYPE(type, delta_pos)) {
 5686               		.loc 1 687 0
 5687 20b0 ED85      		ldd r30,Y+13
 5688 20b2 FE85      		ldd r31,Y+14
 5689 20b4 2E0F      		add r18,r30
 5690 20b6 3F1F      		adc r19,r31
 5691 20b8 2050      		subi r18,lo8(-(meld_prog+7))
 5692 20ba 3040      		sbci r19,hi8(-(meld_prog+7))
 5693 20bc F901      		movw r30,r18
 5694 20be 8081      		ld r24,Z
 5695 20c0 8823      		tst r24
 5696 20c2 01F0      		breq .L365
 5697 20c4 8130      		cpi r24,lo8(1)
 5698 20c6 01F4      		brne .L396
 5699 20c8 00C0      		rjmp .L366
 5700               	.L365:
 689:/home/anaz/blinkyblocks/build/src-bobby/meldinterp-runtime/core.c ****       MELD_INT(field_delta) = MELD_INT(field_new) - MELD_INT(field_old);
 5701               		.loc 1 689 0
 5702 20ca 8D91      		ld r24,X+
 5703 20cc 9D91      		ld r25,X+
 5704 20ce 0D90      		ld __tmp_reg__,X+
 5705 20d0 BC91      		ld r27,X
 5706 20d2 A02D      		mov r26,__tmp_reg__
 5707 20d4 FB01      		movw r30,r22
 5708 20d6 4081      		ld r20,Z
 5709 20d8 5181      		ldd r21,Z+1
 5710 20da 6281      		ldd r22,Z+2
 5711 20dc 7381      		ldd r23,Z+3
 5712 20de 841B      		sub r24,r20
 5713 20e0 950B      		sbc r25,r21
 5714 20e2 A60B      		sbc r26,r22
 5715 20e4 B70B      		sbc r27,r23
 5716 20e6 F601      		movw r30,r12
 5717 20e8 8083      		st Z,r24
 5718 20ea 9183      		std Z+1,r25
 5719 20ec A283      		std Z+2,r26
 5720 20ee B383      		std Z+3,r27
 5721 20f0 00C0      		rjmp .L367
 5722               	.L366:
 692:/home/anaz/blinkyblocks/build/src-bobby/meldinterp-runtime/core.c ****       MELD_FLOAT(field_delta) = MELD_FLOAT(field_new) - MELD_FLOAT(field_old);
 5723               		.loc 1 692 0
 5724 20f2 FB01      		movw r30,r22
 5725 20f4 2081      		ld r18,Z
 5726 20f6 3181      		ldd r19,Z+1
 5727 20f8 4281      		ldd r20,Z+2
 5728 20fa 5381      		ldd r21,Z+3
 5729 20fc 6D91      		ld r22,X+
 5730 20fe 7D91      		ld r23,X+
 5731 2100 8D91      		ld r24,X+
 5732 2102 9C91      		ld r25,X
 5733               	.LVL465:
 5734 2104 0E94 0000 		call __subsf3
 5735               	.LVL466:
 5736 2108 D601      		movw r26,r12
 5737 210a 6D93      		st X+,r22
 5738 210c 7D93      		st X+,r23
 5739 210e 8D93      		st X+,r24
 5740 2110 9C93      		st X,r25
 5741 2112 1397      		sbiw r26,3
 5742 2114 00C0      		rjmp .L367
 5743               	.LVL467:
 5744               	.L396:
 695:/home/anaz/blinkyblocks/build/src-bobby/meldinterp-runtime/core.c ****       assert(0);
 5745               		.loc 1 695 0
 5746 2116 40E0      		ldi r20,lo8(.LC0)
 5747 2118 50E0      		ldi r21,hi8(.LC0)
 5748 211a 67EB      		ldi r22,lo8(-73)
 5749 211c 72E0      		ldi r23,lo8(2)
 5750               	.LVL468:
 5751 211e 80E0      		ldi r24,lo8(.LC1)
 5752 2120 90E0      		ldi r25,hi8(.LC1)
 5753 2122 0E94 0000 		call __myassert
 5754               	.LVL469:
 5755               	.L367:
 699:/home/anaz/blinkyblocks/build/src-bobby/meldinterp-runtime/core.c ****     tuple_process(delta_tuple, TYPE_START(TUPLE_TYPE(delta_tuple)), 1, reg);
 5756               		.loc 1 699 0
 5757 2126 D801      		movw r26,r16
 5758 2128 EC91      		ld r30,X
 5759 212a F0E0      		ldi r31,0
 5760 212c E050      		subi r30,lo8(-(meld_prog))
 5761 212e F040      		sbci r31,hi8(-(meld_prog))
 5762 2130 E181      		ldd r30,Z+1
 5763 2132 F0E0      		ldi r31,0
 5764 2134 E050      		subi r30,lo8(-(meld_prog))
 5765 2136 F040      		sbci r31,hi8(-(meld_prog))
 5766 2138 6081      		ld r22,Z
 5767 213a 7181      		ldd r23,Z+1
 5768 213c 6050      		subi r22,lo8(-(meld_prog))
 5769 213e 7040      		sbci r23,hi8(-(meld_prog))
 5770 2140 2985      		ldd r18,Y+9
 5771 2142 3A85      		ldd r19,Y+10
 5772 2144 41E0      		ldi r20,lo8(1)
 5773 2146 50E0      		ldi r21,0
 5774 2148 C801      		movw r24,r16
 5775 214a 0E94 0000 		call tuple_process
 5776               	.LVL470:
 5777               	.LBE270:
 675:/home/anaz/blinkyblocks/build/src-bobby/meldinterp-runtime/core.c ****   for(i = 0; i < DELTA_TOTAL(type); ++i) {
 5778               		.loc 1 675 0
 5779 214e BFEF      		ldi r27,-1
 5780 2150 AB1A      		sub r10,r27
 5781 2152 BB0A      		sbc r11,r27
 5782               	.LVL471:
 5783 2154 EB85      		ldd r30,Y+11
 5784 2156 FC85      		ldd r31,Y+12
 5785 2158 3296      		adiw r30,2
 5786 215a EB87      		std Y+11,r30
 5787 215c FC87      		std Y+12,r31
 5788               	.LVL472:
 5789               	.L363:
 5790 215e E091 0000 		lds r30,delta_sizes
 5791 2162 F091 0000 		lds r31,delta_sizes+1
 5792 2166 E80D      		add r30,r8
 5793 2168 F91D      		adc r31,r9
 5794 216a 8081      		ld r24,Z
 5795 216c 9181      		ldd r25,Z+1
 5796 216e A816      		cp r10,r24
 5797 2170 B906      		cpc r11,r25
 5798 2172 04F4      		brge .+2
 5799 2174 00C0      		rjmp .L368
 702:/home/anaz/blinkyblocks/build/src-bobby/meldinterp-runtime/core.c ****   FREE_TUPLE(old);
 5800               		.loc 1 702 0
 5801 2176 C701      		movw r24,r14
 5802 2178 0E94 0000 		call free
 5803               	.LVL473:
 5804               	.L362:
 5805               	.LBE269:
 5806               	.LBE268:
 824:/home/anaz/blinkyblocks/build/src-bobby/meldinterp-runtime/core.c ****       tuple_process(tuple, TYPE_START(TUPLE_TYPE(tuple)), isNew, reg);
 5807               		.loc 1 824 0
 5808 217c D101      		movw r26,r2
 5809 217e EC91      		ld r30,X
 5810 2180 F0E0      		ldi r31,0
 5811 2182 E050      		subi r30,lo8(-(meld_prog))
 5812 2184 F040      		sbci r31,hi8(-(meld_prog))
 5813 2186 E181      		ldd r30,Z+1
 5814 2188 F0E0      		ldi r31,0
 5815 218a 00C0      		rjmp .L398
 5816               	.LVL474:
 5817               	.L355:
 5818               	.LBE267:
 829:/home/anaz/blinkyblocks/build/src-bobby/meldinterp-runtime/core.c ****   unsigned char type_aggregate = TYPE_AGGREGATE(type);
 5819               		.loc 1 829 0
 5820 218c ED85      		ldd r30,Y+13
 5821 218e FE85      		ldd r31,Y+14
 5822 2190 E050      		subi r30,lo8(-(meld_prog+3))
 5823 2192 F040      		sbci r31,hi8(-(meld_prog+3))
 5824 2194 2081      		ld r18,Z
 5825 2196 2B87      		std Y+11,r18
 5826               	.LVL475:
 830:/home/anaz/blinkyblocks/build/src-bobby/meldinterp-runtime/core.c ****   unsigned char field_aggregate = AGG_FIELD(type_aggregate);
 5827               		.loc 1 830 0
 5828 2198 2F70      		andi r18,lo8(15)
 5829               	.LVL476:
 5830 219a 298B      		std Y+17,r18
 5831               	.LVL477:
 834:/home/anaz/blinkyblocks/build/src-bobby/meldinterp-runtime/core.c ****   tuple_queue *queue = &(TUPLES[type]);
 5832               		.loc 1 834 0
 5833 219c 6801      		movw r12,r16
 5834 219e CC0C      		lsl r12
 5835 21a0 DD1C      		rol r13
 5836 21a2 CC0C      		lsl r12
 5837 21a4 DD1C      		rol r13
 5838 21a6 8090 0000 		lds r8,tuples
 5839 21aa 9090 0000 		lds r9,tuples+1
 5840 21ae 8C0C      		add r8,r12
 5841 21b0 9D1C      		adc r9,r13
 5842               	.LVL478:
 836:/home/anaz/blinkyblocks/build/src-bobby/meldinterp-runtime/core.c ****   for (current = &queue->head;
 5843               		.loc 1 836 0
 5844 21b2 8F86      		std Y+15,r8
 5845 21b4 988A      		std Y+16,r9
 5846               	.LVL479:
 5847               	.LBB271:
 842:/home/anaz/blinkyblocks/build/src-bobby/meldinterp-runtime/core.c ****       size_t sizeBegin = TYPE_FIELD_SIZE + TYPE_ARG_OFFSET(type, field_aggregate);
 5848               		.loc 1 842 0
 5849 21b6 A090 0000 		lds r10,arguments
 5850 21ba B090 0000 		lds r11,arguments+1
 5851 21be 7C01      		movw r14,r24
 5852 21c0 9501      		movw r18,r10
 5853               	.LVL480:
 5854 21c2 280F      		add r18,r24
 5855 21c4 391F      		adc r19,r25
 5856 21c6 2A8B      		std Y+18,r18
 5857 21c8 3B8B      		std Y+19,r19
 5858 21ca 8501      		movw r16,r10
 5859               	.LVL481:
 5860 21cc 3989      		ldd r19,Y+17
 5861 21ce 030F      		add r16,r19
 5862 21d0 111D      		adc r17,__zero_reg__
 5863 21d2 030F      		add r16,r19
 5864 21d4 111D      		adc r17,__zero_reg__
 5865               	.LBE271:
 836:/home/anaz/blinkyblocks/build/src-bobby/meldinterp-runtime/core.c ****   for (current = &queue->head;
 5866               		.loc 1 836 0
 5867 21d6 00C0      		rjmp .L369
 5868               	.LVL482:
 5869               	.L377:
 5870               	.LBB273:
 842:/home/anaz/blinkyblocks/build/src-bobby/meldinterp-runtime/core.c ****       size_t sizeBegin = TYPE_FIELD_SIZE + TYPE_ARG_OFFSET(type, field_aggregate);
 5871               		.loc 1 842 0
 5872 21d8 AA89      		ldd r26,Y+18
 5873 21da BB89      		ldd r27,Y+19
 5874               	.LVL483:
 5875 21dc 8C91      		ld r24,X
 5876 21de F801      		movw r30,r16
 5877 21e0 E80F      		add r30,r24
 5878 21e2 F11D      		adc r31,__zero_reg__
 5879 21e4 4181      		ldd r20,Z+1
 5880 21e6 50E0      		ldi r21,0
 5881 21e8 4F5F      		subi r20,-1
 5882 21ea 5F4F      		sbci r21,-1
 845:/home/anaz/blinkyblocks/build/src-bobby/meldinterp-runtime/core.c ****       if(memcmp(start, tuple, sizeBegin))
 5883               		.loc 1 845 0
 5884 21ec B101      		movw r22,r2
 5885 21ee F301      		movw r30,r6
 5886 21f0 8481      		ldd r24,Z+4
 5887 21f2 9581      		ldd r25,Z+5
 5888 21f4 0E94 0000 		call memcmp
 5889               	.LVL484:
 5890 21f8 0097      		sbiw r24,0
 5891 21fa 01F0      		breq .L370
 5892               	.LBE273:
 838:/home/anaz/blinkyblocks/build/src-bobby/meldinterp-runtime/core.c ****        current = &(*current)->next)
 5893               		.loc 1 838 0
 5894 21fc 6F86      		std Y+15,r6
 5895 21fe 788A      		std Y+16,r7
 5896               	.LVL485:
 5897 2200 00C0      		rjmp .L369
 5898               	.LVL486:
 5899               	.L370:
 5900               	.LBB274:
 855:/home/anaz/blinkyblocks/build/src-bobby/meldinterp-runtime/core.c ****       tuple_queue *agg_queue = cur->records.agg_queue;
 5901               		.loc 1 855 0
 5902 2202 D301      		movw r26,r6
 5903 2204 1296      		adiw r26,2
 5904 2206 0D91      		ld r16,X+
 5905 2208 1C91      		ld r17,X
 5906 220a 1397      		sbiw r26,2+1
 5907               	.LVL487:
 858:/home/anaz/blinkyblocks/build/src-bobby/meldinterp-runtime/core.c ****       if(AGG_AGG(type_aggregate) == AGG_FIRST
 5908               		.loc 1 858 0
 5909 220c BB85      		ldd r27,Y+11
 5910 220e B295      		swap r27
 5911 2210 BF70      		andi r27,lo8(15)
 5912 2212 BB87      		std Y+11,r27
 5913 2214 B130      		cpi r27,lo8(1)
 5914 2216 01F4      		brne .L371
 859:/home/anaz/blinkyblocks/build/src-bobby/meldinterp-runtime/core.c **** 	 && isNew > 0
 5915               		.loc 1 859 0
 5916 2218 1414      		cp __zero_reg__,r4
 5917 221a 1504      		cpc __zero_reg__,r5
 5918 221c 04F4      		brge .L371
 5919               	.LVL488:
 860:/home/anaz/blinkyblocks/build/src-bobby/meldinterp-runtime/core.c **** 	 && !queue_is_empty(agg_queue))
 5920               		.loc 1 860 0
 5921 221e F801      		movw r30,r16
 5922 2220 8081      		ld r24,Z
 5923 2222 9181      		ldd r25,Z+1
 5924 2224 892B      		or r24,r25
 5925 2226 01F0      		breq .+2
 5926 2228 00C0      		rjmp .L349
 5927               	.LVL489:
 5928               	.L371:
 869:/home/anaz/blinkyblocks/build/src-bobby/meldinterp-runtime/core.c ****       for (current2 = &agg_queue->head;
 5929               		.loc 1 869 0
 5930 222a 6801      		movw r12,r16
 5931               	.LVL490:
 875:/home/anaz/blinkyblocks/build/src-bobby/meldinterp-runtime/core.c **** 	  if (memcmp(cur2->tuple, tuple, TYPE_SIZE(type)) == 0)
 5932               		.loc 1 875 0
 5933 222c AE0C      		add r10,r14
 5934 222e BF1C      		adc r11,r15
 5935 2230 FFEF      		ldi r31,-1
 5936 2232 AF1A      		sub r10,r31
 5937 2234 BF0A      		sbc r11,r31
 869:/home/anaz/blinkyblocks/build/src-bobby/meldinterp-runtime/core.c ****       for (current2 = &agg_queue->head;
 5938               		.loc 1 869 0
 5939 2236 00C0      		rjmp .L372
 5940               	.L376:
 5941               	.LVL491:
 875:/home/anaz/blinkyblocks/build/src-bobby/meldinterp-runtime/core.c **** 	  if (memcmp(cur2->tuple, tuple, TYPE_SIZE(type)) == 0)
 5942               		.loc 1 875 0
 5943 2238 D501      		movw r26,r10
 5944 223a 4C91      		ld r20,X
 5945 223c 50E0      		ldi r21,0
 5946 223e B101      		movw r22,r2
 5947 2240 F701      		movw r30,r14
 5948 2242 8481      		ldd r24,Z+4
 5949 2244 9581      		ldd r25,Z+5
 5950 2246 0E94 0000 		call memcmp
 5951               	.LVL492:
 5952 224a 0097      		sbiw r24,0
 5953 224c 01F0      		breq .+2
 5954 224e 00C0      		rjmp .L373
 877:/home/anaz/blinkyblocks/build/src-bobby/meldinterp-runtime/core.c **** 	      cur2->records.count += isNew;
 5955               		.loc 1 877 0
 5956 2250 D701      		movw r26,r14
 5957 2252 1296      		adiw r26,2
 5958 2254 8D91      		ld r24,X+
 5959 2256 9C91      		ld r25,X
 5960 2258 1397      		sbiw r26,2+1
 5961 225a 840D      		add r24,r4
 5962 225c 951D      		adc r25,r5
 5963 225e 1296      		adiw r26,2
 5964 2260 8D93      		st X+,r24
 5965 2262 9C93      		st X,r25
 5966 2264 1397      		sbiw r26,2+1
 879:/home/anaz/blinkyblocks/build/src-bobby/meldinterp-runtime/core.c **** 	      if (cur2->records.count <= 0) {
 5967               		.loc 1 879 0
 5968 2266 1816      		cp __zero_reg__,r24
 5969 2268 1906      		cpc __zero_reg__,r25
 5970 226a 04F0      		brlt .L374
 881:/home/anaz/blinkyblocks/build/src-bobby/meldinterp-runtime/core.c **** 		FREE_TUPLE(queue_dequeue_pos(agg_queue, current2));
 5971               		.loc 1 881 0
 5972 226c B601      		movw r22,r12
 5973 226e C801      		movw r24,r16
 5974 2270 0E94 0000 		call queue_dequeue_pos
 5975               	.LVL493:
 5976 2274 0E94 0000 		call free
 5977               	.LVL494:
 883:/home/anaz/blinkyblocks/build/src-bobby/meldinterp-runtime/core.c **** 		if (queue_is_empty(agg_queue)) {
 5978               		.loc 1 883 0
 5979 2278 F801      		movw r30,r16
 5980 227a 8081      		ld r24,Z
 5981 227c 9181      		ldd r25,Z+1
 5982 227e 892B      		or r24,r25
 5983 2280 01F4      		brne .L374
 5984               	.LBB272:
 885:/home/anaz/blinkyblocks/build/src-bobby/meldinterp-runtime/core.c **** 		  void *aggTuple = queue_dequeue_pos(queue, current);
 5985               		.loc 1 885 0
 5986 2282 6F85      		ldd r22,Y+15
 5987 2284 7889      		ldd r23,Y+16
 5988 2286 C401      		movw r24,r8
 5989 2288 0E94 0000 		call queue_dequeue_pos
 5990               	.LVL495:
 5991 228c 7C01      		movw r14,r24
 5992               	.LVL496:
 888:/home/anaz/blinkyblocks/build/src-bobby/meldinterp-runtime/core.c **** 		  free(agg_queue);
 5993               		.loc 1 888 0
 5994 228e C801      		movw r24,r16
 5995 2290 0E94 0000 		call free
 5996               	.LVL497:
 890:/home/anaz/blinkyblocks/build/src-bobby/meldinterp-runtime/core.c **** 		  tuple_process(aggTuple, TYPE_START(TUPLE_TYPE(aggTuple)), -1, reg);
 5997               		.loc 1 890 0
 5998 2294 D701      		movw r26,r14
 5999 2296 EC91      		ld r30,X
 6000 2298 F0E0      		ldi r31,0
 6001 229a E050      		subi r30,lo8(-(meld_prog))
 6002 229c F040      		sbci r31,hi8(-(meld_prog))
 6003 229e E181      		ldd r30,Z+1
 6004 22a0 F0E0      		ldi r31,0
 6005 22a2 E050      		subi r30,lo8(-(meld_prog))
 6006 22a4 F040      		sbci r31,hi8(-(meld_prog))
 6007 22a6 6081      		ld r22,Z
 6008 22a8 7181      		ldd r23,Z+1
 6009 22aa 6050      		subi r22,lo8(-(meld_prog))
 6010 22ac 7040      		sbci r23,hi8(-(meld_prog))
 6011 22ae 2985      		ldd r18,Y+9
 6012 22b0 3A85      		ldd r19,Y+10
 6013 22b2 4FEF      		ldi r20,lo8(-1)
 6014 22b4 5FEF      		ldi r21,lo8(-1)
 6015 22b6 C701      		movw r24,r14
 6016 22b8 0E94 0000 		call tuple_process
 6017               	.LVL498:
 891:/home/anaz/blinkyblocks/build/src-bobby/meldinterp-runtime/core.c **** 		  aggregate_free(aggTuple, field_aggregate, AGG_AGG(type_aggregate));
 6018               		.loc 1 891 0
 6019 22bc 4B85      		ldd r20,Y+11
 6020 22be 6989      		ldd r22,Y+17
 6021 22c0 C701      		movw r24,r14
 6022 22c2 0E94 0000 		call aggregate_free
 6023               	.LVL499:
 892:/home/anaz/blinkyblocks/build/src-bobby/meldinterp-runtime/core.c **** 		  FREE_TUPLE(aggTuple);
 6024               		.loc 1 892 0
 6025 22c6 C701      		movw r24,r14
 6026               	.LVL500:
 6027               	.L397:
 6028 22c8 0E94 0000 		call free
 6029               	.LVL501:
 6030 22cc 00C0      		rjmp .L349
 6031               	.LVL502:
 6032               	.L374:
 6033               	.LBE272:
 896:/home/anaz/blinkyblocks/build/src-bobby/meldinterp-runtime/core.c **** 		aggregate_recalc(cur, reg, false);
 6034               		.loc 1 896 0
 6035 22ce 40E0      		ldi r20,0
 6036 22d0 6985      		ldd r22,Y+9
 6037 22d2 7A85      		ldd r23,Y+10
 6038 22d4 C301      		movw r24,r6
 6039 22d6 0E94 0000 		call aggregate_recalc
 6040               	.LVL503:
 6041 22da 00C0      		rjmp .L349
 6042               	.L373:
 871:/home/anaz/blinkyblocks/build/src-bobby/meldinterp-runtime/core.c **** 	   current2 = &(*current2)->next)
 6043               		.loc 1 871 0
 6044 22dc 6701      		movw r12,r14
 6045               	.LVL504:
 6046               	.L372:
 870:/home/anaz/blinkyblocks/build/src-bobby/meldinterp-runtime/core.c **** 	   *current2 != NULL;
 6047               		.loc 1 870 0 discriminator 1
 6048 22de F601      		movw r30,r12
 6049 22e0 E080      		ld r14,Z
 6050 22e2 F180      		ldd r15,Z+1
 869:/home/anaz/blinkyblocks/build/src-bobby/meldinterp-runtime/core.c ****       for (current2 = &agg_queue->head;
 6051               		.loc 1 869 0 discriminator 1
 6052 22e4 E114      		cp r14,__zero_reg__
 6053 22e6 F104      		cpc r15,__zero_reg__
 6054 22e8 01F0      		breq .+2
 6055 22ea 00C0      		rjmp .L376
 904:/home/anaz/blinkyblocks/build/src-bobby/meldinterp-runtime/core.c ****       if (isNew <= 0) {
 6056               		.loc 1 904 0
 6057 22ec 1414      		cp __zero_reg__,r4
 6058 22ee 1504      		cpc __zero_reg__,r5
 6059 22f0 04F0      		brlt .+2
 6060 22f2 00C0      		rjmp .L349
 909:/home/anaz/blinkyblocks/build/src-bobby/meldinterp-runtime/core.c ****       queue_enqueue(agg_queue, tuple, (record_type) isNew);
 6061               		.loc 1 909 0
 6062 22f4 A201      		movw r20,r4
 6063 22f6 B101      		movw r22,r2
 6064 22f8 C801      		movw r24,r16
 6065 22fa 0E94 0000 		call queue_enqueue
 6066               	.LVL505:
 910:/home/anaz/blinkyblocks/build/src-bobby/meldinterp-runtime/core.c ****       aggregate_recalc(cur, reg, false);
 6067               		.loc 1 910 0
 6068 22fe 40E0      		ldi r20,0
 6069 2300 6985      		ldd r22,Y+9
 6070 2302 7A85      		ldd r23,Y+10
 6071 2304 C301      		movw r24,r6
 6072 2306 0E94 0000 		call aggregate_recalc
 6073               	.LVL506:
 912:/home/anaz/blinkyblocks/build/src-bobby/meldinterp-runtime/core.c ****       return;
 6074               		.loc 1 912 0
 6075 230a 00C0      		rjmp .L339
 6076               	.LVL507:
 6077               	.L369:
 6078               	.LBE274:
 837:/home/anaz/blinkyblocks/build/src-bobby/meldinterp-runtime/core.c ****        (*current) != NULL;
 6079               		.loc 1 837 0 discriminator 1
 6080 230c AF85      		ldd r26,Y+15
 6081 230e B889      		ldd r27,Y+16
 6082 2310 6D90      		ld r6,X+
 6083 2312 7C90      		ld r7,X
 836:/home/anaz/blinkyblocks/build/src-bobby/meldinterp-runtime/core.c ****   for (current = &queue->head;
 6084               		.loc 1 836 0 discriminator 1
 6085 2314 6114      		cp r6,__zero_reg__
 6086 2316 7104      		cpc r7,__zero_reg__
 6087 2318 01F0      		breq .+2
 6088 231a 00C0      		rjmp .L377
 916:/home/anaz/blinkyblocks/build/src-bobby/meldinterp-runtime/core.c ****   if (isNew <= 0) {
 6089               		.loc 1 916 0
 6090 231c 1414      		cp __zero_reg__,r4
 6091 231e 1504      		cpc __zero_reg__,r5
 6092 2320 04F0      		brlt .+2
 6093 2322 00C0      		rjmp .L349
 922:/home/anaz/blinkyblocks/build/src-bobby/meldinterp-runtime/core.c ****   tuple_t tuple_cpy = ALLOC_TUPLE(TYPE_SIZE(type));
 6094               		.loc 1 922 0
 6095 2324 F501      		movw r30,r10
 6096 2326 EE0D      		add r30,r14
 6097 2328 FF1D      		adc r31,r15
 6098 232a 4181      		ldd r20,Z+1
 6099 232c 842F      		mov r24,r20
 6100 232e 90E0      		ldi r25,0
 6101 2330 4E8B      		std Y+22,r20
 6102 2332 0E94 0000 		call malloc
 6103               	.LVL508:
 6104 2336 7C01      		movw r14,r24
 6105               	.LVL509:
 923:/home/anaz/blinkyblocks/build/src-bobby/meldinterp-runtime/core.c ****   memcpy(tuple_cpy, tuple, TYPE_SIZE(type));
 6106               		.loc 1 923 0
 6107 2338 4E89      		ldd r20,Y+22
 6108 233a 50E0      		ldi r21,0
 6109 233c B101      		movw r22,r2
 6110 233e 0E94 0000 		call memcpy
 6111               	.LVL510:
 926:/home/anaz/blinkyblocks/build/src-bobby/meldinterp-runtime/core.c ****   tuple_queue *agg_queue = malloc(sizeof(tuple_queue));
 6112               		.loc 1 926 0
 6113 2342 84E0      		ldi r24,lo8(4)
 6114 2344 90E0      		ldi r25,0
 6115 2346 0E94 0000 		call malloc
 6116               	.LVL511:
 6117 234a B92E      		mov r11,r25
 6118 234c 082F      		mov r16,r24
 6119 234e 192F      		mov r17,r25
 6120               	.LVL512:
 6121               	.LBB275:
 6122               	.LBB276:
 227:/home/anaz/blinkyblocks/build/src-bobby/meldinterp-runtime/core.h **** 	
 228:/home/anaz/blinkyblocks/build/src-bobby/meldinterp-runtime/core.h **** #ifdef TUPLE_ALLOC_DEBUG
 229:/home/anaz/blinkyblocks/build/src-bobby/meldinterp-runtime/core.h ****   printf("New %s(%d) tuple\n", tuple_names[type], type);
 230:/home/anaz/blinkyblocks/build/src-bobby/meldinterp-runtime/core.h **** #endif
 231:/home/anaz/blinkyblocks/build/src-bobby/meldinterp-runtime/core.h **** 
 232:/home/anaz/blinkyblocks/build/src-bobby/meldinterp-runtime/core.h **** 	return tuple;
 233:/home/anaz/blinkyblocks/build/src-bobby/meldinterp-runtime/core.h **** }
 234:/home/anaz/blinkyblocks/build/src-bobby/meldinterp-runtime/core.h **** 
 235:/home/anaz/blinkyblocks/build/src-bobby/meldinterp-runtime/core.h **** 
 236:/home/anaz/blinkyblocks/build/src-bobby/meldinterp-runtime/core.h **** void tuple_handle(tuple_t tuple, int isNew, Register *reg);
 237:/home/anaz/blinkyblocks/build/src-bobby/meldinterp-runtime/core.h **** void tuple_send(tuple_t tuple, void *rt, meld_int delay, int isNew);
 238:/home/anaz/blinkyblocks/build/src-bobby/meldinterp-runtime/core.h **** void tuple_do_handle(tuple_type type,	void *tuple, int isNew, Register *reg);
 239:/home/anaz/blinkyblocks/build/src-bobby/meldinterp-runtime/core.h **** int tuple_process(tuple_t tuple, const unsigned char *pc,
 240:/home/anaz/blinkyblocks/build/src-bobby/meldinterp-runtime/core.h **** 	int isNew, Register *reg);
 241:/home/anaz/blinkyblocks/build/src-bobby/meldinterp-runtime/core.h **** void tuple_print(tuple_t tuple, FILE *fp);
 242:/home/anaz/blinkyblocks/build/src-bobby/meldinterp-runtime/core.h **** 
 243:/home/anaz/blinkyblocks/build/src-bobby/meldinterp-runtime/core.h **** 
 244:/home/anaz/blinkyblocks/build/src-bobby/meldinterp-runtime/core.h **** static inline void
 245:/home/anaz/blinkyblocks/build/src-bobby/meldinterp-runtime/core.h **** tuple_dump(void *tuple)
 246:/home/anaz/blinkyblocks/build/src-bobby/meldinterp-runtime/core.h **** {
 247:/home/anaz/blinkyblocks/build/src-bobby/meldinterp-runtime/core.h **** 	tuple_print(tuple, stderr);
 248:/home/anaz/blinkyblocks/build/src-bobby/meldinterp-runtime/core.h **** 	fprintf(stderr, "\n");
 249:/home/anaz/blinkyblocks/build/src-bobby/meldinterp-runtime/core.h **** }
 250:/home/anaz/blinkyblocks/build/src-bobby/meldinterp-runtime/core.h **** 
 251:/home/anaz/blinkyblocks/build/src-bobby/meldinterp-runtime/core.h **** void print_program_info(void);
 252:/home/anaz/blinkyblocks/build/src-bobby/meldinterp-runtime/core.h **** 
 253:/home/anaz/blinkyblocks/build/src-bobby/meldinterp-runtime/core.h **** void init_deltas(void);
 254:/home/anaz/blinkyblocks/build/src-bobby/meldinterp-runtime/core.h **** void init_fields(void);
 255:/home/anaz/blinkyblocks/build/src-bobby/meldinterp-runtime/core.h **** void facts_dump(void);
 256:/home/anaz/blinkyblocks/build/src-bobby/meldinterp-runtime/core.h **** void init_consts(void);
 257:/home/anaz/blinkyblocks/build/src-bobby/meldinterp-runtime/core.h **** 
 258:/home/anaz/blinkyblocks/build/src-bobby/meldinterp-runtime/core.h **** tuple_entry* queue_enqueue(tuple_queue *queue, tuple_t tuple, record_type isNew);
 259:/home/anaz/blinkyblocks/build/src-bobby/meldinterp-runtime/core.h **** bool queue_is_empty(tuple_queue *queue);
 260:/home/anaz/blinkyblocks/build/src-bobby/meldinterp-runtime/core.h **** tuple_t queue_dequeue(tuple_queue *queue, int *isNew);
 261:/home/anaz/blinkyblocks/build/src-bobby/meldinterp-runtime/core.h **** tuple_t queue_pop_tuple(tuple_queue *queue);
 262:/home/anaz/blinkyblocks/build/src-bobby/meldinterp-runtime/core.h **** void queue_push_tuple(tuple_queue *queue, tuple_entry *entry);
 263:/home/anaz/blinkyblocks/build/src-bobby/meldinterp-runtime/core.h **** 
 264:/home/anaz/blinkyblocks/build/src-bobby/meldinterp-runtime/core.h **** static inline void
 265:/home/anaz/blinkyblocks/build/src-bobby/meldinterp-runtime/core.h **** queue_init(tuple_queue *queue)
 266:/home/anaz/blinkyblocks/build/src-bobby/meldinterp-runtime/core.h **** {
 267:/home/anaz/blinkyblocks/build/src-bobby/meldinterp-runtime/core.h ****   queue->head = queue->tail = NULL;
 6123               		.loc 3 267 0
 6124 2350 F801      		movw r30,r16
 6125 2352 1282      		std Z+2,__zero_reg__
 6126 2354 1382      		std Z+3,__zero_reg__
 6127 2356 1082      		st Z,__zero_reg__
 6128 2358 1182      		std Z+1,__zero_reg__
 6129               	.LBE276:
 6130               	.LBE275:
 930:/home/anaz/blinkyblocks/build/src-bobby/meldinterp-runtime/core.c ****   queue_enqueue(agg_queue, tuple, (record_type) isNew);
 6131               		.loc 1 930 0
 6132 235a A201      		movw r20,r4
 6133 235c B101      		movw r22,r2
 6134 235e C801      		movw r24,r16
 6135 2360 0E94 0000 		call queue_enqueue
 6136               	.LVL513:
 932:/home/anaz/blinkyblocks/build/src-bobby/meldinterp-runtime/core.c ****     queue_enqueue(&TUPLES[type], tuple_cpy, (record_type)agg_queue);
 6137               		.loc 1 932 0
 6138 2364 8091 0000 		lds r24,tuples
 6139 2368 9091 0000 		lds r25,tuples+1
 931:/home/anaz/blinkyblocks/build/src-bobby/meldinterp-runtime/core.c ****   tuple_entry *entry =
 6140               		.loc 1 931 0
 6141 236c 402F      		mov r20,r16
 6142 236e 5B2D      		mov r21,r11
 6143 2370 B701      		movw r22,r14
 6144 2372 8C0D      		add r24,r12
 6145 2374 9D1D      		adc r25,r13
 6146 2376 0E94 0000 		call queue_enqueue
 6147               	.LVL514:
 934:/home/anaz/blinkyblocks/build/src-bobby/meldinterp-runtime/core.c ****   aggregate_recalc(entry, reg, true);
 6148               		.loc 1 934 0
 6149 237a 41E0      		ldi r20,lo8(1)
 6150 237c 6985      		ldd r22,Y+9
 6151 237e 7A85      		ldd r23,Y+10
 6152 2380 0E94 0000 		call aggregate_recalc
 6153               	.LVL515:
 6154               	.L399:
 935:/home/anaz/blinkyblocks/build/src-bobby/meldinterp-runtime/core.c ****   tuple_process(tuple, TYPE_START(type), isNew, reg);
 6155               		.loc 1 935 0
 6156 2384 ED85      		ldd r30,Y+13
 6157 2386 FE85      		ldd r31,Y+14
 6158               	.L398:
 6159 2388 E050      		subi r30,lo8(-(meld_prog))
 6160 238a F040      		sbci r31,hi8(-(meld_prog))
 6161 238c 6081      		ld r22,Z
 6162 238e 7181      		ldd r23,Z+1
 6163 2390 6050      		subi r22,lo8(-(meld_prog))
 6164 2392 7040      		sbci r23,hi8(-(meld_prog))
 6165 2394 2985      		ldd r18,Y+9
 6166 2396 3A85      		ldd r19,Y+10
 6167 2398 A201      		movw r20,r4
 6168 239a C101      		movw r24,r2
 6169 239c 0E94 0000 		call tuple_process
 6170               	.LVL516:
 6171               	.L339:
 6172               	/* epilogue start */
 936:/home/anaz/blinkyblocks/build/src-bobby/meldinterp-runtime/core.c **** }
 6173               		.loc 1 936 0
 6174 23a0 6696      		adiw r28,22
 6175 23a2 CDBF      		out __SP_L__,r28
 6176 23a4 DEBF      		out __SP_H__,r29
 6177 23a6 DF91      		pop r29
 6178 23a8 CF91      		pop r28
 6179 23aa 1F91      		pop r17
 6180 23ac 0F91      		pop r16
 6181 23ae FF90      		pop r15
 6182 23b0 EF90      		pop r14
 6183 23b2 DF90      		pop r13
 6184 23b4 CF90      		pop r12
 6185 23b6 BF90      		pop r11
 6186 23b8 AF90      		pop r10
 6187 23ba 9F90      		pop r9
 6188 23bc 8F90      		pop r8
 6189 23be 7F90      		pop r7
 6190 23c0 6F90      		pop r6
 6191 23c2 5F90      		pop r5
 6192 23c4 4F90      		pop r4
 6193               	.LVL517:
 6194 23c6 3F90      		pop r3
 6195 23c8 2F90      		pop r2
 6196               	.LVL518:
 6197 23ca 0895      		ret
 6198               	.LFE40:
 6200               		.section	.rodata.str1.1
 6201               	.LC14:
 6202 0173 2573 2800 		.string	"%s("
 6203               	.LC15:
 6204 0177 2C20 00   		.string	", "
 6205               	.LC16:
 6206 017a 256C 6400 		.string	"%ld"
 6207               	.LC17:
 6208 017e 2566 00   		.string	"%f"
 6209               	.LC18:
 6210 0181 2570 00   		.string	"%p"
 6211               	.LC19:
 6212 0184 6C69 7374 		.string	"list_int[%d][%p]"
 6212      5F69 6E74 
 6212      5B25 645D 
 6212      5B25 705D 
 6212      00
 6213               	.LC20:
 6214 0195 6C69 7374 		.string	"list_float[%d][%p]"
 6214      5F66 6C6F 
 6214      6174 5B25 
 6214      645D 5B25 
 6214      705D 00
 6215               	.LC21:
 6216 01a8 6C69 7374 		.string	"list_addr[%p]"
 6216      5F61 6464 
 6216      725B 2570 
 6216      5D00 
 6217               	.LC22:
 6218 01b6 7365 745F 		.string	"set_int[%d][%p]"
 6218      696E 745B 
 6218      2564 5D5B 
 6218      2570 5D00 
 6219               	.LC23:
 6220 01c6 7365 745F 		.string	"set_float[%d][%p]"
 6220      666C 6F61 
 6220      745B 2564 
 6220      5D5B 2570 
 6220      5D00 
 6221               		.text
 6222               	.global	tuple_print
 6224               	tuple_print:
 6225               	.LFB43:
1366:/home/anaz/blinkyblocks/build/src-bobby/meldinterp-runtime/core.c **** {
 6226               		.loc 1 1366 0
 6227               	.LVL519:
 6228 23cc 2F92      		push r2
 6229               	.LCFI116:
 6230 23ce 3F92      		push r3
 6231               	.LCFI117:
 6232 23d0 4F92      		push r4
 6233               	.LCFI118:
 6234 23d2 5F92      		push r5
 6235               	.LCFI119:
 6236 23d4 6F92      		push r6
 6237               	.LCFI120:
 6238 23d6 7F92      		push r7
 6239               	.LCFI121:
 6240 23d8 8F92      		push r8
 6241               	.LCFI122:
 6242 23da 9F92      		push r9
 6243               	.LCFI123:
 6244 23dc AF92      		push r10
 6245               	.LCFI124:
 6246 23de BF92      		push r11
 6247               	.LCFI125:
 6248 23e0 CF92      		push r12
 6249               	.LCFI126:
 6250 23e2 DF92      		push r13
 6251               	.LCFI127:
 6252 23e4 EF92      		push r14
 6253               	.LCFI128:
 6254 23e6 FF92      		push r15
 6255               	.LCFI129:
 6256 23e8 0F93      		push r16
 6257               	.LCFI130:
 6258 23ea 1F93      		push r17
 6259               	.LCFI131:
 6260 23ec CF93      		push r28
 6261               	.LCFI132:
 6262 23ee DF93      		push r29
 6263               	.LCFI133:
 6264 23f0 00D0      		rcall .
 6265 23f2 1F92      		push __zero_reg__
 6266               	.LCFI134:
 6267 23f4 CDB7      		in r28,__SP_L__
 6268 23f6 DEB7      		in r29,__SP_H__
 6269               	.LCFI135:
 6270               	/* prologue: function */
 6271               	/* frame size = 4 */
 6272               	/* stack size = 22 */
 6273               	.L__stack_usage = 22
 6274 23f8 8C01      		movw r16,r24
 6275 23fa 1B01      		movw r2,r22
 6276               	.LVL520:
1370:/home/anaz/blinkyblocks/build/src-bobby/meldinterp-runtime/core.c ****   fprintf(fp, "%s(", TYPE_NAME(tuple_type));
 6277               		.loc 1 1370 0
 6278 23fc DC01      		movw r26,r24
 6279 23fe EC90      		ld r14,X
 6280 2400 F12C      		mov r15,__zero_reg__
 6281 2402 F701      		movw r30,r14
 6282 2404 EE0F      		lsl r30
 6283 2406 FF1F      		rol r31
 6284 2408 E050      		subi r30,lo8(-(tuple_names))
 6285 240a F040      		sbci r31,hi8(-(tuple_names))
 6286 240c 8181      		ldd r24,Z+1
 6287               	.LVL521:
 6288 240e 8F93      		push r24
 6289 2410 8081      		ld r24,Z
 6290 2412 8F93      		push r24
 6291 2414 80E0      		ldi r24,lo8(.LC14)
 6292 2416 90E0      		ldi r25,hi8(.LC14)
 6293 2418 9F93      		push r25
 6294 241a 8F93      		push r24
 6295 241c 3F92      		push r3
 6296 241e 6F93      		push r22
 6297 2420 0E94 0000 		call fprintf
 6298               	.LVL522:
1371:/home/anaz/blinkyblocks/build/src-bobby/meldinterp-runtime/core.c ****   for(j = 0; j < TYPE_NOARGS(tuple_type); ++j) {
 6299               		.loc 1 1371 0
 6300 2424 0F90      		pop __tmp_reg__
 6301 2426 0F90      		pop __tmp_reg__
 6302 2428 0F90      		pop __tmp_reg__
 6303 242a 0F90      		pop __tmp_reg__
 6304 242c 0F90      		pop __tmp_reg__
 6305 242e 0F90      		pop __tmp_reg__
 6306 2430 1982      		std Y+1,__zero_reg__
 6307 2432 1A82      		std Y+2,__zero_reg__
 6308 2434 F701      		movw r30,r14
 6309 2436 E050      		subi r30,lo8(-(meld_prog+1))
 6310 2438 F040      		sbci r31,hi8(-(meld_prog+1))
 6311 243a E080      		ld r14,Z
 6312               	.LVL523:
 6313 243c F12C      		mov r15,__zero_reg__
 6314 243e 9701      		movw r18,r14
 6315 2440 2050      		subi r18,lo8(-(meld_prog+5))
 6316 2442 3040      		sbci r19,hi8(-(meld_prog+5))
 6317 2444 2B83      		std Y+3,r18
 6318 2446 3C83      		std Y+4,r19
 6319               	.LBB277:
1386:/home/anaz/blinkyblocks/build/src-bobby/meldinterp-runtime/core.c ****       fprintf(fp, "%f", (double)MELD_FLOAT(field));
 6320               		.loc 1 1386 0
 6321 2448 B0E0      		ldi r27,lo8(.LC17)
 6322 244a 6B2E      		mov r6,r27
 6323 244c B0E0      		ldi r27,hi8(.LC17)
 6324 244e 7B2E      		mov r7,r27
1380:/home/anaz/blinkyblocks/build/src-bobby/meldinterp-runtime/core.c ****       fprintf(fp, "%ld", MELD_INT(field));
 6325               		.loc 1 1380 0
 6326 2450 80E0      		ldi r24,lo8(.LC16)
 6327 2452 C82E      		mov r12,r24
 6328 2454 80E0      		ldi r24,hi8(.LC16)
 6329 2456 D82E      		mov r13,r24
1389:/home/anaz/blinkyblocks/build/src-bobby/meldinterp-runtime/core.c ****       fprintf(fp, "%p", MELD_PTR(field));
 6330               		.loc 1 1389 0
 6331 2458 90E0      		ldi r25,lo8(.LC18)
 6332 245a A92E      		mov r10,r25
 6333 245c 90E0      		ldi r25,hi8(.LC18)
 6334 245e B92E      		mov r11,r25
1392:/home/anaz/blinkyblocks/build/src-bobby/meldinterp-runtime/core.c ****       fprintf(fp, "list_int[%d][%p]", list_total(MELD_LIST(field)),
 6335               		.loc 1 1392 0
 6336 2460 20E0      		ldi r18,lo8(.LC19)
 6337 2462 822E      		mov r8,r18
 6338 2464 20E0      		ldi r18,hi8(.LC19)
 6339 2466 922E      		mov r9,r18
 6340               	.LBE277:
1371:/home/anaz/blinkyblocks/build/src-bobby/meldinterp-runtime/core.c ****   for(j = 0; j < TYPE_NOARGS(tuple_type); ++j) {
 6341               		.loc 1 1371 0
 6342 2468 00C0      		rjmp .L401
 6343               	.LVL524:
 6344               	.L415:
 6345               	.LBB278:
1372:/home/anaz/blinkyblocks/build/src-bobby/meldinterp-runtime/core.c ****     void *field = GET_TUPLE_FIELD(tuple, j);
 6346               		.loc 1 1372 0
 6347 246a 8091 0000 		lds r24,arguments
 6348 246e 9091 0000 		lds r25,arguments+1
 6349 2472 D801      		movw r26,r16
 6350 2474 2C91      		ld r18,X
 6351               	.LVL525:
 6352 2476 FC01      		movw r30,r24
 6353 2478 E20F      		add r30,r18
 6354 247a F11D      		adc r31,__zero_reg__
 6355 247c E20F      		add r30,r18
 6356 247e F11D      		adc r31,__zero_reg__
 6357 2480 2081      		ld r18,Z
 6358 2482 E981      		ldd r30,Y+1
 6359 2484 FA81      		ldd r31,Y+2
 6360 2486 EE0F      		lsl r30
 6361 2488 FF1F      		rol r31
 6362 248a E80F      		add r30,r24
 6363 248c F91F      		adc r31,r25
 6364 248e E20F      		add r30,r18
 6365 2490 F11D      		adc r31,__zero_reg__
 6366 2492 4180      		ldd r4,Z+1
 6367 2494 512C      		mov r5,__zero_reg__
 6368 2496 BFEF      		ldi r27,-1
 6369 2498 4B1A      		sub r4,r27
 6370 249a 5B0A      		sbc r5,r27
 6371 249c 400E      		add r4,r16
 6372 249e 511E      		adc r5,r17
 6373               	.LVL526:
1374:/home/anaz/blinkyblocks/build/src-bobby/meldinterp-runtime/core.c ****     if (j > 0)
 6374               		.loc 1 1374 0
 6375 24a0 2981      		ldd r18,Y+1
 6376 24a2 3A81      		ldd r19,Y+2
 6377 24a4 232B      		or r18,r19
 6378 24a6 01F0      		breq .L402
1375:/home/anaz/blinkyblocks/build/src-bobby/meldinterp-runtime/core.c ****       fprintf(fp, ", ");
 6379               		.loc 1 1375 0
 6380 24a8 B101      		movw r22,r2
 6381 24aa 80E0      		ldi r24,lo8(.LC15)
 6382 24ac 90E0      		ldi r25,hi8(.LC15)
 6383 24ae 0E94 0000 		call fputs
 6384               	.LVL527:
 6385               	.L402:
1377:/home/anaz/blinkyblocks/build/src-bobby/meldinterp-runtime/core.c ****     switch(TYPE_ARG_TYPE(tuple_type, j)) {
 6386               		.loc 1 1377 0
 6387 24b2 E981      		ldd r30,Y+1
 6388 24b4 FA81      		ldd r31,Y+2
 6389 24b6 EE0D      		add r30,r14
 6390 24b8 FF1D      		adc r31,r15
 6391 24ba E050      		subi r30,lo8(-(meld_prog+7))
 6392 24bc F040      		sbci r31,hi8(-(meld_prog+7))
 6393 24be 8081      		ld r24,Z
 6394 24c0 8430      		cpi r24,lo8(4)
 6395 24c2 01F4      		brne .+2
 6396 24c4 00C0      		rjmp .L408
 6397 24c6 00F4      		brsh .L413
 6398 24c8 8130      		cpi r24,lo8(1)
 6399 24ca 01F0      		breq .L405
 6400 24cc 00F0      		brlo .L404
 6401 24ce 8230      		cpi r24,lo8(2)
 6402 24d0 01F0      		breq .L406
 6403 24d2 8330      		cpi r24,lo8(3)
 6404 24d4 01F0      		breq .+2
 6405 24d6 00C0      		rjmp .L403
 6406 24d8 00C0      		rjmp .L407
 6407               	.L413:
 6408 24da 8630      		cpi r24,lo8(6)
 6409 24dc 01F4      		brne .+2
 6410 24de 00C0      		rjmp .L410
 6411 24e0 00F4      		brsh .+2
 6412 24e2 00C0      		rjmp .L409
 6413 24e4 8730      		cpi r24,lo8(7)
 6414 24e6 01F4      		brne .+2
 6415 24e8 00C0      		rjmp .L411
 6416 24ea 8830      		cpi r24,lo8(8)
 6417 24ec 01F0      		breq .+2
 6418 24ee 00C0      		rjmp .L403
 6419 24f0 00C0      		rjmp .L412
 6420               	.L404:
1380:/home/anaz/blinkyblocks/build/src-bobby/meldinterp-runtime/core.c ****       fprintf(fp, "%ld", MELD_INT(field));
 6421               		.loc 1 1380 0
 6422 24f2 D201      		movw r26,r4
 6423 24f4 1396      		adiw r26,3
 6424 24f6 8C91      		ld r24,X
 6425 24f8 1397      		sbiw r26,3
 6426 24fa 8F93      		push r24
 6427 24fc 1296      		adiw r26,2
 6428 24fe 8C91      		ld r24,X
 6429 2500 1297      		sbiw r26,2
 6430 2502 8F93      		push r24
 6431 2504 1196      		adiw r26,1
 6432 2506 8C91      		ld r24,X
 6433 2508 1197      		sbiw r26,1
 6434 250a 8F93      		push r24
 6435 250c 8C91      		ld r24,X
 6436 250e 8F93      		push r24
 6437 2510 DF92      		push r13
 6438 2512 CF92      		push r12
 6439 2514 00C0      		rjmp .L419
 6440               	.L405:
1386:/home/anaz/blinkyblocks/build/src-bobby/meldinterp-runtime/core.c ****       fprintf(fp, "%f", (double)MELD_FLOAT(field));
 6441               		.loc 1 1386 0
 6442 2516 D201      		movw r26,r4
 6443 2518 1396      		adiw r26,3
 6444 251a 8C91      		ld r24,X
 6445 251c 1397      		sbiw r26,3
 6446 251e 8F93      		push r24
 6447 2520 1296      		adiw r26,2
 6448 2522 8C91      		ld r24,X
 6449 2524 1297      		sbiw r26,2
 6450 2526 8F93      		push r24
 6451 2528 1196      		adiw r26,1
 6452 252a 8C91      		ld r24,X
 6453 252c 1197      		sbiw r26,1
 6454 252e 8F93      		push r24
 6455 2530 8C91      		ld r24,X
 6456 2532 8F93      		push r24
 6457 2534 7F92      		push r7
 6458 2536 6F92      		push r6
 6459               	.L419:
 6460 2538 3F92      		push r3
 6461 253a 2F92      		push r2
 6462 253c 0E94 0000 		call fprintf
 6463               	.LVL528:
1387:/home/anaz/blinkyblocks/build/src-bobby/meldinterp-runtime/core.c ****       break;
 6464               		.loc 1 1387 0
 6465 2540 CDBF      		out __SP_L__,r28
 6466 2542 DEBF      		out __SP_H__,r29
 6467 2544 00C0      		rjmp .L414
 6468               	.L406:
1389:/home/anaz/blinkyblocks/build/src-bobby/meldinterp-runtime/core.c ****       fprintf(fp, "%p", MELD_PTR(field));
 6469               		.loc 1 1389 0
 6470 2546 D201      		movw r26,r4
 6471 2548 1196      		adiw r26,1
 6472 254a 8C91      		ld r24,X
 6473 254c 1197      		sbiw r26,1
 6474 254e 8F93      		push r24
 6475 2550 8C91      		ld r24,X
 6476 2552 8F93      		push r24
 6477 2554 BF92      		push r11
 6478 2556 AF92      		push r10
 6479 2558 00C0      		rjmp .L420
 6480               	.L407:
1392:/home/anaz/blinkyblocks/build/src-bobby/meldinterp-runtime/core.c ****       fprintf(fp, "list_int[%d][%p]", list_total(MELD_LIST(field)),
 6481               		.loc 1 1392 0
 6482 255a D201      		movw r26,r4
 6483 255c ED91      		ld r30,X+
 6484 255e FC91      		ld r31,X
 6485 2560 FF93      		push r31
 6486 2562 EF93      		push r30
 6487 2564 8581      		ldd r24,Z+5
 6488 2566 8F93      		push r24
 6489 2568 8481      		ldd r24,Z+4
 6490 256a 8F93      		push r24
 6491 256c 9F92      		push r9
 6492 256e 8F92      		push r8
 6493 2570 00C0      		rjmp .L419
 6494               	.L408:
1396:/home/anaz/blinkyblocks/build/src-bobby/meldinterp-runtime/core.c ****       fprintf(fp, "list_float[%d][%p]", list_total(MELD_LIST(field)),
 6495               		.loc 1 1396 0
 6496 2572 D201      		movw r26,r4
 6497 2574 ED91      		ld r30,X+
 6498 2576 FC91      		ld r31,X
 6499 2578 FF93      		push r31
 6500 257a EF93      		push r30
 6501 257c 8581      		ldd r24,Z+5
 6502 257e 8F93      		push r24
 6503 2580 8481      		ldd r24,Z+4
 6504 2582 8F93      		push r24
 6505 2584 E0E0      		ldi r30,lo8(.LC20)
 6506 2586 F0E0      		ldi r31,hi8(.LC20)
 6507 2588 00C0      		rjmp .L422
 6508               	.L409:
1400:/home/anaz/blinkyblocks/build/src-bobby/meldinterp-runtime/core.c ****       fprintf(fp, "list_addr[%p]", *(void **)field);
 6509               		.loc 1 1400 0
 6510 258a D201      		movw r26,r4
 6511 258c 1196      		adiw r26,1
 6512 258e 8C91      		ld r24,X
 6513 2590 1197      		sbiw r26,1
 6514 2592 8F93      		push r24
 6515 2594 8C91      		ld r24,X
 6516 2596 8F93      		push r24
 6517 2598 E0E0      		ldi r30,lo8(.LC21)
 6518 259a F0E0      		ldi r31,hi8(.LC21)
 6519 259c FF93      		push r31
 6520 259e EF93      		push r30
 6521               	.L420:
 6522 25a0 3F92      		push r3
 6523 25a2 2F92      		push r2
 6524 25a4 0E94 0000 		call fprintf
 6525               	.LVL529:
1401:/home/anaz/blinkyblocks/build/src-bobby/meldinterp-runtime/core.c ****       break;
 6526               		.loc 1 1401 0
 6527 25a8 0F90      		pop __tmp_reg__
 6528 25aa 0F90      		pop __tmp_reg__
 6529 25ac 0F90      		pop __tmp_reg__
 6530 25ae 0F90      		pop __tmp_reg__
 6531 25b0 0F90      		pop __tmp_reg__
 6532 25b2 0F90      		pop __tmp_reg__
 6533 25b4 00C0      		rjmp .L414
 6534               	.L410:
1403:/home/anaz/blinkyblocks/build/src-bobby/meldinterp-runtime/core.c ****       fprintf(fp, "set_int[%d][%p]", set_total(MELD_SET(field)),
 6535               		.loc 1 1403 0
 6536 25b6 D201      		movw r26,r4
 6537 25b8 ED91      		ld r30,X+
 6538 25ba FC91      		ld r31,X
 6539 25bc FF93      		push r31
 6540 25be EF93      		push r30
 6541 25c0 8381      		ldd r24,Z+3
 6542 25c2 8F93      		push r24
 6543 25c4 8281      		ldd r24,Z+2
 6544 25c6 8F93      		push r24
 6545 25c8 E0E0      		ldi r30,lo8(.LC22)
 6546 25ca F0E0      		ldi r31,hi8(.LC22)
 6547 25cc 00C0      		rjmp .L422
 6548               	.L411:
1407:/home/anaz/blinkyblocks/build/src-bobby/meldinterp-runtime/core.c ****       fprintf(fp, "set_float[%d][%p]", set_total(MELD_SET(field)),
 6549               		.loc 1 1407 0
 6550 25ce D201      		movw r26,r4
 6551 25d0 ED91      		ld r30,X+
 6552 25d2 FC91      		ld r31,X
 6553 25d4 FF93      		push r31
 6554 25d6 EF93      		push r30
 6555 25d8 8381      		ldd r24,Z+3
 6556 25da 8F93      		push r24
 6557 25dc 8281      		ldd r24,Z+2
 6558 25de 8F93      		push r24
 6559 25e0 E0E0      		ldi r30,lo8(.LC23)
 6560 25e2 F0E0      		ldi r31,hi8(.LC23)
 6561               	.L422:
 6562 25e4 FF93      		push r31
 6563 25e6 EF93      		push r30
 6564 25e8 00C0      		rjmp .L419
 6565               	.L412:
1411:/home/anaz/blinkyblocks/build/src-bobby/meldinterp-runtime/core.c ****       fprintf(fp, "%s", TYPE_NAME(MELD_INT(field)));
 6566               		.loc 1 1411 0
 6567 25ea D201      		movw r26,r4
 6568 25ec ED91      		ld r30,X+
 6569 25ee FC91      		ld r31,X
 6570 25f0 EE0F      		lsl r30
 6571 25f2 FF1F      		rol r31
 6572 25f4 E050      		subi r30,lo8(-(tuple_names))
 6573 25f6 F040      		sbci r31,hi8(-(tuple_names))
 6574 25f8 B101      		movw r22,r2
 6575 25fa 8081      		ld r24,Z
 6576 25fc 9181      		ldd r25,Z+1
 6577 25fe 0E94 0000 		call fputs
 6578               	.LVL530:
1412:/home/anaz/blinkyblocks/build/src-bobby/meldinterp-runtime/core.c ****       break;
 6579               		.loc 1 1412 0
 6580 2602 00C0      		rjmp .L414
 6581               	.L403:
1414:/home/anaz/blinkyblocks/build/src-bobby/meldinterp-runtime/core.c ****       assert(0);
 6582               		.loc 1 1414 0
 6583 2604 40E0      		ldi r20,lo8(.LC0)
 6584 2606 50E0      		ldi r21,hi8(.LC0)
 6585 2608 66E8      		ldi r22,lo8(-122)
 6586 260a 75E0      		ldi r23,lo8(5)
 6587 260c 80E0      		ldi r24,lo8(.LC1)
 6588 260e 90E0      		ldi r25,hi8(.LC1)
 6589 2610 0E94 0000 		call __myassert
 6590               	.LVL531:
 6591               	.L414:
 6592               	.LBE278:
1371:/home/anaz/blinkyblocks/build/src-bobby/meldinterp-runtime/core.c ****   for(j = 0; j < TYPE_NOARGS(tuple_type); ++j) {
 6593               		.loc 1 1371 0
 6594 2614 2981      		ldd r18,Y+1
 6595 2616 3A81      		ldd r19,Y+2
 6596 2618 2F5F      		subi r18,-1
 6597 261a 3F4F      		sbci r19,-1
 6598 261c 2983      		std Y+1,r18
 6599 261e 3A83      		std Y+2,r19
 6600               	.LVL532:
 6601               	.L401:
1371:/home/anaz/blinkyblocks/build/src-bobby/meldinterp-runtime/core.c ****   for(j = 0; j < TYPE_NOARGS(tuple_type); ++j) {
 6602               		.loc 1 1371 0 is_stmt 0 discriminator 1
 6603 2620 AB81      		ldd r26,Y+3
 6604 2622 BC81      		ldd r27,Y+4
 6605 2624 8C91      		ld r24,X
 6606 2626 90E0      		ldi r25,0
 6607 2628 2981      		ldd r18,Y+1
 6608 262a 3A81      		ldd r19,Y+2
 6609 262c 2817      		cp r18,r24
 6610 262e 3907      		cpc r19,r25
 6611 2630 04F4      		brge .+2
 6612 2632 00C0      		rjmp .L415
1418:/home/anaz/blinkyblocks/build/src-bobby/meldinterp-runtime/core.c ****   fprintf(fp, ")");
 6613               		.loc 1 1418 0 is_stmt 1
 6614 2634 B101      		movw r22,r2
 6615 2636 89E2      		ldi r24,lo8(41)
 6616 2638 90E0      		ldi r25,0
 6617               	/* epilogue start */
1419:/home/anaz/blinkyblocks/build/src-bobby/meldinterp-runtime/core.c **** }
 6618               		.loc 1 1419 0
 6619 263a 2496      		adiw r28,4
 6620 263c CDBF      		out __SP_L__,r28
 6621 263e DEBF      		out __SP_H__,r29
 6622 2640 DF91      		pop r29
 6623 2642 CF91      		pop r28
 6624 2644 1F91      		pop r17
 6625 2646 0F91      		pop r16
 6626               	.LVL533:
 6627 2648 FF90      		pop r15
 6628 264a EF90      		pop r14
 6629 264c DF90      		pop r13
 6630 264e CF90      		pop r12
 6631 2650 BF90      		pop r11
 6632 2652 AF90      		pop r10
 6633 2654 9F90      		pop r9
 6634 2656 8F90      		pop r8
 6635 2658 7F90      		pop r7
 6636 265a 6F90      		pop r6
 6637 265c 5F90      		pop r5
 6638 265e 4F90      		pop r4
 6639 2660 3F90      		pop r3
 6640 2662 2F90      		pop r2
 6641               	.LVL534:
1418:/home/anaz/blinkyblocks/build/src-bobby/meldinterp-runtime/core.c ****   fprintf(fp, ")");
 6642               		.loc 1 1418 0
 6643 2664 0C94 0000 		jmp fputc
 6644               	.LVL535:
 6645               	.LFE43:
 6647               		.section	.rodata.str1.1
 6648               	.LC24:
 6649 01d8 7475 706C 		.string	"tuple %s (type %d)\n"
 6649      6520 2573 
 6649      2028 7479 
 6649      7065 2025 
 6649      6429 0A00 
 6650               	.LC25:
 6651 01ec 2020 00   		.string	"  "
 6652               	.LC26:
 6653 01ef 0A20 2020 		.string	"\n    [[["
 6653      205B 5B5B 
 6653      00
 6654               	.LC27:
 6655 01f8 7825 640A 		.string	"x%d\n       "
 6655      2020 2020 
 6655      2020 2000 
 6656               	.LC28:
 6657 0204 0808 085D 		.string	"\b\b\b]]]\n"
 6657      5D5D 0A00 
 6658               	.LC29:
 6659 020c 7825 640A 		.string	"x%d\n"
 6659      00
 6660               		.text
 6661               	.global	facts_dump
 6663               	facts_dump:
 6664               	.LFB44:
1422:/home/anaz/blinkyblocks/build/src-bobby/meldinterp-runtime/core.c **** {
 6665               		.loc 1 1422 0
 6666 2668 2F92      		push r2
 6667               	.LCFI136:
 6668 266a 3F92      		push r3
 6669               	.LCFI137:
 6670 266c 4F92      		push r4
 6671               	.LCFI138:
 6672 266e 5F92      		push r5
 6673               	.LCFI139:
 6674 2670 6F92      		push r6
 6675               	.LCFI140:
 6676 2672 7F92      		push r7
 6677               	.LCFI141:
 6678 2674 8F92      		push r8
 6679               	.LCFI142:
 6680 2676 9F92      		push r9
 6681               	.LCFI143:
 6682 2678 AF92      		push r10
 6683               	.LCFI144:
 6684 267a BF92      		push r11
 6685               	.LCFI145:
 6686 267c CF92      		push r12
 6687               	.LCFI146:
 6688 267e DF92      		push r13
 6689               	.LCFI147:
 6690 2680 EF92      		push r14
 6691               	.LCFI148:
 6692 2682 FF92      		push r15
 6693               	.LCFI149:
 6694 2684 0F93      		push r16
 6695               	.LCFI150:
 6696 2686 1F93      		push r17
 6697               	.LCFI151:
 6698 2688 CF93      		push r28
 6699               	.LCFI152:
 6700 268a DF93      		push r29
 6701               	.LCFI153:
 6702 268c 00D0      		rcall .
 6703 268e 1F92      		push __zero_reg__
 6704               	.LCFI154:
 6705 2690 CDB7      		in r28,__SP_L__
 6706 2692 DEB7      		in r29,__SP_H__
 6707               	.LCFI155:
 6708               	/* prologue: function */
 6709               	/* frame size = 4 */
 6710               	/* stack size = 22 */
 6711               	.L__stack_usage = 22
 6712               	.LVL536:
 6713 2694 30E0      		ldi r19,lo8(tuple_names)
 6714 2696 C32E      		mov r12,r19
 6715 2698 30E0      		ldi r19,hi8(tuple_names)
 6716 269a D32E      		mov r13,r19
1425:/home/anaz/blinkyblocks/build/src-bobby/meldinterp-runtime/core.c ****   for (i = 0; i < NUM_TYPES; i++) {
 6717               		.loc 1 1425 0
 6718 269c E12C      		mov r14,__zero_reg__
 6719 269e F12C      		mov r15,__zero_reg__
 6720 26a0 00E0      		ldi r16,0
 6721 26a2 10E0      		ldi r17,0
 6722 26a4 2090 0000 		lds r2,meld_prog
 6723 26a8 312C      		mov r3,__zero_reg__
 6724               	.LBB279:
1436:/home/anaz/blinkyblocks/build/src-bobby/meldinterp-runtime/core.c ****     fprintf(stderr, "tuple %s (type %d)\n", tuple_names[i], i);
 6725               		.loc 1 1436 0
 6726 26aa 40E0      		ldi r20,lo8(.LC24)
 6727 26ac 442E      		mov r4,r20
 6728 26ae 40E0      		ldi r20,hi8(.LC24)
 6729 26b0 542E      		mov r5,r20
1453:/home/anaz/blinkyblocks/build/src-bobby/meldinterp-runtime/core.c **** 				fprintf(stderr, "x%d\n", tupleEntry->records.count);
 6730               		.loc 1 1453 0
 6731 26b2 50E0      		ldi r21,lo8(.LC29)
 6732 26b4 652E      		mov r6,r21
 6733 26b6 50E0      		ldi r21,hi8(.LC29)
 6734 26b8 752E      		mov r7,r21
 6735               	.LBB280:
1448:/home/anaz/blinkyblocks/build/src-bobby/meldinterp-runtime/core.c **** 					fprintf(stderr, "x%d\n       ", tpE->records.count);
 6736               		.loc 1 1448 0
 6737 26ba 60E0      		ldi r22,lo8(.LC27)
 6738 26bc A62E      		mov r10,r22
 6739 26be 60E0      		ldi r22,hi8(.LC27)
 6740 26c0 B62E      		mov r11,r22
 6741               	.LBE280:
 6742               	.LBE279:
1425:/home/anaz/blinkyblocks/build/src-bobby/meldinterp-runtime/core.c ****   for (i = 0; i < NUM_TYPES; i++) {
 6743               		.loc 1 1425 0
 6744 26c2 00C0      		rjmp .L424
 6745               	.LVL537:
 6746               	.L433:
 6747               	.LBB282:
1427:/home/anaz/blinkyblocks/build/src-bobby/meldinterp-runtime/core.c ****     if (TUPLES[i].head == NULL)
 6748               		.loc 1 1427 0
 6749 26c4 E091 0000 		lds r30,tuples
 6750 26c8 F091 0000 		lds r31,tuples+1
 6751 26cc EE0D      		add r30,r14
 6752 26ce FF1D      		adc r31,r15
 6753 26d0 8081      		ld r24,Z
 6754 26d2 9181      		ldd r25,Z+1
 6755 26d4 892B      		or r24,r25
 6756 26d6 01F4      		brne .L425
 6757               	.L432:
 6758               	.LBE282:
1425:/home/anaz/blinkyblocks/build/src-bobby/meldinterp-runtime/core.c ****   for (i = 0; i < NUM_TYPES; i++) {
 6759               		.loc 1 1425 0
 6760 26d8 0F5F      		subi r16,-1
 6761 26da 1F4F      		sbci r17,-1
 6762               	.LVL538:
 6763 26dc 84E0      		ldi r24,4
 6764 26de E80E      		add r14,r24
 6765 26e0 F11C      		adc r15,__zero_reg__
 6766 26e2 92E0      		ldi r25,2
 6767 26e4 C90E      		add r12,r25
 6768 26e6 D11C      		adc r13,__zero_reg__
 6769 26e8 00C0      		rjmp .L424
 6770               	.L425:
 6771               	.LBB283:
1436:/home/anaz/blinkyblocks/build/src-bobby/meldinterp-runtime/core.c ****     fprintf(stderr, "tuple %s (type %d)\n", tuple_names[i], i);
 6772               		.loc 1 1436 0
 6773 26ea 1F93      		push r17
 6774 26ec 0F93      		push r16
 6775 26ee D601      		movw r26,r12
 6776 26f0 1196      		adiw r26,1
 6777 26f2 8C91      		ld r24,X
 6778 26f4 1197      		sbiw r26,1
 6779 26f6 8F93      		push r24
 6780 26f8 8C91      		ld r24,X
 6781 26fa 8F93      		push r24
 6782 26fc 5F92      		push r5
 6783 26fe 4F92      		push r4
 6784 2700 8091 0000 		lds r24,__iob+5
 6785 2704 8F93      		push r24
 6786 2706 8091 0000 		lds r24,__iob+4
 6787 270a 8F93      		push r24
 6788 270c 0E94 0000 		call fprintf
 6789               	.LVL539:
1438:/home/anaz/blinkyblocks/build/src-bobby/meldinterp-runtime/core.c ****     for (tupleEntry = TUPLES[i].head; tupleEntry != NULL; tupleEntry = tupleEntry->next) {
 6790               		.loc 1 1438 0
 6791 2710 E091 0000 		lds r30,tuples
 6792 2714 F091 0000 		lds r31,tuples+1
 6793 2718 EE0D      		add r30,r14
 6794 271a FF1D      		adc r31,r15
 6795 271c 8081      		ld r24,Z
 6796 271e 9181      		ldd r25,Z+1
 6797 2720 8B83      		std Y+3,r24
 6798 2722 9C83      		std Y+4,r25
 6799               	.LVL540:
 6800 2724 CDBF      		out __SP_L__,r28
 6801 2726 DEBF      		out __SP_H__,r29
1421:/home/anaz/blinkyblocks/build/src-bobby/meldinterp-runtime/core.c **** void facts_dump(void)
 6802               		.loc 1 1421 0
 6803 2728 F801      		movw r30,r16
 6804 272a E050      		subi r30,lo8(-(meld_prog))
 6805 272c F040      		sbci r31,hi8(-(meld_prog))
 6806 272e E983      		std Y+1,r30
 6807 2730 FA83      		std Y+2,r31
1438:/home/anaz/blinkyblocks/build/src-bobby/meldinterp-runtime/core.c ****     for (tupleEntry = TUPLES[i].head; tupleEntry != NULL; tupleEntry = tupleEntry->next) {
 6808               		.loc 1 1438 0
 6809 2732 00C0      		rjmp .L426
 6810               	.L431:
1439:/home/anaz/blinkyblocks/build/src-bobby/meldinterp-runtime/core.c **** 			fprintf(stderr, "  ");
 6811               		.loc 1 1439 0
 6812 2734 6091 0000 		lds r22,__iob+4
 6813 2738 7091 0000 		lds r23,__iob+4+1
 6814 273c 80E0      		ldi r24,lo8(.LC25)
 6815 273e 90E0      		ldi r25,hi8(.LC25)
 6816               	.LVL541:
 6817 2740 0E94 0000 		call fputs
 6818               	.LVL542:
1440:/home/anaz/blinkyblocks/build/src-bobby/meldinterp-runtime/core.c **** 			tuple_print(tupleEntry->tuple, stderr);
 6819               		.loc 1 1440 0
 6820 2744 6091 0000 		lds r22,__iob+4
 6821 2748 7091 0000 		lds r23,__iob+4+1
 6822 274c AB81      		ldd r26,Y+3
 6823 274e BC81      		ldd r27,Y+4
 6824 2750 1496      		adiw r26,4
 6825 2752 8D91      		ld r24,X+
 6826 2754 9C91      		ld r25,X
 6827 2756 1597      		sbiw r26,4+1
 6828 2758 0E94 0000 		call tuple_print
 6829               	.LVL543:
1441:/home/anaz/blinkyblocks/build/src-bobby/meldinterp-runtime/core.c **** 			if (TYPE_IS_AGG(i)) {
 6830               		.loc 1 1441 0
 6831 275c E981      		ldd r30,Y+1
 6832 275e FA81      		ldd r31,Y+2
 6833 2760 8181      		ldd r24,Z+1
 6834 2762 E82F      		mov r30,r24
 6835 2764 F0E0      		ldi r31,0
 6836 2766 E050      		subi r30,lo8(-(meld_prog+2))
 6837 2768 F040      		sbci r31,hi8(-(meld_prog+2))
 6838 276a 8081      		ld r24,Z
 6839 276c 80FF      		sbrs r24,0
 6840 276e 00C0      		rjmp .L427
 6841               	.LBB281:
1442:/home/anaz/blinkyblocks/build/src-bobby/meldinterp-runtime/core.c **** 				fprintf(stderr, "\n    [[[");
 6842               		.loc 1 1442 0
 6843 2770 6091 0000 		lds r22,__iob+4
 6844 2774 7091 0000 		lds r23,__iob+4+1
 6845 2778 80E0      		ldi r24,lo8(.LC26)
 6846 277a 90E0      		ldi r25,hi8(.LC26)
 6847 277c 0E94 0000 		call fputs
 6848               	.LVL544:
1444:/home/anaz/blinkyblocks/build/src-bobby/meldinterp-runtime/core.c **** 				for (tpE = tupleEntry->records.agg_queue->head;
 6849               		.loc 1 1444 0
 6850 2780 AB81      		ldd r26,Y+3
 6851 2782 BC81      		ldd r27,Y+4
 6852 2784 1296      		adiw r26,2
 6853 2786 ED91      		ld r30,X+
 6854 2788 FC91      		ld r31,X
 6855 278a 1397      		sbiw r26,2+1
 6856 278c 8080      		ld r8,Z
 6857 278e 9180      		ldd r9,Z+1
 6858               	.LVL545:
 6859 2790 00C0      		rjmp .L428
 6860               	.L429:
1447:/home/anaz/blinkyblocks/build/src-bobby/meldinterp-runtime/core.c **** 					tuple_print(tpE->tuple, stderr);
 6861               		.loc 1 1447 0
 6862 2792 F401      		movw r30,r8
 6863 2794 8481      		ldd r24,Z+4
 6864 2796 9581      		ldd r25,Z+5
 6865 2798 0E94 0000 		call tuple_print
 6866               	.LVL546:
1448:/home/anaz/blinkyblocks/build/src-bobby/meldinterp-runtime/core.c **** 					fprintf(stderr, "x%d\n       ", tpE->records.count);
 6867               		.loc 1 1448 0
 6868 279c D401      		movw r26,r8
 6869 279e 1396      		adiw r26,3
 6870 27a0 8C91      		ld r24,X
 6871 27a2 1397      		sbiw r26,3
 6872 27a4 8F93      		push r24
 6873 27a6 1296      		adiw r26,2
 6874 27a8 8C91      		ld r24,X
 6875 27aa 8F93      		push r24
 6876 27ac BF92      		push r11
 6877 27ae AF92      		push r10
 6878 27b0 8091 0000 		lds r24,__iob+5
 6879 27b4 8F93      		push r24
 6880 27b6 8091 0000 		lds r24,__iob+4
 6881 27ba 8F93      		push r24
 6882 27bc 0E94 0000 		call fprintf
 6883               	.LVL547:
1446:/home/anaz/blinkyblocks/build/src-bobby/meldinterp-runtime/core.c **** 						 tpE = tpE->next) {
 6884               		.loc 1 1446 0
 6885 27c0 F401      		movw r30,r8
 6886 27c2 8080      		ld r8,Z
 6887 27c4 9180      		ldd r9,Z+1
 6888               	.LVL548:
 6889 27c6 0F90      		pop __tmp_reg__
 6890 27c8 0F90      		pop __tmp_reg__
 6891 27ca 0F90      		pop __tmp_reg__
 6892 27cc 0F90      		pop __tmp_reg__
 6893 27ce 0F90      		pop __tmp_reg__
 6894 27d0 0F90      		pop __tmp_reg__
 6895               	.L428:
 6896 27d2 6091 0000 		lds r22,__iob+4
 6897 27d6 7091 0000 		lds r23,__iob+4+1
1444:/home/anaz/blinkyblocks/build/src-bobby/meldinterp-runtime/core.c **** 				for (tpE = tupleEntry->records.agg_queue->head;
 6898               		.loc 1 1444 0 discriminator 1
 6899 27da 8114      		cp r8,__zero_reg__
 6900 27dc 9104      		cpc r9,__zero_reg__
 6901 27de 01F4      		brne .L429
1450:/home/anaz/blinkyblocks/build/src-bobby/meldinterp-runtime/core.c **** 				fprintf(stderr, "\b\b\b]]]\n");
 6902               		.loc 1 1450 0
 6903 27e0 80E0      		ldi r24,lo8(.LC28)
 6904 27e2 90E0      		ldi r25,hi8(.LC28)
 6905 27e4 0E94 0000 		call fputs
 6906               	.LVL549:
 6907 27e8 00C0      		rjmp .L430
 6908               	.LVL550:
 6909               	.L427:
 6910               	.LBE281:
1453:/home/anaz/blinkyblocks/build/src-bobby/meldinterp-runtime/core.c **** 				fprintf(stderr, "x%d\n", tupleEntry->records.count);
 6911               		.loc 1 1453 0
 6912 27ea AB81      		ldd r26,Y+3
 6913 27ec BC81      		ldd r27,Y+4
 6914 27ee 1396      		adiw r26,3
 6915 27f0 8C91      		ld r24,X
 6916 27f2 1397      		sbiw r26,3
 6917 27f4 8F93      		push r24
 6918 27f6 1296      		adiw r26,2
 6919 27f8 8C91      		ld r24,X
 6920 27fa 8F93      		push r24
 6921 27fc 7F92      		push r7
 6922 27fe 6F92      		push r6
 6923 2800 8091 0000 		lds r24,__iob+5
 6924 2804 8F93      		push r24
 6925 2806 8091 0000 		lds r24,__iob+4
 6926 280a 8F93      		push r24
 6927 280c 0E94 0000 		call fprintf
 6928               	.LVL551:
 6929 2810 0F90      		pop __tmp_reg__
 6930 2812 0F90      		pop __tmp_reg__
 6931 2814 0F90      		pop __tmp_reg__
 6932 2816 0F90      		pop __tmp_reg__
 6933 2818 0F90      		pop __tmp_reg__
 6934 281a 0F90      		pop __tmp_reg__
 6935               	.L430:
1438:/home/anaz/blinkyblocks/build/src-bobby/meldinterp-runtime/core.c ****     for (tupleEntry = TUPLES[i].head; tupleEntry != NULL; tupleEntry = tupleEntry->next) {
 6936               		.loc 1 1438 0
 6937 281c EB81      		ldd r30,Y+3
 6938 281e FC81      		ldd r31,Y+4
 6939 2820 0190      		ld __tmp_reg__,Z+
 6940 2822 F081      		ld r31,Z
 6941 2824 E02D      		mov r30,__tmp_reg__
 6942 2826 EB83      		std Y+3,r30
 6943 2828 FC83      		std Y+4,r31
 6944               	.LVL552:
 6945               	.L426:
1438:/home/anaz/blinkyblocks/build/src-bobby/meldinterp-runtime/core.c ****     for (tupleEntry = TUPLES[i].head; tupleEntry != NULL; tupleEntry = tupleEntry->next) {
 6946               		.loc 1 1438 0 is_stmt 0 discriminator 1
 6947 282a 8B81      		ldd r24,Y+3
 6948 282c 9C81      		ldd r25,Y+4
 6949 282e 892B      		or r24,r25
 6950 2830 01F0      		breq .+2
 6951 2832 00C0      		rjmp .L431
 6952 2834 00C0      		rjmp .L432
 6953               	.LVL553:
 6954               	.L424:
 6955               	.LBE283:
1425:/home/anaz/blinkyblocks/build/src-bobby/meldinterp-runtime/core.c ****   for (i = 0; i < NUM_TYPES; i++) {
 6956               		.loc 1 1425 0 is_stmt 1 discriminator 1
 6957 2836 0215      		cp r16,r2
 6958 2838 1305      		cpc r17,r3
 6959 283a 04F4      		brge .+2
 6960 283c 00C0      		rjmp .L433
 6961               	/* epilogue start */
1457:/home/anaz/blinkyblocks/build/src-bobby/meldinterp-runtime/core.c **** }
 6962               		.loc 1 1457 0
 6963 283e 2496      		adiw r28,4
 6964 2840 CDBF      		out __SP_L__,r28
 6965 2842 DEBF      		out __SP_H__,r29
 6966 2844 DF91      		pop r29
 6967 2846 CF91      		pop r28
 6968 2848 1F91      		pop r17
 6969 284a 0F91      		pop r16
 6970               	.LVL554:
 6971 284c FF90      		pop r15
 6972 284e EF90      		pop r14
 6973 2850 DF90      		pop r13
 6974 2852 CF90      		pop r12
 6975 2854 BF90      		pop r11
 6976 2856 AF90      		pop r10
 6977 2858 9F90      		pop r9
 6978 285a 8F90      		pop r8
 6979 285c 7F90      		pop r7
 6980 285e 6F90      		pop r6
 6981 2860 5F90      		pop r5
 6982 2862 4F90      		pop r4
 6983 2864 3F90      		pop r3
 6984 2866 2F90      		pop r2
 6985 2868 0895      		ret
 6986               	.LFE44:
 6988               		.section	.rodata.str1.1
 6989               	.LC30:
 6990 0211 5475 706C 		.string	"Tuple (%s:%d:%d) "
 6990      6520 2825 
 6990      733A 2564 
 6990      3A25 6429 
 6990      2000 
 6991               	.LC31:
 6992 0223 6167 6700 		.string	"agg"
 6993               	.LC32:
 6994 0227 7065 7200 		.string	"per"
 6995               	.LC33:
 6996 022b 6C69 6E65 		.string	"linear"
 6996      6172 00
 6997               	.LC34:
 6998 0232 726F 7574 		.string	"route"
 6998      6500 
 6999               	.LC35:
 7000 0238 5D20 00   		.string	"] "
 7001               	.LC36:
 7002 023b 6E75 6D5F 		.string	"num_args:%d deltas:%d off:%d ; args(offset, arg_size): "
 7002      6172 6773 
 7002      3A25 6420 
 7002      6465 6C74 
 7002      6173 3A25 
 7003               	.LC37:
 7004 0273 2025 643A 		.string	" %d:%d"
 7004      2564 00
 7005               		.text
 7006               	.global	print_program_info
 7008               	print_program_info:
 7009               	.LFB45:
1461:/home/anaz/blinkyblocks/build/src-bobby/meldinterp-runtime/core.c **** {
 7010               		.loc 1 1461 0
 7011 286a 2F92      		push r2
 7012               	.LCFI156:
 7013 286c 3F92      		push r3
 7014               	.LCFI157:
 7015 286e 4F92      		push r4
 7016               	.LCFI158:
 7017 2870 5F92      		push r5
 7018               	.LCFI159:
 7019 2872 6F92      		push r6
 7020               	.LCFI160:
 7021 2874 7F92      		push r7
 7022               	.LCFI161:
 7023 2876 8F92      		push r8
 7024               	.LCFI162:
 7025 2878 9F92      		push r9
 7026               	.LCFI163:
 7027 287a AF92      		push r10
 7028               	.LCFI164:
 7029 287c BF92      		push r11
 7030               	.LCFI165:
 7031 287e CF92      		push r12
 7032               	.LCFI166:
 7033 2880 DF92      		push r13
 7034               	.LCFI167:
 7035 2882 EF92      		push r14
 7036               	.LCFI168:
 7037 2884 FF92      		push r15
 7038               	.LCFI169:
 7039 2886 0F93      		push r16
 7040               	.LCFI170:
 7041 2888 1F93      		push r17
 7042               	.LCFI171:
 7043 288a CF93      		push r28
 7044               	.LCFI172:
 7045 288c DF93      		push r29
 7046               	.LCFI173:
 7047 288e CDB7      		in r28,__SP_L__
 7048 2890 DEB7      		in r29,__SP_H__
 7049               	.LCFI174:
 7050 2892 2597      		sbiw r28,5
 7051               	.LCFI175:
 7052 2894 CDBF      		out __SP_L__,r28
 7053 2896 DEBF      		out __SP_H__,r29
 7054               	/* prologue: function */
 7055               	/* frame size = 5 */
 7056               	/* stack size = 23 */
 7057               	.L__stack_usage = 23
 7058               	.LVL555:
 7059 2898 F0E0      		ldi r31,lo8(tuple_names)
 7060 289a EF2E      		mov r14,r31
 7061 289c F0E0      		ldi r31,hi8(tuple_names)
 7062 289e FF2E      		mov r15,r31
 7063 28a0 20E0      		ldi r18,lo8(meld_prog+1)
 7064 28a2 30E0      		ldi r19,hi8(meld_prog+1)
 7065 28a4 2A83      		std Y+2,r18
 7066 28a6 3B83      		std Y+3,r19
1464:/home/anaz/blinkyblocks/build/src-bobby/meldinterp-runtime/core.c ****   for(i = 0; i < NUM_TYPES; ++i) {
 7067               		.loc 1 1464 0
 7068 28a8 CC24      		clr r12
 7069 28aa C394      		inc r12
 7070 28ac D12C      		mov r13,__zero_reg__
 7071 28ae 1C82      		std Y+4,__zero_reg__
 7072 28b0 1D82      		std Y+5,__zero_reg__
 7073 28b2 8091 0000 		lds r24,meld_prog
 7074 28b6 882E      		mov r8,r24
 7075 28b8 912C      		mov r9,__zero_reg__
 7076               	.LBB284:
1480:/home/anaz/blinkyblocks/build/src-bobby/meldinterp-runtime/core.c ****     printf("num_args:%d deltas:%d off:%d ; args(offset, arg_size): ",
 7077               		.loc 1 1480 0
 7078 28ba B0E0      		ldi r27,lo8(.LC36)
 7079 28bc 2B2E      		mov r2,r27
 7080 28be B0E0      		ldi r27,hi8(.LC36)
 7081 28c0 3B2E      		mov r3,r27
1485:/home/anaz/blinkyblocks/build/src-bobby/meldinterp-runtime/core.c ****       printf(" %d:%d", TYPE_ARG_OFFSET(i, j), TYPE_ARG_SIZE(i, j));
 7082               		.loc 1 1485 0
 7083 28c2 10E0      		ldi r17,lo8(.LC37)
 7084 28c4 412E      		mov r4,r17
 7085 28c6 10E0      		ldi r17,hi8(.LC37)
 7086 28c8 512E      		mov r5,r17
 7087               	.LBE284:
1464:/home/anaz/blinkyblocks/build/src-bobby/meldinterp-runtime/core.c ****   for(i = 0; i < NUM_TYPES; ++i) {
 7088               		.loc 1 1464 0
 7089 28ca 00C0      		rjmp .L435
 7090               	.LVL556:
 7091               	.L443:
1460:/home/anaz/blinkyblocks/build/src-bobby/meldinterp-runtime/core.c **** print_program_info(void)
 7092               		.loc 1 1460 0
 7093 28cc 6C80      		ldd r6,Y+4
 7094 28ce 7D80      		ldd r7,Y+5
 7095 28d0 660C      		lsl r6
 7096 28d2 771C      		rol r7
 7097               	.LBB285:
1465:/home/anaz/blinkyblocks/build/src-bobby/meldinterp-runtime/core.c ****     printf("Tuple (%s:%d:%d) ", tuple_names[i], i, TYPE_SIZE(i));
 7098               		.loc 1 1465 0
 7099 28d4 D701      		movw r26,r14
 7100 28d6 8C91      		ld r24,X
 7101 28d8 1196      		adiw r26,1
 7102 28da 9C91      		ld r25,X
 7103 28dc B2E0      		ldi r27,2
 7104 28de EB0E      		add r14,r27
 7105 28e0 F11C      		adc r15,__zero_reg__
 7106 28e2 E091 0000 		lds r30,arguments
 7107 28e6 F091 0000 		lds r31,arguments+1
 7108 28ea EC0D      		add r30,r12
 7109 28ec FD1D      		adc r31,r13
 7110 28ee 2081      		ld r18,Z
 7111               	.LVL557:
 7112 28f0 1F92      		push __zero_reg__
 7113 28f2 2F93      		push r18
 7114 28f4 ED81      		ldd r30,Y+5
 7115 28f6 EF93      		push r30
 7116 28f8 FC81      		ldd r31,Y+4
 7117 28fa FF93      		push r31
 7118 28fc 9F93      		push r25
 7119 28fe 8F93      		push r24
 7120 2900 20E0      		ldi r18,lo8(.LC30)
 7121 2902 30E0      		ldi r19,hi8(.LC30)
 7122 2904 3F93      		push r19
 7123 2906 2F93      		push r18
 7124 2908 0E94 0000 		call printf
 7125               	.LVL558:
1467:/home/anaz/blinkyblocks/build/src-bobby/meldinterp-runtime/core.c ****     printf("[");
 7126               		.loc 1 1467 0
 7127 290c 8BE5      		ldi r24,lo8(91)
 7128 290e 90E0      		ldi r25,0
 7129 2910 0E94 0000 		call putchar
 7130               	.LVL559:
1468:/home/anaz/blinkyblocks/build/src-bobby/meldinterp-runtime/core.c ****     if(TYPE_IS_AGG(i))
 7131               		.loc 1 1468 0
 7132 2914 2C81      		ldd r18,Y+4
 7133 2916 3D81      		ldd r19,Y+5
 7134 2918 2F5F      		subi r18,-1
 7135 291a 3F4F      		sbci r19,-1
 7136 291c 2C83      		std Y+4,r18
 7137 291e 3D83      		std Y+5,r19
 7138 2920 AA81      		ldd r26,Y+2
 7139 2922 BB81      		ldd r27,Y+3
 7140 2924 2D91      		ld r18,X+
 7141 2926 AA83      		std Y+2,r26
 7142 2928 BB83      		std Y+3,r27
 7143 292a 2983      		std Y+1,r18
 7144 292c A22E      		mov r10,r18
 7145 292e B12C      		mov r11,__zero_reg__
 7146 2930 8501      		movw r16,r10
 7147 2932 0050      		subi r16,lo8(-(meld_prog+2))
 7148 2934 1040      		sbci r17,hi8(-(meld_prog+2))
 7149 2936 D801      		movw r26,r16
 7150 2938 8C91      		ld r24,X
 7151 293a CDBF      		out __SP_L__,r28
 7152 293c DEBF      		out __SP_H__,r29
 7153 293e 80FF      		sbrs r24,0
 7154 2940 00C0      		rjmp .L436
1469:/home/anaz/blinkyblocks/build/src-bobby/meldinterp-runtime/core.c ****       printf("agg");
 7155               		.loc 1 1469 0
 7156 2942 20E0      		ldi r18,lo8(.LC31)
 7157 2944 30E0      		ldi r19,hi8(.LC31)
 7158 2946 3F93      		push r19
 7159 2948 2F93      		push r18
 7160 294a 0E94 0000 		call printf
 7161               	.LVL560:
 7162 294e 0F90      		pop __tmp_reg__
 7163 2950 0F90      		pop __tmp_reg__
 7164               	.L436:
1470:/home/anaz/blinkyblocks/build/src-bobby/meldinterp-runtime/core.c ****     if(TYPE_IS_PERSISTENT(i))
 7165               		.loc 1 1470 0
 7166 2952 D801      		movw r26,r16
 7167 2954 8C91      		ld r24,X
 7168 2956 81FF      		sbrs r24,1
 7169 2958 00C0      		rjmp .L437
1471:/home/anaz/blinkyblocks/build/src-bobby/meldinterp-runtime/core.c ****       printf("per");
 7170               		.loc 1 1471 0
 7171 295a E0E0      		ldi r30,lo8(.LC32)
 7172 295c F0E0      		ldi r31,hi8(.LC32)
 7173 295e FF93      		push r31
 7174 2960 EF93      		push r30
 7175 2962 0E94 0000 		call printf
 7176               	.LVL561:
 7177 2966 0F90      		pop __tmp_reg__
 7178 2968 0F90      		pop __tmp_reg__
 7179               	.L437:
1472:/home/anaz/blinkyblocks/build/src-bobby/meldinterp-runtime/core.c ****     if(TYPE_IS_LINEAR(i))
 7180               		.loc 1 1472 0
 7181 296a D801      		movw r26,r16
 7182 296c 8C91      		ld r24,X
 7183 296e 82FF      		sbrs r24,2
 7184 2970 00C0      		rjmp .L438
1473:/home/anaz/blinkyblocks/build/src-bobby/meldinterp-runtime/core.c ****       printf("linear");
 7185               		.loc 1 1473 0
 7186 2972 E0E0      		ldi r30,lo8(.LC33)
 7187 2974 F0E0      		ldi r31,hi8(.LC33)
 7188 2976 FF93      		push r31
 7189 2978 EF93      		push r30
 7190 297a 0E94 0000 		call printf
 7191               	.LVL562:
 7192 297e 0F90      		pop __tmp_reg__
 7193 2980 0F90      		pop __tmp_reg__
 7194               	.L438:
1474:/home/anaz/blinkyblocks/build/src-bobby/meldinterp-runtime/core.c ****     if(TYPE_IS_ROUTING(i))
 7195               		.loc 1 1474 0
 7196 2982 D801      		movw r26,r16
 7197 2984 8C91      		ld r24,X
 7198 2986 85FF      		sbrs r24,5
 7199 2988 00C0      		rjmp .L439
1475:/home/anaz/blinkyblocks/build/src-bobby/meldinterp-runtime/core.c ****       printf("route");
 7200               		.loc 1 1475 0
 7201 298a E0E0      		ldi r30,lo8(.LC34)
 7202 298c F0E0      		ldi r31,hi8(.LC34)
 7203 298e FF93      		push r31
 7204 2990 EF93      		push r30
 7205 2992 0E94 0000 		call printf
 7206               	.LVL563:
 7207 2996 0F90      		pop __tmp_reg__
 7208 2998 0F90      		pop __tmp_reg__
 7209               	.L439:
1476:/home/anaz/blinkyblocks/build/src-bobby/meldinterp-runtime/core.c ****     if(TYPE_IS_PROVED(i))
 7210               		.loc 1 1476 0
 7211 299a D801      		movw r26,r16
 7212 299c 8C91      		ld r24,X
 7213 299e 86FF      		sbrs r24,6
 7214 29a0 00C0      		rjmp .L440
1477:/home/anaz/blinkyblocks/build/src-bobby/meldinterp-runtime/core.c ****       printf("proved");
 7215               		.loc 1 1477 0
 7216 29a2 E0E0      		ldi r30,lo8(.LC5)
 7217 29a4 F0E0      		ldi r31,hi8(.LC5)
 7218 29a6 FF93      		push r31
 7219 29a8 EF93      		push r30
 7220 29aa 0E94 0000 		call printf
 7221               	.LVL564:
 7222 29ae 0F90      		pop __tmp_reg__
 7223 29b0 0F90      		pop __tmp_reg__
 7224               	.L440:
1478:/home/anaz/blinkyblocks/build/src-bobby/meldinterp-runtime/core.c ****     printf("] ");
 7225               		.loc 1 1478 0
 7226 29b2 80E0      		ldi r24,lo8(.LC35)
 7227 29b4 90E0      		ldi r25,hi8(.LC35)
 7228 29b6 9F93      		push r25
 7229 29b8 8F93      		push r24
 7230 29ba 0E94 0000 		call printf
 7231               	.LVL565:
1481:/home/anaz/blinkyblocks/build/src-bobby/meldinterp-runtime/core.c **** 	   TYPE_NOARGS(i), TYPE_NODELTAS(i), TYPE_OFFSET(i));
 7232               		.loc 1 1481 0
 7233 29be 8501      		movw r16,r10
 7234 29c0 0050      		subi r16,lo8(-(meld_prog+5))
 7235 29c2 1040      		sbci r17,hi8(-(meld_prog+5))
1480:/home/anaz/blinkyblocks/build/src-bobby/meldinterp-runtime/core.c ****     printf("num_args:%d deltas:%d off:%d ; args(offset, arg_size): ",
 7236               		.loc 1 1480 0
 7237 29c4 1F92      		push __zero_reg__
 7238 29c6 2981      		ldd r18,Y+1
 7239 29c8 2F93      		push r18
1481:/home/anaz/blinkyblocks/build/src-bobby/meldinterp-runtime/core.c **** 	   TYPE_NOARGS(i), TYPE_NODELTAS(i), TYPE_OFFSET(i));
 7240               		.loc 1 1481 0
 7241 29ca F501      		movw r30,r10
 7242 29cc E050      		subi r30,lo8(-(meld_prog+6))
 7243 29ce F040      		sbci r31,hi8(-(meld_prog+6))
1480:/home/anaz/blinkyblocks/build/src-bobby/meldinterp-runtime/core.c ****     printf("num_args:%d deltas:%d off:%d ; args(offset, arg_size): ",
 7244               		.loc 1 1480 0
 7245 29d0 8081      		ld r24,Z
 7246 29d2 1F92      		push __zero_reg__
 7247 29d4 8F93      		push r24
 7248 29d6 D801      		movw r26,r16
 7249 29d8 8C91      		ld r24,X
 7250 29da 1F92      		push __zero_reg__
 7251 29dc 8F93      		push r24
 7252 29de 3F92      		push r3
 7253 29e0 2F92      		push r2
 7254 29e2 0E94 0000 		call printf
 7255               	.LVL566:
1484:/home/anaz/blinkyblocks/build/src-bobby/meldinterp-runtime/core.c ****     for (j = 0; j < TYPE_NOARGS(i); ++j) {
 7256               		.loc 1 1484 0
 7257 29e6 CDBF      		out __SP_L__,r28
 7258 29e8 DEBF      		out __SP_H__,r29
 7259 29ea A12C      		mov r10,__zero_reg__
 7260 29ec B12C      		mov r11,__zero_reg__
 7261 29ee 00C0      		rjmp .L441
 7262               	.LVL567:
 7263               	.L442:
1485:/home/anaz/blinkyblocks/build/src-bobby/meldinterp-runtime/core.c ****       printf(" %d:%d", TYPE_ARG_OFFSET(i, j), TYPE_ARG_SIZE(i, j));
 7264               		.loc 1 1485 0 discriminator 2
 7265 29f0 8091 0000 		lds r24,arguments
 7266 29f4 9091 0000 		lds r25,arguments+1
1460:/home/anaz/blinkyblocks/build/src-bobby/meldinterp-runtime/core.c **** print_program_info(void)
 7267               		.loc 1 1460 0 discriminator 2
 7268 29f8 F501      		movw r30,r10
 7269 29fa EE0F      		lsl r30
 7270 29fc FF1F      		rol r31
1485:/home/anaz/blinkyblocks/build/src-bobby/meldinterp-runtime/core.c ****       printf(" %d:%d", TYPE_ARG_OFFSET(i, j), TYPE_ARG_SIZE(i, j));
 7271               		.loc 1 1485 0 discriminator 2
 7272 29fe DC01      		movw r26,r24
 7273 2a00 A60D      		add r26,r6
 7274 2a02 B71D      		adc r27,r7
 7275 2a04 2C91      		ld r18,X
 7276 2a06 E20F      		add r30,r18
 7277 2a08 F11D      		adc r31,__zero_reg__
 7278 2a0a E80F      		add r30,r24
 7279 2a0c F91F      		adc r31,r25
 7280 2a0e 8081      		ld r24,Z
 7281 2a10 1F92      		push __zero_reg__
 7282 2a12 8F93      		push r24
 7283 2a14 8181      		ldd r24,Z+1
 7284 2a16 1F92      		push __zero_reg__
 7285 2a18 8F93      		push r24
 7286 2a1a 5F92      		push r5
 7287 2a1c 4F92      		push r4
 7288 2a1e 0E94 0000 		call printf
 7289               	.LVL568:
1484:/home/anaz/blinkyblocks/build/src-bobby/meldinterp-runtime/core.c ****     for (j = 0; j < TYPE_NOARGS(i); ++j) {
 7290               		.loc 1 1484 0 discriminator 2
 7291 2a22 FFEF      		ldi r31,-1
 7292 2a24 AF1A      		sub r10,r31
 7293 2a26 BF0A      		sbc r11,r31
 7294               	.LVL569:
 7295 2a28 0F90      		pop __tmp_reg__
 7296 2a2a 0F90      		pop __tmp_reg__
 7297 2a2c 0F90      		pop __tmp_reg__
 7298 2a2e 0F90      		pop __tmp_reg__
 7299 2a30 0F90      		pop __tmp_reg__
 7300 2a32 0F90      		pop __tmp_reg__
 7301               	.LVL570:
 7302               	.L441:
1484:/home/anaz/blinkyblocks/build/src-bobby/meldinterp-runtime/core.c ****     for (j = 0; j < TYPE_NOARGS(i); ++j) {
 7303               		.loc 1 1484 0 is_stmt 0 discriminator 1
 7304 2a34 D801      		movw r26,r16
 7305 2a36 8C91      		ld r24,X
 7306 2a38 90E0      		ldi r25,0
 7307 2a3a A816      		cp r10,r24
 7308 2a3c B906      		cpc r11,r25
 7309 2a3e 04F0      		brlt .L442
1487:/home/anaz/blinkyblocks/build/src-bobby/meldinterp-runtime/core.c ****     printf("\n");
 7310               		.loc 1 1487 0 is_stmt 1
 7311 2a40 8AE0      		ldi r24,lo8(10)
 7312 2a42 90E0      		ldi r25,0
 7313 2a44 0E94 0000 		call putchar
 7314               	.LVL571:
 7315 2a48 B2E0      		ldi r27,2
 7316 2a4a CB0E      		add r12,r27
 7317 2a4c D11C      		adc r13,__zero_reg__
 7318               	.LVL572:
 7319               	.L435:
 7320               	.LBE285:
1464:/home/anaz/blinkyblocks/build/src-bobby/meldinterp-runtime/core.c ****   for(i = 0; i < NUM_TYPES; ++i) {
 7321               		.loc 1 1464 0 discriminator 1
 7322 2a4e 2C81      		ldd r18,Y+4
 7323 2a50 3D81      		ldd r19,Y+5
 7324 2a52 2815      		cp r18,r8
 7325 2a54 3905      		cpc r19,r9
 7326 2a56 04F4      		brge .+2
 7327 2a58 00C0      		rjmp .L443
 7328               	/* epilogue start */
 7329               		.loc 1 1489 0
 7330 2a5a 2596      		adiw r28,5
 7331 2a5c CDBF      		out __SP_L__,r28
 7332 2a5e DEBF      		out __SP_H__,r29
 7333 2a60 DF91      		pop r29
 7334 2a62 CF91      		pop r28
 7335 2a64 1F91      		pop r17
 7336 2a66 0F91      		pop r16
 7337 2a68 FF90      		pop r15
 7338 2a6a EF90      		pop r14
 7339 2a6c DF90      		pop r13
 7340 2a6e CF90      		pop r12
 7341 2a70 BF90      		pop r11
 7342 2a72 AF90      		pop r10
 7343 2a74 9F90      		pop r9
 7344 2a76 8F90      		pop r8
 7345 2a78 7F90      		pop r7
 7346 2a7a 6F90      		pop r6
 7347 2a7c 5F90      		pop r5
 7348 2a7e 4F90      		pop r4
 7349 2a80 3F90      		pop r3
 7350 2a82 2F90      		pop r2
 7351 2a84 0895      		ret
 7352               	.LFE45:
 7354               	.global	TYPE_TERMINATE
 7355               		.data
 7358               	TYPE_TERMINATE:
 7359 0000 FFFF      		.word	-1
 7360               	.global	TYPE_PROVED
 7363               	TYPE_PROVED:
 7364 0002 FFFF      		.word	-1
 7365               	.global	TYPE_COLOCATED
 7368               	TYPE_COLOCATED:
 7369 0004 FFFF      		.word	-1
 7370               	.global	TYPE_INIT
 7373               	TYPE_INIT:
 7374 0006 FFFF      		.word	-1
 7375               	.global	TYPE_EDGE
 7378               	TYPE_EDGE:
 7379 0008 FFFF      		.word	-1
 7380               	.global	arguments
 7381               		.section .bss
 7384               	arguments:
 7385 0000 0000      		.zero	2
 7386               	.global	delta_sizes
 7389               	delta_sizes:
 7390 0002 0000      		.zero	2
 7391               		.local	deltas
 7392               		.comm	deltas,2,1
 7393               		.local	type
 7394               		.comm	type,2,1
 8601               	.Letext0:
 8602               		.file 4 "/usr/lib/gcc/avr/4.7.2/../../../avr/include/stdint.h"
 8603               		.file 5 "/home/anaz/blinkyblocks/build/src-bobby/system/defs.bbh"
 8604               		.file 6 "/home/anaz/blinkyblocks/build/src-bobby/meldinterp-runtime/model.bbh"
 8605               		.file 7 "/usr/lib/gcc/avr/4.7.2/include/stddef.h"
 8606               		.file 8 "/usr/lib/gcc/avr/4.7.2/../../../avr/include/stdio.h"
 8607               		.file 9 "/home/anaz/blinkyblocks/build/src-bobby/meldinterp-runtime/set_runtime.h"
 8608               		.file 10 "/usr/lib/gcc/avr/4.7.2/../../../avr/include/stdlib.h"
 8609               		.file 11 "/home/anaz/blinkyblocks/build/src-bobby/meldinterp-runtime/../system/myassert.h"
 8610               		.file 12 "/usr/lib/gcc/avr/4.7.2/../../../avr/include/string.h"
 8611               		.file 13 "/usr/lib/gcc/avr/4.7.2/../../../avr/include/math.h"
 8612               		.file 14 "<built-in>"
DEFINED SYMBOLS
                            *ABS*:0000000000000000 core.c
/home/anaz/tmp/cc9SsNmw.s:2      *ABS*:000000000000003e __SP_H__
/home/anaz/tmp/cc9SsNmw.s:3      *ABS*:000000000000003d __SP_L__
/home/anaz/tmp/cc9SsNmw.s:4      *ABS*:000000000000003f __SREG__
/home/anaz/tmp/cc9SsNmw.s:5      *ABS*:000000000000003b __RAMPZ__
/home/anaz/tmp/cc9SsNmw.s:6      *ABS*:0000000000000034 __CCP__
/home/anaz/tmp/cc9SsNmw.s:7      *ABS*:0000000000000000 __tmp_reg__
/home/anaz/tmp/cc9SsNmw.s:8      *ABS*:0000000000000001 __zero_reg__
/home/anaz/tmp/cc9SsNmw.s:12     .text:0000000000000000 queue_dequeue_pos
/home/anaz/tmp/cc9SsNmw.s:95     .text:0000000000000056 eval
/home/anaz/tmp/cc9SsNmw.s:7384   .bss:0000000000000000 arguments
/home/anaz/tmp/cc9SsNmw.s:261    .text:000000000000011c aggregate_free
/home/anaz/tmp/cc9SsNmw.s:365    .text:00000000000001b4 queue_is_empty
/home/anaz/tmp/cc9SsNmw.s:389    .text:00000000000001c4 queue_push_tuple
/home/anaz/tmp/cc9SsNmw.s:424    .text:00000000000001e6 queue_pop_tuple
/home/anaz/tmp/cc9SsNmw.s:465    .text:000000000000020c queue_enqueue
/home/anaz/tmp/cc9SsNmw.s:541    .text:000000000000025e queue_dequeue
/home/anaz/tmp/cc9SsNmw.s:592    .text:000000000000028e p_dequeue
/home/anaz/tmp/cc9SsNmw.s:623    .text:00000000000002a6 p_enqueue
/home/anaz/tmp/cc9SsNmw.s:752    .text:0000000000000344 init_deltas
                             .bss:0000000000000004 deltas
/home/anaz/tmp/cc9SsNmw.s:7389   .bss:0000000000000002 delta_sizes
/home/anaz/tmp/cc9SsNmw.s:849    .text:00000000000003d2 init_fields
/home/anaz/tmp/cc9SsNmw.s:7392   .bss:0000000000000006 type
/home/anaz/tmp/cc9SsNmw.s:1091   .text:000000000000050c init_consts
/home/anaz/tmp/cc9SsNmw.s:7373   .data:0000000000000006 TYPE_INIT
/home/anaz/tmp/cc9SsNmw.s:7378   .data:0000000000000008 TYPE_EDGE
/home/anaz/tmp/cc9SsNmw.s:7368   .data:0000000000000004 TYPE_COLOCATED
/home/anaz/tmp/cc9SsNmw.s:7363   .data:0000000000000002 TYPE_PROVED
/home/anaz/tmp/cc9SsNmw.s:7358   .data:0000000000000000 TYPE_TERMINATE
/home/anaz/tmp/cc9SsNmw.s:1220   .text:00000000000005ca queue_length
/home/anaz/tmp/cc9SsNmw.s:1277   .text:00000000000005e8 tuple_process
/home/anaz/tmp/cc9SsNmw.s:3516   .text:00000000000013a4 aggregate_recalc
/home/anaz/tmp/cc9SsNmw.s:4887   .text:0000000000001b8a tuple_do_handle
/home/anaz/tmp/cc9SsNmw.s:6224   .text:00000000000023cc tuple_print
/home/anaz/tmp/cc9SsNmw.s:6663   .text:0000000000002668 facts_dump
/home/anaz/tmp/cc9SsNmw.s:7008   .text:000000000000286a print_program_info

UNDEFINED SYMBOLS
free
blockId
__myassert
set_delete
list_delete
malloc
meld_prog
tuple_names
strcmp
__nesf2
__eqsf2
__ltsf2
__lesf2
__gtsf2
__gesf2
__addsf3
__subsf3
__mulsf3
__divsf3
__iob
fputs
tuple_send
fprintf
extern_functs_args
extern_functs
memcpy
memset
tuple_handle
persistent
random
__divmodsi4
tuples
memcmp
exit
__tablejump2__
__mulsi3
fmod
__floatsisf
__mulshisi3
set_int_create
set_int_insert
set_float_create
set_float_insert
set_print
list_int_create
list_int_push_tail
list_float_create
list_float_push_tail
set_equal
list_equal
proved
enqueueNewTuple
realloc
oldTuples
fputc
printf
putchar
__do_copy_data
__do_clear_bss
