   1               		.file	"circ_buffer.c"
   2               	__SP_H__ = 0x3e
   3               	__SP_L__ = 0x3d
   4               	__SREG__ = 0x3f
   5               	__RAMPZ__ = 0x3b
   6               	__CCP__ = 0x34
   7               	__tmp_reg__ = 0
   8               	__zero_reg__ = 1
   9               		.text
  10               	.Ltext0:
  11               	.global	push
  13               	push:
  14               	.LFB5:
  15               		.file 1 "/home/pthalamy/CMU/oldbb/build/src-bobby/system/circ_buffer.bb"
   1:/home/pthalamy/CMU/oldbb/build/src-bobby/system/circ_buffer.bb **** #include "circ_buffer.bbh"
   2:/home/pthalamy/CMU/oldbb/build/src-bobby/system/circ_buffer.bb **** 
   3:/home/pthalamy/CMU/oldbb/build/src-bobby/system/circ_buffer.bb **** // HARDWARE INCLUDE
   4:/home/pthalamy/CMU/oldbb/build/src-bobby/system/circ_buffer.bb **** // BOBBY:
   5:/home/pthalamy/CMU/oldbb/build/src-bobby/system/circ_buffer.bb **** // atomic block is a very simple mutex-like thing that turns off interrupts so things don't get cor
   6:/home/pthalamy/CMU/oldbb/build/src-bobby/system/circ_buffer.bb **** // this code is all system-level but you may need to define around ATOMIC_BLOCK for the simulator
   7:/home/pthalamy/CMU/oldbb/build/src-bobby/system/circ_buffer.bb **** #ifndef BBSIM
   8:/home/pthalamy/CMU/oldbb/build/src-bobby/system/circ_buffer.bb **** #include "util/atomic.h"
   9:/home/pthalamy/CMU/oldbb/build/src-bobby/system/circ_buffer.bb **** #endif
  10:/home/pthalamy/CMU/oldbb/build/src-bobby/system/circ_buffer.bb **** 
  11:/home/pthalamy/CMU/oldbb/build/src-bobby/system/circ_buffer.bb **** void push(byte data, CircBuf * b)
  12:/home/pthalamy/CMU/oldbb/build/src-bobby/system/circ_buffer.bb **** { 
  16               		.loc 1 12 0
  17               	.LVL0:
  18               	/* prologue: function */
  19               	/* frame size = 0 */
  20               	/* stack size = 0 */
  21               	.L__stack_usage = 0
  22 0000 FB01      		movw r30,r22
  23               	.LBB14:
  13:/home/pthalamy/CMU/oldbb/build/src-bobby/system/circ_buffer.bb ****   #ifndef BBSIM
  14:/home/pthalamy/CMU/oldbb/build/src-bobby/system/circ_buffer.bb ****   ATOMIC_BLOCK(ATOMIC_RESTORESTATE)
  24               		.loc 1 14 0
  25 0002 2FB7      		in r18,__SREG__
  26               	.LVL1:
  27               	.LBB15:
  28               	.LBB16:
  29               		.file 2 "/usr/lib/gcc/avr/4.7.2/../../../avr/include/util/atomic.h"
   1:/usr/lib/gcc/avr/4.7.2/../../../avr/include/util/atomic.h **** /* Copyright (c) 2007 Dean Camera
   2:/usr/lib/gcc/avr/4.7.2/../../../avr/include/util/atomic.h ****    All rights reserved.
   3:/usr/lib/gcc/avr/4.7.2/../../../avr/include/util/atomic.h **** 
   4:/usr/lib/gcc/avr/4.7.2/../../../avr/include/util/atomic.h ****    Redistribution and use in source and binary forms, with or without
   5:/usr/lib/gcc/avr/4.7.2/../../../avr/include/util/atomic.h ****    modification, are permitted provided that the following conditions are met:
   6:/usr/lib/gcc/avr/4.7.2/../../../avr/include/util/atomic.h **** 
   7:/usr/lib/gcc/avr/4.7.2/../../../avr/include/util/atomic.h ****    * Redistributions of source code must retain the above copyright
   8:/usr/lib/gcc/avr/4.7.2/../../../avr/include/util/atomic.h ****      notice, this list of conditions and the following disclaimer.
   9:/usr/lib/gcc/avr/4.7.2/../../../avr/include/util/atomic.h **** 
  10:/usr/lib/gcc/avr/4.7.2/../../../avr/include/util/atomic.h ****    * Redistributions in binary form must reproduce the above copyright
  11:/usr/lib/gcc/avr/4.7.2/../../../avr/include/util/atomic.h ****      notice, this list of conditions and the following disclaimer in
  12:/usr/lib/gcc/avr/4.7.2/../../../avr/include/util/atomic.h ****      the documentation and/or other materials provided with the
  13:/usr/lib/gcc/avr/4.7.2/../../../avr/include/util/atomic.h ****      distribution.
  14:/usr/lib/gcc/avr/4.7.2/../../../avr/include/util/atomic.h **** 
  15:/usr/lib/gcc/avr/4.7.2/../../../avr/include/util/atomic.h ****    * Neither the name of the copyright holders nor the names of
  16:/usr/lib/gcc/avr/4.7.2/../../../avr/include/util/atomic.h ****      contributors may be used to endorse or promote products derived
  17:/usr/lib/gcc/avr/4.7.2/../../../avr/include/util/atomic.h ****      from this software without specific prior written permission.
  18:/usr/lib/gcc/avr/4.7.2/../../../avr/include/util/atomic.h **** 
  19:/usr/lib/gcc/avr/4.7.2/../../../avr/include/util/atomic.h ****   THIS SOFTWARE IS PROVIDED BY THE COPYRIGHT HOLDERS AND CONTRIBUTORS "AS IS"
  20:/usr/lib/gcc/avr/4.7.2/../../../avr/include/util/atomic.h ****   AND ANY EXPRESS OR IMPLIED WARRANTIES, INCLUDING, BUT NOT LIMITED TO, THE
  21:/usr/lib/gcc/avr/4.7.2/../../../avr/include/util/atomic.h ****   IMPLIED WARRANTIES OF MERCHANTABILITY AND FITNESS FOR A PARTICULAR PURPOSE
  22:/usr/lib/gcc/avr/4.7.2/../../../avr/include/util/atomic.h ****   ARE DISCLAIMED. IN NO EVENT SHALL THE COPYRIGHT OWNER OR CONTRIBUTORS BE
  23:/usr/lib/gcc/avr/4.7.2/../../../avr/include/util/atomic.h ****   LIABLE FOR ANY DIRECT, INDIRECT, INCIDENTAL, SPECIAL, EXEMPLARY, OR
  24:/usr/lib/gcc/avr/4.7.2/../../../avr/include/util/atomic.h ****   CONSEQUENTIAL DAMAGES (INCLUDING, BUT NOT LIMITED TO, PROCUREMENT OF
  25:/usr/lib/gcc/avr/4.7.2/../../../avr/include/util/atomic.h ****   SUBSTITUTE GOODS OR SERVICES; LOSS OF USE, DATA, OR PROFITS; OR BUSINESS
  26:/usr/lib/gcc/avr/4.7.2/../../../avr/include/util/atomic.h ****   INTERRUPTION) HOWEVER CAUSED AND ON ANY THEORY OF LIABILITY, WHETHER IN
  27:/usr/lib/gcc/avr/4.7.2/../../../avr/include/util/atomic.h ****   CONTRACT, STRICT LIABILITY, OR TORT (INCLUDING NEGLIGENCE OR OTHERWISE)
  28:/usr/lib/gcc/avr/4.7.2/../../../avr/include/util/atomic.h ****   ARISING IN ANY WAY OUT OF THE USE OF THIS SOFTWARE, EVEN IF ADVISED OF THE
  29:/usr/lib/gcc/avr/4.7.2/../../../avr/include/util/atomic.h ****   POSSIBILITY OF SUCH DAMAGE.
  30:/usr/lib/gcc/avr/4.7.2/../../../avr/include/util/atomic.h **** */
  31:/usr/lib/gcc/avr/4.7.2/../../../avr/include/util/atomic.h **** 
  32:/usr/lib/gcc/avr/4.7.2/../../../avr/include/util/atomic.h **** /* $Id: atomic.h 2158 2010-06-10 15:48:28Z joerg_wunsch $ */
  33:/usr/lib/gcc/avr/4.7.2/../../../avr/include/util/atomic.h **** 
  34:/usr/lib/gcc/avr/4.7.2/../../../avr/include/util/atomic.h **** #ifndef _UTIL_ATOMIC_H_
  35:/usr/lib/gcc/avr/4.7.2/../../../avr/include/util/atomic.h **** #define _UTIL_ATOMIC_H_ 1
  36:/usr/lib/gcc/avr/4.7.2/../../../avr/include/util/atomic.h **** 
  37:/usr/lib/gcc/avr/4.7.2/../../../avr/include/util/atomic.h **** #include <avr/io.h>
  38:/usr/lib/gcc/avr/4.7.2/../../../avr/include/util/atomic.h **** #include <avr/interrupt.h>
  39:/usr/lib/gcc/avr/4.7.2/../../../avr/include/util/atomic.h **** 
  40:/usr/lib/gcc/avr/4.7.2/../../../avr/include/util/atomic.h **** #if !defined(__DOXYGEN__)
  41:/usr/lib/gcc/avr/4.7.2/../../../avr/include/util/atomic.h **** /* Internal helper functions. */
  42:/usr/lib/gcc/avr/4.7.2/../../../avr/include/util/atomic.h **** static __inline__ uint8_t __iSeiRetVal(void)
  43:/usr/lib/gcc/avr/4.7.2/../../../avr/include/util/atomic.h **** {
  44:/usr/lib/gcc/avr/4.7.2/../../../avr/include/util/atomic.h ****     sei();
  45:/usr/lib/gcc/avr/4.7.2/../../../avr/include/util/atomic.h ****     return 1;
  46:/usr/lib/gcc/avr/4.7.2/../../../avr/include/util/atomic.h **** }
  47:/usr/lib/gcc/avr/4.7.2/../../../avr/include/util/atomic.h **** 
  48:/usr/lib/gcc/avr/4.7.2/../../../avr/include/util/atomic.h **** static __inline__ uint8_t __iCliRetVal(void)
  49:/usr/lib/gcc/avr/4.7.2/../../../avr/include/util/atomic.h **** {
  50:/usr/lib/gcc/avr/4.7.2/../../../avr/include/util/atomic.h ****     cli();
  30               		.loc 2 50 0
  31               	/* #APP */
  32               	 ;  50 "/usr/lib/gcc/avr/4.7.2/../../../avr/include/util/atomic.h" 1
  33 0004 F894      		cli
  34               	 ;  0 "" 2
  35               	/* #NOAPP */
  36               	.LBE16:
  37               	.LBE15:
  15:/home/pthalamy/CMU/oldbb/build/src-bobby/system/circ_buffer.bb ****   {
  16:/home/pthalamy/CMU/oldbb/build/src-bobby/system/circ_buffer.bb ****   #endif
  17:/home/pthalamy/CMU/oldbb/build/src-bobby/system/circ_buffer.bb **** 
  18:/home/pthalamy/CMU/oldbb/build/src-bobby/system/circ_buffer.bb ****     b->buf[b->end++] = data;
  38               		.loc 1 18 0
  39 0006 978D      		ldd r25,Z+31
  40 0008 DB01      		movw r26,r22
  41 000a A90F      		add r26,r25
  42 000c B11D      		adc r27,__zero_reg__
  43 000e 8C93      		st X,r24
  44 0010 892F      		mov r24,r25
  45               	.LVL2:
  46 0012 8F5F      		subi r24,lo8(-(1))
  19:/home/pthalamy/CMU/oldbb/build/src-bobby/system/circ_buffer.bb **** 
  20:/home/pthalamy/CMU/oldbb/build/src-bobby/system/circ_buffer.bb ****     if(b->end == CIRC_BUF_LEN)
  47               		.loc 1 20 0
  48 0014 8E31      		cpi r24,lo8(30)
  49 0016 01F0      		breq .L3
  18:/home/pthalamy/CMU/oldbb/build/src-bobby/system/circ_buffer.bb ****     b->buf[b->end++] = data;
  50               		.loc 1 18 0
  51 0018 878F      		std Z+31,r24
  52 001a 00C0      		rjmp .L4
  53               	.L3:
  21:/home/pthalamy/CMU/oldbb/build/src-bobby/system/circ_buffer.bb ****     {
  22:/home/pthalamy/CMU/oldbb/build/src-bobby/system/circ_buffer.bb ****       b->end = 0;
  54               		.loc 1 22 0
  55 001c 178E      		std Z+31,__zero_reg__
  56               	.L4:
  23:/home/pthalamy/CMU/oldbb/build/src-bobby/system/circ_buffer.bb ****     }
  24:/home/pthalamy/CMU/oldbb/build/src-bobby/system/circ_buffer.bb **** 
  25:/home/pthalamy/CMU/oldbb/build/src-bobby/system/circ_buffer.bb ****     if(b->end == b->start)
  57               		.loc 1 25 0
  58 001e 878D      		ldd r24,Z+31
  59 0020 968D      		ldd r25,Z+30
  60 0022 8917      		cp r24,r25
  61 0024 01F0      		breq .L5
  62               	.L6:
  63               	.LBB17:
  64               	.LBB18:
  51:/usr/lib/gcc/avr/4.7.2/../../../avr/include/util/atomic.h ****     return 1;
  52:/usr/lib/gcc/avr/4.7.2/../../../avr/include/util/atomic.h **** }
  53:/usr/lib/gcc/avr/4.7.2/../../../avr/include/util/atomic.h **** 
  54:/usr/lib/gcc/avr/4.7.2/../../../avr/include/util/atomic.h **** static __inline__ void __iSeiParam(const uint8_t *__s)
  55:/usr/lib/gcc/avr/4.7.2/../../../avr/include/util/atomic.h **** {
  56:/usr/lib/gcc/avr/4.7.2/../../../avr/include/util/atomic.h ****     sei();
  57:/usr/lib/gcc/avr/4.7.2/../../../avr/include/util/atomic.h ****     __asm__ volatile ("" ::: "memory");
  58:/usr/lib/gcc/avr/4.7.2/../../../avr/include/util/atomic.h ****     (void)__s;
  59:/usr/lib/gcc/avr/4.7.2/../../../avr/include/util/atomic.h **** }
  60:/usr/lib/gcc/avr/4.7.2/../../../avr/include/util/atomic.h **** 
  61:/usr/lib/gcc/avr/4.7.2/../../../avr/include/util/atomic.h **** static __inline__ void __iCliParam(const uint8_t *__s)
  62:/usr/lib/gcc/avr/4.7.2/../../../avr/include/util/atomic.h **** {
  63:/usr/lib/gcc/avr/4.7.2/../../../avr/include/util/atomic.h ****     cli();
  64:/usr/lib/gcc/avr/4.7.2/../../../avr/include/util/atomic.h ****     __asm__ volatile ("" ::: "memory");
  65:/usr/lib/gcc/avr/4.7.2/../../../avr/include/util/atomic.h ****     (void)__s;
  66:/usr/lib/gcc/avr/4.7.2/../../../avr/include/util/atomic.h **** }
  67:/usr/lib/gcc/avr/4.7.2/../../../avr/include/util/atomic.h **** 
  68:/usr/lib/gcc/avr/4.7.2/../../../avr/include/util/atomic.h **** static __inline__ void __iRestore(const  uint8_t *__s)
  69:/usr/lib/gcc/avr/4.7.2/../../../avr/include/util/atomic.h **** {
  70:/usr/lib/gcc/avr/4.7.2/../../../avr/include/util/atomic.h ****     SREG = *__s;
  65               		.loc 2 70 0
  66 0026 2FBF      		out __SREG__,r18
  71:/usr/lib/gcc/avr/4.7.2/../../../avr/include/util/atomic.h ****     __asm__ volatile ("" ::: "memory");
  67               		.loc 2 71 0
  68 0028 0895      		ret
  69               	.L5:
  70               	.LBE18:
  71               	.LBE17:
  26:/home/pthalamy/CMU/oldbb/build/src-bobby/system/circ_buffer.bb ****     {
  27:/home/pthalamy/CMU/oldbb/build/src-bobby/system/circ_buffer.bb ****       b->start++;
  72               		.loc 1 27 0
  73 002a 8F5F      		subi r24,lo8(-(1))
  74 002c 868F      		std Z+30,r24
  28:/home/pthalamy/CMU/oldbb/build/src-bobby/system/circ_buffer.bb **** 	
  29:/home/pthalamy/CMU/oldbb/build/src-bobby/system/circ_buffer.bb ****       if(b->start == CIRC_BUF_LEN)
  75               		.loc 1 29 0
  76 002e 8E31      		cpi r24,lo8(30)
  77 0030 01F4      		brne .L6
  30:/home/pthalamy/CMU/oldbb/build/src-bobby/system/circ_buffer.bb **** 	  {
  31:/home/pthalamy/CMU/oldbb/build/src-bobby/system/circ_buffer.bb **** 	    b->start = 0;
  78               		.loc 1 31 0
  79 0032 168E      		std Z+30,__zero_reg__
  80 0034 00C0      		rjmp .L6
  81               	.LBE14:
  82               	.LFE5:
  84               	.global	pop
  86               	pop:
  87               	.LFB6:
  32:/home/pthalamy/CMU/oldbb/build/src-bobby/system/circ_buffer.bb **** 	  }
  33:/home/pthalamy/CMU/oldbb/build/src-bobby/system/circ_buffer.bb ****     }
  34:/home/pthalamy/CMU/oldbb/build/src-bobby/system/circ_buffer.bb ****   #ifndef BBSIM
  35:/home/pthalamy/CMU/oldbb/build/src-bobby/system/circ_buffer.bb ****   }
  36:/home/pthalamy/CMU/oldbb/build/src-bobby/system/circ_buffer.bb ****   #endif
  37:/home/pthalamy/CMU/oldbb/build/src-bobby/system/circ_buffer.bb **** }
  38:/home/pthalamy/CMU/oldbb/build/src-bobby/system/circ_buffer.bb **** 
  39:/home/pthalamy/CMU/oldbb/build/src-bobby/system/circ_buffer.bb **** int pop(CircBuf * b)
  40:/home/pthalamy/CMU/oldbb/build/src-bobby/system/circ_buffer.bb **** {
  88               		.loc 1 40 0
  89               	.LVL3:
  90               	/* prologue: function */
  91               	/* frame size = 0 */
  92               	/* stack size = 0 */
  93               	.L__stack_usage = 0
  94 0036 FC01      		movw r30,r24
  95               	.LVL4:
  96               	.LBB19:
  97               	.LBB20:
  41:/home/pthalamy/CMU/oldbb/build/src-bobby/system/circ_buffer.bb ****   uint8_t data;
  42:/home/pthalamy/CMU/oldbb/build/src-bobby/system/circ_buffer.bb **** 
  43:/home/pthalamy/CMU/oldbb/build/src-bobby/system/circ_buffer.bb ****   if( isEmpty(b) )
  44:/home/pthalamy/CMU/oldbb/build/src-bobby/system/circ_buffer.bb ****   {
  45:/home/pthalamy/CMU/oldbb/build/src-bobby/system/circ_buffer.bb **** 	return -1;
  46:/home/pthalamy/CMU/oldbb/build/src-bobby/system/circ_buffer.bb ****   }
  47:/home/pthalamy/CMU/oldbb/build/src-bobby/system/circ_buffer.bb ****   #ifndef BBSIM
  48:/home/pthalamy/CMU/oldbb/build/src-bobby/system/circ_buffer.bb ****   ATOMIC_BLOCK(ATOMIC_RESTORESTATE)
  49:/home/pthalamy/CMU/oldbb/build/src-bobby/system/circ_buffer.bb ****   {
  50:/home/pthalamy/CMU/oldbb/build/src-bobby/system/circ_buffer.bb ****   #endif
  51:/home/pthalamy/CMU/oldbb/build/src-bobby/system/circ_buffer.bb ****     data = b->buf[b->start++];
  52:/home/pthalamy/CMU/oldbb/build/src-bobby/system/circ_buffer.bb ****   
  53:/home/pthalamy/CMU/oldbb/build/src-bobby/system/circ_buffer.bb ****     if(b->start == CIRC_BUF_LEN)
  54:/home/pthalamy/CMU/oldbb/build/src-bobby/system/circ_buffer.bb ****     {
  55:/home/pthalamy/CMU/oldbb/build/src-bobby/system/circ_buffer.bb ****       b->start = 0;
  56:/home/pthalamy/CMU/oldbb/build/src-bobby/system/circ_buffer.bb ****     }
  57:/home/pthalamy/CMU/oldbb/build/src-bobby/system/circ_buffer.bb ****   #ifndef BBSIM
  58:/home/pthalamy/CMU/oldbb/build/src-bobby/system/circ_buffer.bb ****   }
  59:/home/pthalamy/CMU/oldbb/build/src-bobby/system/circ_buffer.bb ****   #endif
  60:/home/pthalamy/CMU/oldbb/build/src-bobby/system/circ_buffer.bb ****   
  61:/home/pthalamy/CMU/oldbb/build/src-bobby/system/circ_buffer.bb ****   return data;
  62:/home/pthalamy/CMU/oldbb/build/src-bobby/system/circ_buffer.bb **** }
  63:/home/pthalamy/CMU/oldbb/build/src-bobby/system/circ_buffer.bb **** 
  64:/home/pthalamy/CMU/oldbb/build/src-bobby/system/circ_buffer.bb **** byte isEmpty(CircBuf * b)
  65:/home/pthalamy/CMU/oldbb/build/src-bobby/system/circ_buffer.bb **** {
  66:/home/pthalamy/CMU/oldbb/build/src-bobby/system/circ_buffer.bb ****   if(b->start == b->end)
  98               		.loc 1 66 0
  99 0038 968D      		ldd r25,Z+30
 100 003a 878D      		ldd r24,Z+31
 101               	.LVL5:
 102 003c 9813      		cpse r25,r24
 103 003e 00C0      		rjmp .L15
 104 0040 00C0      		rjmp .L14
 105               	.LVL6:
 106               	.L12:
 107               	.LBE20:
 108               	.LBE19:
 109               	.LBB22:
  55:/home/pthalamy/CMU/oldbb/build/src-bobby/system/circ_buffer.bb ****       b->start = 0;
 110               		.loc 1 55 0
 111 0042 168E      		std Z+30,__zero_reg__
 112               	.L13:
 113               	.LVL7:
 114               	.LBB23:
 115               	.LBB24:
  70:/usr/lib/gcc/avr/4.7.2/../../../avr/include/util/atomic.h ****     SREG = *__s;
 116               		.loc 2 70 0 discriminator 1
 117 0044 9FBF      		out __SREG__,r25
 118               		.loc 2 71 0 discriminator 1
 119               	.LBE24:
 120               	.LBE23:
 121               	.LBE22:
  61:/home/pthalamy/CMU/oldbb/build/src-bobby/system/circ_buffer.bb ****   return data;
 122               		.loc 1 61 0 discriminator 1
 123 0046 30E0      		ldi r19,0
 124 0048 00C0      		rjmp .L16
 125               	.LVL8:
 126               	.L14:
 127               	.LBB27:
 128               	.LBB21:
  45:/home/pthalamy/CMU/oldbb/build/src-bobby/system/circ_buffer.bb **** 	return -1;
 129               		.loc 1 45 0
 130 004a 2FEF      		ldi r18,lo8(-1)
 131 004c 3FEF      		ldi r19,lo8(-1)
 132 004e 00C0      		rjmp .L16
 133               	.L15:
 134               	.LBE21:
 135               	.LBE27:
 136               	.LBB28:
  48:/home/pthalamy/CMU/oldbb/build/src-bobby/system/circ_buffer.bb ****   ATOMIC_BLOCK(ATOMIC_RESTORESTATE)
 137               		.loc 1 48 0
 138 0050 9FB7      		in r25,__SREG__
 139               	.LVL9:
 140               	.LBB25:
 141               	.LBB26:
  50:/usr/lib/gcc/avr/4.7.2/../../../avr/include/util/atomic.h ****     cli();
 142               		.loc 2 50 0
 143               	/* #APP */
 144               	 ;  50 "/usr/lib/gcc/avr/4.7.2/../../../avr/include/util/atomic.h" 1
 145 0052 F894      		cli
 146               	 ;  0 "" 2
 147               	.LVL10:
 148               	/* #NOAPP */
 149               	.LBE26:
 150               	.LBE25:
  51:/home/pthalamy/CMU/oldbb/build/src-bobby/system/circ_buffer.bb ****     data = b->buf[b->start++];
 151               		.loc 1 51 0
 152 0054 868D      		ldd r24,Z+30
 153 0056 DF01      		movw r26,r30
 154 0058 A80F      		add r26,r24
 155 005a B11D      		adc r27,__zero_reg__
 156 005c 2C91      		ld r18,X
 157               	.LVL11:
 158 005e 8F5F      		subi r24,lo8(-(1))
  53:/home/pthalamy/CMU/oldbb/build/src-bobby/system/circ_buffer.bb ****     if(b->start == CIRC_BUF_LEN)
 159               		.loc 1 53 0
 160 0060 8E31      		cpi r24,lo8(30)
 161 0062 01F0      		breq .L12
  51:/home/pthalamy/CMU/oldbb/build/src-bobby/system/circ_buffer.bb ****     data = b->buf[b->start++];
 162               		.loc 1 51 0
 163 0064 868F      		std Z+30,r24
 164 0066 00C0      		rjmp .L13
 165               	.LVL12:
 166               	.L16:
 167               	.LBE28:
  62:/home/pthalamy/CMU/oldbb/build/src-bobby/system/circ_buffer.bb **** }
 168               		.loc 1 62 0
 169 0068 C901      		movw r24,r18
 170 006a 0895      		ret
 171               	.LFE6:
 173               	.global	isEmpty
 175               	isEmpty:
 176               	.LFB7:
  65:/home/pthalamy/CMU/oldbb/build/src-bobby/system/circ_buffer.bb **** {
 177               		.loc 1 65 0
 178               	.LVL13:
 179               	/* prologue: function */
 180               	/* frame size = 0 */
 181               	/* stack size = 0 */
 182               	.L__stack_usage = 0
 183 006c FC01      		movw r30,r24
 184               		.loc 1 66 0
 185 006e 81E0      		ldi r24,lo8(1)
 186               	.LVL14:
 187 0070 268D      		ldd r18,Z+30
 188 0072 978D      		ldd r25,Z+31
 189 0074 2913      		cpse r18,r25
 190 0076 80E0      		ldi r24,0
 191               	.L18:
  67:/home/pthalamy/CMU/oldbb/build/src-bobby/system/circ_buffer.bb ****   {
  68:/home/pthalamy/CMU/oldbb/build/src-bobby/system/circ_buffer.bb ****     return 1;
  69:/home/pthalamy/CMU/oldbb/build/src-bobby/system/circ_buffer.bb ****   }
  70:/home/pthalamy/CMU/oldbb/build/src-bobby/system/circ_buffer.bb ****   return 0;
  71:/home/pthalamy/CMU/oldbb/build/src-bobby/system/circ_buffer.bb **** }
 192               		.loc 1 71 0
 193 0078 0895      		ret
 194               	.LFE7:
 238               	.Letext0:
 239               		.file 3 "/usr/lib/gcc/avr/4.7.2/../../../avr/include/stdint.h"
 240               		.file 4 "/home/pthalamy/CMU/oldbb/build/src-bobby/system/defs.bbh"
 241               		.file 5 "/home/pthalamy/CMU/oldbb/build/src-bobby/system/circ_buffer.bbh"
DEFINED SYMBOLS
                            *ABS*:0000000000000000 circ_buffer.c
     /tmp/cc7UTSjy.s:2      *ABS*:000000000000003e __SP_H__
     /tmp/cc7UTSjy.s:3      *ABS*:000000000000003d __SP_L__
     /tmp/cc7UTSjy.s:4      *ABS*:000000000000003f __SREG__
     /tmp/cc7UTSjy.s:5      *ABS*:000000000000003b __RAMPZ__
     /tmp/cc7UTSjy.s:6      *ABS*:0000000000000034 __CCP__
     /tmp/cc7UTSjy.s:7      *ABS*:0000000000000000 __tmp_reg__
     /tmp/cc7UTSjy.s:8      *ABS*:0000000000000001 __zero_reg__
     /tmp/cc7UTSjy.s:13     .text:0000000000000000 push
     /tmp/cc7UTSjy.s:86     .text:0000000000000036 pop
     /tmp/cc7UTSjy.s:175    .text:000000000000006c isEmpty

NO UNDEFINED SYMBOLS
