   1               		.file	"data_link.c"
   2               	__SP_H__ = 0x3e
   3               	__SP_L__ = 0x3d
   4               	__SREG__ = 0x3f
   5               	__RAMPZ__ = 0x3b
   6               	__CCP__ = 0x34
   7               	__tmp_reg__ = 0
   8               	__zero_reg__ = 1
   9               		.text
  10               	.Ltext0:
  11               	.global	defaultMsgHandler
  13               	defaultMsgHandler:
  14               	.LFB6:
  15               		.file 1 "/home/anaz/Desktop/oldbb-ssh/build/src-bobby/system/data_link.bb"
   1:/home/anaz/Desktop/oldbb-ssh/build/src-bobby/system/data_link.bb **** // data_link.c
   2:/home/anaz/Desktop/oldbb-ssh/build/src-bobby/system/data_link.bb **** //
   3:/home/anaz/Desktop/oldbb-ssh/build/src-bobby/system/data_link.bb **** // Implement Data Link Layer protocols
   4:/home/anaz/Desktop/oldbb-ssh/build/src-bobby/system/data_link.bb **** 
   5:/home/anaz/Desktop/oldbb-ssh/build/src-bobby/system/data_link.bb **** #ifndef _DATA_LINK_C_
   6:/home/anaz/Desktop/oldbb-ssh/build/src-bobby/system/data_link.bb **** #define _DATA_LINK_C_
   7:/home/anaz/Desktop/oldbb-ssh/build/src-bobby/system/data_link.bb **** 
   8:/home/anaz/Desktop/oldbb-ssh/build/src-bobby/system/data_link.bb **** #include "../hw-api/hwDataLink.h"
   9:/home/anaz/Desktop/oldbb-ssh/build/src-bobby/system/data_link.bb **** #include "../hw-api/hwSerial.h"
  10:/home/anaz/Desktop/oldbb-ssh/build/src-bobby/system/data_link.bb **** #include "data_link.bbh"
  11:/home/anaz/Desktop/oldbb-ssh/build/src-bobby/system/data_link.bb **** #include "led.bbh"
  12:/home/anaz/Desktop/oldbb-ssh/build/src-bobby/system/data_link.bb **** 
  13:/home/anaz/Desktop/oldbb-ssh/build/src-bobby/system/data_link.bb **** #ifdef LOG_DEBUG
  14:/home/anaz/Desktop/oldbb-ssh/build/src-bobby/system/data_link.bb **** #include "log.bbh"
  15:/home/anaz/Desktop/oldbb-ssh/build/src-bobby/system/data_link.bb **** #endif
  16:/home/anaz/Desktop/oldbb-ssh/build/src-bobby/system/data_link.bb **** #ifdef CLOCK_SYNC
  17:/home/anaz/Desktop/oldbb-ssh/build/src-bobby/system/data_link.bb **** #include "clock.bbh"
  18:/home/anaz/Desktop/oldbb-ssh/build/src-bobby/system/data_link.bb **** #endif
  19:/home/anaz/Desktop/oldbb-ssh/build/src-bobby/system/data_link.bb **** 
  20:/home/anaz/Desktop/oldbb-ssh/build/src-bobby/system/data_link.bb **** 
  21:/home/anaz/Desktop/oldbb-ssh/build/src-bobby/system/data_link.bb **** // global receive queue for packets
  22:/home/anaz/Desktop/oldbb-ssh/build/src-bobby/system/data_link.bb **** // move to network layer???
  23:/home/anaz/Desktop/oldbb-ssh/build/src-bobby/system/data_link.bb **** threadvar ReceivePacketQueue globalRq;
  24:/home/anaz/Desktop/oldbb-ssh/build/src-bobby/system/data_link.bb **** 
  25:/home/anaz/Desktop/oldbb-ssh/build/src-bobby/system/data_link.bb **** threadextern Port port[NUM_PORTS];
  26:/home/anaz/Desktop/oldbb-ssh/build/src-bobby/system/data_link.bb **** 
  27:/home/anaz/Desktop/oldbb-ssh/build/src-bobby/system/data_link.bb **** // used to allow message handler and callbacks access to state
  28:/home/anaz/Desktop/oldbb-ssh/build/src-bobby/system/data_link.bb **** threadvar Chunk* thisChunk;
  29:/home/anaz/Desktop/oldbb-ssh/build/src-bobby/system/data_link.bb **** 
  30:/home/anaz/Desktop/oldbb-ssh/build/src-bobby/system/data_link.bb **** /////////////////// PROTECTED FUNCTIONS ///////////////////
  31:/home/anaz/Desktop/oldbb-ssh/build/src-bobby/system/data_link.bb **** // default message handler - does nothing
  32:/home/anaz/Desktop/oldbb-ssh/build/src-bobby/system/data_link.bb **** byte defaultMsgHandler(void)
  33:/home/anaz/Desktop/oldbb-ssh/build/src-bobby/system/data_link.bb **** {
  16               		.loc 1 33 0
  17               	/* prologue: function */
  18               	/* frame size = 0 */
  19               	/* stack size = 0 */
  20               	.L__stack_usage = 0
  34:/home/anaz/Desktop/oldbb-ssh/build/src-bobby/system/data_link.bb ****     return 1;
  35:/home/anaz/Desktop/oldbb-ssh/build/src-bobby/system/data_link.bb **** }
  21               		.loc 1 35 0
  22 0000 81E0      		ldi r24,lo8(1)
  23 0002 0895      		ret
  24               	.LFE6:
  26               	.global	reservedSystemHandler
  28               	reservedSystemHandler:
  29               	.LFB7:
  36:/home/anaz/Desktop/oldbb-ssh/build/src-bobby/system/data_link.bb **** 
  37:/home/anaz/Desktop/oldbb-ssh/build/src-bobby/system/data_link.bb **** // handler for reserved system mesages
  38:/home/anaz/Desktop/oldbb-ssh/build/src-bobby/system/data_link.bb **** //   using 0x0000 as message handler allows blocks 
  39:/home/anaz/Desktop/oldbb-ssh/build/src-bobby/system/data_link.bb **** //   running different programs to communicate at the system level.
  40:/home/anaz/Desktop/oldbb-ssh/build/src-bobby/system/data_link.bb **** byte reservedSystemHandler(void)
  41:/home/anaz/Desktop/oldbb-ssh/build/src-bobby/system/data_link.bb **** {
  30               		.loc 1 41 0
  31               	/* prologue: function */
  32               	/* frame size = 0 */
  33               	/* stack size = 0 */
  34               	.L__stack_usage = 0
  42:/home/anaz/Desktop/oldbb-ssh/build/src-bobby/system/data_link.bb ****     // bogus
  43:/home/anaz/Desktop/oldbb-ssh/build/src-bobby/system/data_link.bb ****     if(thisChunk == NULL) {
  35               		.loc 1 43 0
  36 0004 E091 0000 		lds r30,thisChunk
  37 0008 F091 0000 		lds r31,thisChunk+1
  38 000c 3097      		sbiw r30,0
  39 000e 01F0      		breq .L3
  44:/home/anaz/Desktop/oldbb-ssh/build/src-bobby/system/data_link.bb ****         return 0;
  45:/home/anaz/Desktop/oldbb-ssh/build/src-bobby/system/data_link.bb ****     }
  46:/home/anaz/Desktop/oldbb-ssh/build/src-bobby/system/data_link.bb ****   
  47:/home/anaz/Desktop/oldbb-ssh/build/src-bobby/system/data_link.bb ****     // find msg type and check
  48:/home/anaz/Desktop/oldbb-ssh/build/src-bobby/system/data_link.bb ****     switch( thisChunk->data[0] )
  40               		.loc 1 48 0
  41 0010 8081      		ld r24,Z
  42 0012 8035      		cpi r24,lo8(80)
  43 0014 01F0      		breq .L5
  44 0016 8F3F      		cpi r24,lo8(-1)
  45 0018 01F0      		breq .L6
  46 001a 8130      		cpi r24,lo8(1)
  47 001c 01F4      		brne .L3
  48 001e 00C0      		rjmp .L4
  49               	.L6:
  50               	.LBB17:
  49:/home/anaz/Desktop/oldbb-ssh/build/src-bobby/system/data_link.bb ****     {
  50:/home/anaz/Desktop/oldbb-ssh/build/src-bobby/system/data_link.bb ****         case JUMP_BOOTLOADER: // CRC for this message: 0x2A
  51:/home/anaz/Desktop/oldbb-ssh/build/src-bobby/system/data_link.bb ****         {
  52:/home/anaz/Desktop/oldbb-ssh/build/src-bobby/system/data_link.bb **** 	        int i = 1;
  53:/home/anaz/Desktop/oldbb-ssh/build/src-bobby/system/data_link.bb **** 	
  54:/home/anaz/Desktop/oldbb-ssh/build/src-bobby/system/data_link.bb **** 	        // check msg consistency
  55:/home/anaz/Desktop/oldbb-ssh/build/src-bobby/system/data_link.bb **** 	        while( i < DATA_SIZE ) {
  56:/home/anaz/Desktop/oldbb-ssh/build/src-bobby/system/data_link.bb **** 	            if( thisChunk->data[i] != (JUMP_BOOTLOADER ^ i) ) {
  57:/home/anaz/Desktop/oldbb-ssh/build/src-bobby/system/data_link.bb **** 	                // invalid bootloader packet, break and do nothing
  58:/home/anaz/Desktop/oldbb-ssh/build/src-bobby/system/data_link.bb **** 	                break;
  59:/home/anaz/Desktop/oldbb-ssh/build/src-bobby/system/data_link.bb **** 	            }
  60:/home/anaz/Desktop/oldbb-ssh/build/src-bobby/system/data_link.bb **** 	            i++;
  61:/home/anaz/Desktop/oldbb-ssh/build/src-bobby/system/data_link.bb **** 	        }
  62:/home/anaz/Desktop/oldbb-ssh/build/src-bobby/system/data_link.bb **** 	        // consistent
  63:/home/anaz/Desktop/oldbb-ssh/build/src-bobby/system/data_link.bb ****     	    jumpToBootSection();
  51               		.loc 1 63 0
  52 0020 0E94 0000 		call jumpToBootSection
  53               	.LVL0:
  54               	.L4:
  55               	.LBE17:
  64:/home/anaz/Desktop/oldbb-ssh/build/src-bobby/system/data_link.bb ****         }
  65:/home/anaz/Desktop/oldbb-ssh/build/src-bobby/system/data_link.bb ****         case NEIGHBOR_MSG:
  66:/home/anaz/Desktop/oldbb-ssh/build/src-bobby/system/data_link.bb ****             handleNeighborMessage();
  56               		.loc 1 66 0
  57 0024 0E94 0000 		call handleNeighborMessage
  58               	.LVL1:
  67:/home/anaz/Desktop/oldbb-ssh/build/src-bobby/system/data_link.bb ****             break;
  59               		.loc 1 67 0
  60 0028 00C0      		rjmp .L3
  61               	.L5:
  68:/home/anaz/Desktop/oldbb-ssh/build/src-bobby/system/data_link.bb **** #ifdef LOG_DEBUG
  69:/home/anaz/Desktop/oldbb-ssh/build/src-bobby/system/data_link.bb ****         case LOG_MSG:
  70:/home/anaz/Desktop/oldbb-ssh/build/src-bobby/system/data_link.bb **** 			handleLogMessage();
  62               		.loc 1 70 0
  63 002a 0E94 0000 		call handleLogMessage
  64               	.LVL2:
  65               	.L3:
  71:/home/anaz/Desktop/oldbb-ssh/build/src-bobby/system/data_link.bb **** 			break;
  72:/home/anaz/Desktop/oldbb-ssh/build/src-bobby/system/data_link.bb **** #endif
  73:/home/anaz/Desktop/oldbb-ssh/build/src-bobby/system/data_link.bb **** #ifdef CLOCK_SYNC
  74:/home/anaz/Desktop/oldbb-ssh/build/src-bobby/system/data_link.bb **** 		case CLOCK_SYNC_MSG:
  75:/home/anaz/Desktop/oldbb-ssh/build/src-bobby/system/data_link.bb **** 			handleClockSyncMessage();
  76:/home/anaz/Desktop/oldbb-ssh/build/src-bobby/system/data_link.bb **** 			break;
  77:/home/anaz/Desktop/oldbb-ssh/build/src-bobby/system/data_link.bb **** #endif
  78:/home/anaz/Desktop/oldbb-ssh/build/src-bobby/system/data_link.bb ****         default:
  79:/home/anaz/Desktop/oldbb-ssh/build/src-bobby/system/data_link.bb ****             break;
  80:/home/anaz/Desktop/oldbb-ssh/build/src-bobby/system/data_link.bb ****     }
  81:/home/anaz/Desktop/oldbb-ssh/build/src-bobby/system/data_link.bb ****   
  82:/home/anaz/Desktop/oldbb-ssh/build/src-bobby/system/data_link.bb ****     return 0;
  83:/home/anaz/Desktop/oldbb-ssh/build/src-bobby/system/data_link.bb **** }
  66               		.loc 1 83 0
  67 002e 80E0      		ldi r24,0
  68 0030 0895      		ret
  69               	.LFE7:
  71               	.global	removeFromSq
  73               	removeFromSq:
  74               	.LFB8:
  84:/home/anaz/Desktop/oldbb-ssh/build/src-bobby/system/data_link.bb **** 
  85:/home/anaz/Desktop/oldbb-ssh/build/src-bobby/system/data_link.bb **** // removes the first packet from the send queue and
  86:/home/anaz/Desktop/oldbb-ssh/build/src-bobby/system/data_link.bb **** //    updates pointers
  87:/home/anaz/Desktop/oldbb-ssh/build/src-bobby/system/data_link.bb **** //    updates pointers
  88:/home/anaz/Desktop/oldbb-ssh/build/src-bobby/system/data_link.bb **** // inputs:  port
  89:/home/anaz/Desktop/oldbb-ssh/build/src-bobby/system/data_link.bb **** // output:  1-success, 0-failure
  90:/home/anaz/Desktop/oldbb-ssh/build/src-bobby/system/data_link.bb **** byte removeFromSq(PRef p, byte response)
  91:/home/anaz/Desktop/oldbb-ssh/build/src-bobby/system/data_link.bb **** {
  75               		.loc 1 91 0
  76               	.LVL3:
  77               	/* prologue: function */
  78               	/* frame size = 0 */
  79               	/* stack size = 0 */
  80               	.L__stack_usage = 0
  92:/home/anaz/Desktop/oldbb-ssh/build/src-bobby/system/data_link.bb ****     // empty or bad
  93:/home/anaz/Desktop/oldbb-ssh/build/src-bobby/system/data_link.bb ****     if( (p >= NUM_PORTS) || (port[p].sq.head == NULL) ) 
  81               		.loc 1 93 0
  82 0032 8630      		cpi r24,lo8(6)
  83 0034 00F0      		brlo .+2
  84 0036 00C0      		rjmp .L20
  85               	.LVL4:
  86               	.LBB25:
  87               	.LBB26:
  88 0038 98E5      		ldi r25,lo8(88)
  89 003a 899F      		mul r24,r25
  90 003c F001      		movw r30,r0
  91 003e 1124      		clr __zero_reg__
  92 0040 E050      		subi r30,lo8(-(port))
  93 0042 F040      		sbci r31,hi8(-(port))
  94 0044 8785      		ldd r24,Z+15
  95 0046 9089      		ldd r25,Z+16
  96               	.LVL5:
  97 0048 892B      		or r24,r25
  98 004a 01F0      		breq .L20
  99               	.LBB27:
  94:/home/anaz/Desktop/oldbb-ssh/build/src-bobby/system/data_link.bb ****     {
  95:/home/anaz/Desktop/oldbb-ssh/build/src-bobby/system/data_link.bb ****         return 0;
  96:/home/anaz/Desktop/oldbb-ssh/build/src-bobby/system/data_link.bb ****     }
  97:/home/anaz/Desktop/oldbb-ssh/build/src-bobby/system/data_link.bb **** 
  98:/home/anaz/Desktop/oldbb-ssh/build/src-bobby/system/data_link.bb ****     BB_LOCK(SQ_LOCK)
 100               		.loc 1 98 0
 101 004c 2FB7      		in r18,__SREG__
 102               	.LVL6:
 103               	.LBB28:
 104               	.LBB29:
 105               		.file 2 "/usr/lib/gcc/avr/4.7.2/../../../avr/include/util/atomic.h"
   1:/usr/lib/gcc/avr/4.7.2/../../../avr/include/util/atomic.h **** /* Copyright (c) 2007 Dean Camera
   2:/usr/lib/gcc/avr/4.7.2/../../../avr/include/util/atomic.h ****    All rights reserved.
   3:/usr/lib/gcc/avr/4.7.2/../../../avr/include/util/atomic.h **** 
   4:/usr/lib/gcc/avr/4.7.2/../../../avr/include/util/atomic.h ****    Redistribution and use in source and binary forms, with or without
   5:/usr/lib/gcc/avr/4.7.2/../../../avr/include/util/atomic.h ****    modification, are permitted provided that the following conditions are met:
   6:/usr/lib/gcc/avr/4.7.2/../../../avr/include/util/atomic.h **** 
   7:/usr/lib/gcc/avr/4.7.2/../../../avr/include/util/atomic.h ****    * Redistributions of source code must retain the above copyright
   8:/usr/lib/gcc/avr/4.7.2/../../../avr/include/util/atomic.h ****      notice, this list of conditions and the following disclaimer.
   9:/usr/lib/gcc/avr/4.7.2/../../../avr/include/util/atomic.h **** 
  10:/usr/lib/gcc/avr/4.7.2/../../../avr/include/util/atomic.h ****    * Redistributions in binary form must reproduce the above copyright
  11:/usr/lib/gcc/avr/4.7.2/../../../avr/include/util/atomic.h ****      notice, this list of conditions and the following disclaimer in
  12:/usr/lib/gcc/avr/4.7.2/../../../avr/include/util/atomic.h ****      the documentation and/or other materials provided with the
  13:/usr/lib/gcc/avr/4.7.2/../../../avr/include/util/atomic.h ****      distribution.
  14:/usr/lib/gcc/avr/4.7.2/../../../avr/include/util/atomic.h **** 
  15:/usr/lib/gcc/avr/4.7.2/../../../avr/include/util/atomic.h ****    * Neither the name of the copyright holders nor the names of
  16:/usr/lib/gcc/avr/4.7.2/../../../avr/include/util/atomic.h ****      contributors may be used to endorse or promote products derived
  17:/usr/lib/gcc/avr/4.7.2/../../../avr/include/util/atomic.h ****      from this software without specific prior written permission.
  18:/usr/lib/gcc/avr/4.7.2/../../../avr/include/util/atomic.h **** 
  19:/usr/lib/gcc/avr/4.7.2/../../../avr/include/util/atomic.h ****   THIS SOFTWARE IS PROVIDED BY THE COPYRIGHT HOLDERS AND CONTRIBUTORS "AS IS"
  20:/usr/lib/gcc/avr/4.7.2/../../../avr/include/util/atomic.h ****   AND ANY EXPRESS OR IMPLIED WARRANTIES, INCLUDING, BUT NOT LIMITED TO, THE
  21:/usr/lib/gcc/avr/4.7.2/../../../avr/include/util/atomic.h ****   IMPLIED WARRANTIES OF MERCHANTABILITY AND FITNESS FOR A PARTICULAR PURPOSE
  22:/usr/lib/gcc/avr/4.7.2/../../../avr/include/util/atomic.h ****   ARE DISCLAIMED. IN NO EVENT SHALL THE COPYRIGHT OWNER OR CONTRIBUTORS BE
  23:/usr/lib/gcc/avr/4.7.2/../../../avr/include/util/atomic.h ****   LIABLE FOR ANY DIRECT, INDIRECT, INCIDENTAL, SPECIAL, EXEMPLARY, OR
  24:/usr/lib/gcc/avr/4.7.2/../../../avr/include/util/atomic.h ****   CONSEQUENTIAL DAMAGES (INCLUDING, BUT NOT LIMITED TO, PROCUREMENT OF
  25:/usr/lib/gcc/avr/4.7.2/../../../avr/include/util/atomic.h ****   SUBSTITUTE GOODS OR SERVICES; LOSS OF USE, DATA, OR PROFITS; OR BUSINESS
  26:/usr/lib/gcc/avr/4.7.2/../../../avr/include/util/atomic.h ****   INTERRUPTION) HOWEVER CAUSED AND ON ANY THEORY OF LIABILITY, WHETHER IN
  27:/usr/lib/gcc/avr/4.7.2/../../../avr/include/util/atomic.h ****   CONTRACT, STRICT LIABILITY, OR TORT (INCLUDING NEGLIGENCE OR OTHERWISE)
  28:/usr/lib/gcc/avr/4.7.2/../../../avr/include/util/atomic.h ****   ARISING IN ANY WAY OUT OF THE USE OF THIS SOFTWARE, EVEN IF ADVISED OF THE
  29:/usr/lib/gcc/avr/4.7.2/../../../avr/include/util/atomic.h ****   POSSIBILITY OF SUCH DAMAGE.
  30:/usr/lib/gcc/avr/4.7.2/../../../avr/include/util/atomic.h **** */
  31:/usr/lib/gcc/avr/4.7.2/../../../avr/include/util/atomic.h **** 
  32:/usr/lib/gcc/avr/4.7.2/../../../avr/include/util/atomic.h **** /* $Id: atomic.h 2158 2010-06-10 15:48:28Z joerg_wunsch $ */
  33:/usr/lib/gcc/avr/4.7.2/../../../avr/include/util/atomic.h **** 
  34:/usr/lib/gcc/avr/4.7.2/../../../avr/include/util/atomic.h **** #ifndef _UTIL_ATOMIC_H_
  35:/usr/lib/gcc/avr/4.7.2/../../../avr/include/util/atomic.h **** #define _UTIL_ATOMIC_H_ 1
  36:/usr/lib/gcc/avr/4.7.2/../../../avr/include/util/atomic.h **** 
  37:/usr/lib/gcc/avr/4.7.2/../../../avr/include/util/atomic.h **** #include <avr/io.h>
  38:/usr/lib/gcc/avr/4.7.2/../../../avr/include/util/atomic.h **** #include <avr/interrupt.h>
  39:/usr/lib/gcc/avr/4.7.2/../../../avr/include/util/atomic.h **** 
  40:/usr/lib/gcc/avr/4.7.2/../../../avr/include/util/atomic.h **** #if !defined(__DOXYGEN__)
  41:/usr/lib/gcc/avr/4.7.2/../../../avr/include/util/atomic.h **** /* Internal helper functions. */
  42:/usr/lib/gcc/avr/4.7.2/../../../avr/include/util/atomic.h **** static __inline__ uint8_t __iSeiRetVal(void)
  43:/usr/lib/gcc/avr/4.7.2/../../../avr/include/util/atomic.h **** {
  44:/usr/lib/gcc/avr/4.7.2/../../../avr/include/util/atomic.h ****     sei();
  45:/usr/lib/gcc/avr/4.7.2/../../../avr/include/util/atomic.h ****     return 1;
  46:/usr/lib/gcc/avr/4.7.2/../../../avr/include/util/atomic.h **** }
  47:/usr/lib/gcc/avr/4.7.2/../../../avr/include/util/atomic.h **** 
  48:/usr/lib/gcc/avr/4.7.2/../../../avr/include/util/atomic.h **** static __inline__ uint8_t __iCliRetVal(void)
  49:/usr/lib/gcc/avr/4.7.2/../../../avr/include/util/atomic.h **** {
  50:/usr/lib/gcc/avr/4.7.2/../../../avr/include/util/atomic.h ****     cli();
 106               		.loc 2 50 0
 107               	/* #APP */
 108               	 ;  50 "/usr/lib/gcc/avr/4.7.2/../../../avr/include/util/atomic.h" 1
 109 004e F894      		cli
 110               	 ;  0 "" 2
 111               	.LVL7:
 112               	/* #NOAPP */
 113               	.LBE29:
 114               	.LBE28:
  99:/home/anaz/Desktop/oldbb-ssh/build/src-bobby/system/data_link.bb **** 
 100:/home/anaz/Desktop/oldbb-ssh/build/src-bobby/system/data_link.bb ****     // get the first Chunk
 101:/home/anaz/Desktop/oldbb-ssh/build/src-bobby/system/data_link.bb ****     thisChunk = port[p].sq.head;
 115               		.loc 1 101 0
 116 0050 A785      		ldd r26,Z+15
 117 0052 B089      		ldd r27,Z+16
 102:/home/anaz/Desktop/oldbb-ssh/build/src-bobby/system/data_link.bb **** 
 103:/home/anaz/Desktop/oldbb-ssh/build/src-bobby/system/data_link.bb ****     // move the head of the queue
 104:/home/anaz/Desktop/oldbb-ssh/build/src-bobby/system/data_link.bb ****     port[p].sq.head = thisChunk->next;
 118               		.loc 1 104 0
 119 0054 5296      		adiw r26,18
 120 0056 8D91      		ld r24,X+
 121 0058 9C91      		ld r25,X
 122 005a 5397      		sbiw r26,18+1
 123 005c 8787      		std Z+15,r24
 124 005e 908B      		std Z+16,r25
 105:/home/anaz/Desktop/oldbb-ssh/build/src-bobby/system/data_link.bb **** 
 106:/home/anaz/Desktop/oldbb-ssh/build/src-bobby/system/data_link.bb ****     // tail was pointing to head, remove tail as well
 107:/home/anaz/Desktop/oldbb-ssh/build/src-bobby/system/data_link.bb ****     if( port[p].sq.head == NULL ) 
 125               		.loc 1 107 0
 126 0060 892B      		or r24,r25
 127 0062 01F0      		breq .L16
 128               	.LVL8:
 129               	.L22:
 130 0064 A093 0000 		sts thisChunk,r26
 131 0068 B093 0000 		sts thisChunk+1,r27
 132               	.LBB30:
 133               	.LBB31:
  51:/usr/lib/gcc/avr/4.7.2/../../../avr/include/util/atomic.h ****     return 1;
  52:/usr/lib/gcc/avr/4.7.2/../../../avr/include/util/atomic.h **** }
  53:/usr/lib/gcc/avr/4.7.2/../../../avr/include/util/atomic.h **** 
  54:/usr/lib/gcc/avr/4.7.2/../../../avr/include/util/atomic.h **** static __inline__ void __iSeiParam(const uint8_t *__s)
  55:/usr/lib/gcc/avr/4.7.2/../../../avr/include/util/atomic.h **** {
  56:/usr/lib/gcc/avr/4.7.2/../../../avr/include/util/atomic.h ****     sei();
  57:/usr/lib/gcc/avr/4.7.2/../../../avr/include/util/atomic.h ****     __asm__ volatile ("" ::: "memory");
  58:/usr/lib/gcc/avr/4.7.2/../../../avr/include/util/atomic.h ****     (void)__s;
  59:/usr/lib/gcc/avr/4.7.2/../../../avr/include/util/atomic.h **** }
  60:/usr/lib/gcc/avr/4.7.2/../../../avr/include/util/atomic.h **** 
  61:/usr/lib/gcc/avr/4.7.2/../../../avr/include/util/atomic.h **** static __inline__ void __iCliParam(const uint8_t *__s)
  62:/usr/lib/gcc/avr/4.7.2/../../../avr/include/util/atomic.h **** {
  63:/usr/lib/gcc/avr/4.7.2/../../../avr/include/util/atomic.h ****     cli();
  64:/usr/lib/gcc/avr/4.7.2/../../../avr/include/util/atomic.h ****     __asm__ volatile ("" ::: "memory");
  65:/usr/lib/gcc/avr/4.7.2/../../../avr/include/util/atomic.h ****     (void)__s;
  66:/usr/lib/gcc/avr/4.7.2/../../../avr/include/util/atomic.h **** }
  67:/usr/lib/gcc/avr/4.7.2/../../../avr/include/util/atomic.h **** 
  68:/usr/lib/gcc/avr/4.7.2/../../../avr/include/util/atomic.h **** static __inline__ void __iRestore(const  uint8_t *__s)
  69:/usr/lib/gcc/avr/4.7.2/../../../avr/include/util/atomic.h **** {
  70:/usr/lib/gcc/avr/4.7.2/../../../avr/include/util/atomic.h ****     SREG = *__s;
 134               		.loc 2 70 0
 135 006c 2FBF      		out __SREG__,r18
  71:/usr/lib/gcc/avr/4.7.2/../../../avr/include/util/atomic.h ****     __asm__ volatile ("" ::: "memory");
 136               		.loc 2 71 0
 137               	.LBE31:
 138               	.LBE30:
 139               	.LBE27:
 108:/home/anaz/Desktop/oldbb-ssh/build/src-bobby/system/data_link.bb ****     {
 109:/home/anaz/Desktop/oldbb-ssh/build/src-bobby/system/data_link.bb ****         port[p].sq.tail   = NULL;
 110:/home/anaz/Desktop/oldbb-ssh/build/src-bobby/system/data_link.bb ****         port[p].sq.flags &= ~CHUNK_READY;
 111:/home/anaz/Desktop/oldbb-ssh/build/src-bobby/system/data_link.bb ****     }
 112:/home/anaz/Desktop/oldbb-ssh/build/src-bobby/system/data_link.bb ****     // otherwise, leave it to what it was pointing to
 113:/home/anaz/Desktop/oldbb-ssh/build/src-bobby/system/data_link.bb **** 
 114:/home/anaz/Desktop/oldbb-ssh/build/src-bobby/system/data_link.bb ****     BB_UNLOCK(SQ_LOCK)
 115:/home/anaz/Desktop/oldbb-ssh/build/src-bobby/system/data_link.bb **** 
 116:/home/anaz/Desktop/oldbb-ssh/build/src-bobby/system/data_link.bb ****     // remove thisChunk's references to queue
 117:/home/anaz/Desktop/oldbb-ssh/build/src-bobby/system/data_link.bb ****     thisChunk->next = NULL;
 140               		.loc 1 117 0
 141 006e A091 0000 		lds r26,thisChunk
 142 0072 B091 0000 		lds r27,thisChunk+1
 143 0076 5296      		adiw r26,18
 144 0078 1D92      		st X+,__zero_reg__
 145 007a 1C92      		st X,__zero_reg__
 146 007c 5397      		sbiw r26,18+1
 118:/home/anaz/Desktop/oldbb-ssh/build/src-bobby/system/data_link.bb **** 
 119:/home/anaz/Desktop/oldbb-ssh/build/src-bobby/system/data_link.bb ****     if(thisChunk->callback != NULL)
 147               		.loc 1 119 0
 148 007e 5696      		adiw r26,22
 149 0080 ED91      		ld r30,X+
 150 0082 FC91      		ld r31,X
 151 0084 5797      		sbiw r26,22+1
 152 0086 3097      		sbiw r30,0
 153 0088 01F4      		brne .L17
 154 008a 00C0      		rjmp .L18
 155               	.LVL9:
 156               	.L16:
 157               	.LBB32:
 109:/home/anaz/Desktop/oldbb-ssh/build/src-bobby/system/data_link.bb ****         port[p].sq.tail   = NULL;
 158               		.loc 1 109 0
 159 008c 118A      		std Z+17,__zero_reg__
 160 008e 128A      		std Z+18,__zero_reg__
 110:/home/anaz/Desktop/oldbb-ssh/build/src-bobby/system/data_link.bb ****         port[p].sq.flags &= ~CHUNK_READY;
 161               		.loc 1 110 0
 162 0090 8685      		ldd r24,Z+14
 163 0092 8F77      		andi r24,lo8(127)
 164 0094 8687      		std Z+14,r24
 165               	.LVL10:
 166 0096 00C0      		rjmp .L22
 167               	.LVL11:
 168               	.L17:
 169               	.LBE32:
 170               	.LBE26:
 120:/home/anaz/Desktop/oldbb-ssh/build/src-bobby/system/data_link.bb ****     {
 121:/home/anaz/Desktop/oldbb-ssh/build/src-bobby/system/data_link.bb ****         // set response type for callback
 122:/home/anaz/Desktop/oldbb-ssh/build/src-bobby/system/data_link.bb ****         setChunkResponse(thisChunk, response);
 171               		.loc 1 122 0
 172 0098 6871      		andi r22,lo8(24)
 173               	.LVL12:
 174               	.LBB33:
 175 009a 5196      		adiw r26,17
 176 009c 8C91      		ld r24,X
 177 009e 5197      		sbiw r26,17
 178 00a0 877E      		andi r24,lo8(-25)
 179 00a2 682B      		or r22,r24
 180 00a4 5196      		adiw r26,17
 181 00a6 6C93      		st X,r22
 123:/home/anaz/Desktop/oldbb-ssh/build/src-bobby/system/data_link.bb **** 	
 124:/home/anaz/Desktop/oldbb-ssh/build/src-bobby/system/data_link.bb ****         // execute callback to clear memory and other user actions
 125:/home/anaz/Desktop/oldbb-ssh/build/src-bobby/system/data_link.bb ****         (thisChunk->callback)();
 182               		.loc 1 125 0
 183 00a8 1995      		eicall
 184               	.LVL13:
 185               	.L18:
 126:/home/anaz/Desktop/oldbb-ssh/build/src-bobby/system/data_link.bb ****     }
 127:/home/anaz/Desktop/oldbb-ssh/build/src-bobby/system/data_link.bb **** 
 128:/home/anaz/Desktop/oldbb-ssh/build/src-bobby/system/data_link.bb ****     // we assume that the callback has freed memory
 129:/home/anaz/Desktop/oldbb-ssh/build/src-bobby/system/data_link.bb ****     thisChunk = NULL;
 186               		.loc 1 129 0
 187 00aa 1092 0000 		sts thisChunk,__zero_reg__
 188 00ae 1092 0000 		sts thisChunk+1,__zero_reg__
 130:/home/anaz/Desktop/oldbb-ssh/build/src-bobby/system/data_link.bb ****     return 1;
 189               		.loc 1 130 0
 190 00b2 81E0      		ldi r24,lo8(1)
 191 00b4 0895      		ret
 192               	.LVL14:
 193               	.L20:
 194               	.LBE33:
 195               	.LBE25:
  95:/home/anaz/Desktop/oldbb-ssh/build/src-bobby/system/data_link.bb ****         return 0;
 196               		.loc 1 95 0
 197 00b6 80E0      		ldi r24,0
 131:/home/anaz/Desktop/oldbb-ssh/build/src-bobby/system/data_link.bb **** }
 198               		.loc 1 131 0
 199 00b8 0895      		ret
 200               	.LFE8:
 202               	.global	flushSendQueue
 204               	flushSendQueue:
 205               	.LFB9:
 132:/home/anaz/Desktop/oldbb-ssh/build/src-bobby/system/data_link.bb **** 
 133:/home/anaz/Desktop/oldbb-ssh/build/src-bobby/system/data_link.bb **** // flush a send queue (used when retries fails)
 134:/home/anaz/Desktop/oldbb-ssh/build/src-bobby/system/data_link.bb **** void flushSendQueue(PRef p)
 135:/home/anaz/Desktop/oldbb-ssh/build/src-bobby/system/data_link.bb **** {
 206               		.loc 1 135 0
 207               	.LVL15:
 208 00ba CF93      		push r28
 209               	.LCFI0:
 210               	/* prologue: function */
 211               	/* frame size = 0 */
 212               	/* stack size = 1 */
 213               	.L__stack_usage = 1
 214 00bc C82F      		mov r28,r24
 136:/home/anaz/Desktop/oldbb-ssh/build/src-bobby/system/data_link.bb **** #ifdef LOG_DEBUG
 137:/home/anaz/Desktop/oldbb-ssh/build/src-bobby/system/data_link.bb **** 	if (isHostPort(p)) {
 215               		.loc 1 137 0
 216 00be 0E94 0000 		call isHostPort
 217               	.LVL16:
 218 00c2 8823      		tst r24
 219 00c4 01F0      		breq .L24
 138:/home/anaz/Desktop/oldbb-ssh/build/src-bobby/system/data_link.bb **** 		removeFromSq(p, MSG_RESP_NOREPLY); // ONLY ONE
 220               		.loc 1 138 0
 221 00c6 68E1      		ldi r22,lo8(24)
 222 00c8 8C2F      		mov r24,r28
 223               	/* epilogue start */
 139:/home/anaz/Desktop/oldbb-ssh/build/src-bobby/system/data_link.bb **** 		return;
 140:/home/anaz/Desktop/oldbb-ssh/build/src-bobby/system/data_link.bb **** 	}
 141:/home/anaz/Desktop/oldbb-ssh/build/src-bobby/system/data_link.bb **** #endif
 142:/home/anaz/Desktop/oldbb-ssh/build/src-bobby/system/data_link.bb ****     if(p < NUM_PORTS)
 143:/home/anaz/Desktop/oldbb-ssh/build/src-bobby/system/data_link.bb ****     {
 144:/home/anaz/Desktop/oldbb-ssh/build/src-bobby/system/data_link.bb ****         // flush buffer (call all callbacks as if all messages failed)
 145:/home/anaz/Desktop/oldbb-ssh/build/src-bobby/system/data_link.bb ****         while( removeFromSq(p, MSG_RESP_NOREPLY) );
 146:/home/anaz/Desktop/oldbb-ssh/build/src-bobby/system/data_link.bb ****     }
 147:/home/anaz/Desktop/oldbb-ssh/build/src-bobby/system/data_link.bb **** }
 224               		.loc 1 147 0
 225 00ca CF91      		pop r28
 226               	.LVL17:
 138:/home/anaz/Desktop/oldbb-ssh/build/src-bobby/system/data_link.bb **** 		removeFromSq(p, MSG_RESP_NOREPLY); // ONLY ONE
 227               		.loc 1 138 0
 228 00cc 0C94 0000 		jmp removeFromSq
 229               	.LVL18:
 230               	.L24:
 142:/home/anaz/Desktop/oldbb-ssh/build/src-bobby/system/data_link.bb ****     if(p < NUM_PORTS)
 231               		.loc 1 142 0
 232 00d0 C630      		cpi r28,lo8(6)
 233 00d2 00F4      		brsh .L23
 234               	.L28:
 145:/home/anaz/Desktop/oldbb-ssh/build/src-bobby/system/data_link.bb ****         while( removeFromSq(p, MSG_RESP_NOREPLY) );
 235               		.loc 1 145 0
 236 00d4 68E1      		ldi r22,lo8(24)
 237 00d6 8C2F      		mov r24,r28
 238 00d8 0E94 0000 		call removeFromSq
 239               	.LVL19:
 240 00dc 8111      		cpse r24,__zero_reg__
 241 00de 00C0      		rjmp .L28
 242               	.L23:
 243               	/* epilogue start */
 244               		.loc 1 147 0
 245 00e0 CF91      		pop r28
 246               	.LVL20:
 247 00e2 0895      		ret
 248               	.LFE9:
 250               	.global	setupChunk
 252               	setupChunk:
 253               	.LFB10:
 148:/home/anaz/Desktop/oldbb-ssh/build/src-bobby/system/data_link.bb **** ///////////////// END PROTECTED FUNCTIONS /////////////////
 149:/home/anaz/Desktop/oldbb-ssh/build/src-bobby/system/data_link.bb **** 
 150:/home/anaz/Desktop/oldbb-ssh/build/src-bobby/system/data_link.bb **** //////////////////// PUBLIC FUNCTIONS /////////////////////
 151:/home/anaz/Desktop/oldbb-ssh/build/src-bobby/system/data_link.bb **** // correctly formats/prepares all components of the chunk for sending
 152:/home/anaz/Desktop/oldbb-ssh/build/src-bobby/system/data_link.bb **** // inputs:  c - chunk to format
 153:/home/anaz/Desktop/oldbb-ssh/build/src-bobby/system/data_link.bb **** //          port - port to send on (0-NUM_PORTS only)
 154:/home/anaz/Desktop/oldbb-ssh/build/src-bobby/system/data_link.bb **** //          msg - data associated with the message
 155:/home/anaz/Desktop/oldbb-ssh/build/src-bobby/system/data_link.bb **** //          length - length of the data portion only
 156:/home/anaz/Desktop/oldbb-ssh/build/src-bobby/system/data_link.bb **** //          mh - handler for this message
 157:/home/anaz/Desktop/oldbb-ssh/build/src-bobby/system/data_link.bb **** //          cb - callback on send failure
 158:/home/anaz/Desktop/oldbb-ssh/build/src-bobby/system/data_link.bb **** // outputs: 1 - chunk correctly formatted
 159:/home/anaz/Desktop/oldbb-ssh/build/src-bobby/system/data_link.bb **** //          0 - inputs contained error, format failed
 160:/home/anaz/Desktop/oldbb-ssh/build/src-bobby/system/data_link.bb **** byte setupChunk(Chunk* c, PRef p, byte * msg, byte length, MsgHandler mh, GenericHandler cb)
 161:/home/anaz/Desktop/oldbb-ssh/build/src-bobby/system/data_link.bb **** {
 254               		.loc 1 161 0
 255               	.LVL21:
 256 00e4 EF92      		push r14
 257               	.LCFI1:
 258 00e6 FF92      		push r15
 259               	.LCFI2:
 260 00e8 0F93      		push r16
 261               	.LCFI3:
 262 00ea 1F93      		push r17
 263               	.LCFI4:
 264 00ec CF93      		push r28
 265               	.LCFI5:
 266 00ee DF93      		push r29
 267               	.LCFI6:
 268               	/* prologue: function */
 269               	/* frame size = 0 */
 270               	/* stack size = 6 */
 271               	.L__stack_usage = 6
 272 00f0 EC01      		movw r28,r24
 273 00f2 CA01      		movw r24,r20
 274               	.LVL22:
 162:/home/anaz/Desktop/oldbb-ssh/build/src-bobby/system/data_link.bb ****     // invalid Chunk, invalid port, message too long, or no message
 163:/home/anaz/Desktop/oldbb-ssh/build/src-bobby/system/data_link.bb ****     if( (c == NULL) || (p >= NUM_PORTS) || (length > DATA_SIZE) || (msg == NULL) )
 275               		.loc 1 163 0
 276 00f4 2097      		sbiw r28,0
 277 00f6 01F0      		breq .L35
 278               		.loc 1 163 0 is_stmt 0 discriminator 1
 279 00f8 6630      		cpi r22,lo8(6)
 280 00fa 00F4      		brsh .L35
 281 00fc 2231      		cpi r18,lo8(18)
 282 00fe 00F4      		brsh .L35
 283 0100 0097      		sbiw r24,0
 284 0102 01F0      		breq .L35
 164:/home/anaz/Desktop/oldbb-ssh/build/src-bobby/system/data_link.bb ****     {
 165:/home/anaz/Desktop/oldbb-ssh/build/src-bobby/system/data_link.bb ****         return 0;
 166:/home/anaz/Desktop/oldbb-ssh/build/src-bobby/system/data_link.bb ****     }
 167:/home/anaz/Desktop/oldbb-ssh/build/src-bobby/system/data_link.bb **** 
 168:/home/anaz/Desktop/oldbb-ssh/build/src-bobby/system/data_link.bb ****     // set the flags
 169:/home/anaz/Desktop/oldbb-ssh/build/src-bobby/system/data_link.bb ****     c->status = CHUNK_USED | CHUNK_FILLED | MSG_RESP_SENDING | port[p].pnum;
 285               		.loc 1 169 0 is_stmt 1
 286 0104 38E5      		ldi r19,lo8(88)
 287 0106 639F      		mul r22,r19
 288 0108 F001      		movw r30,r0
 289 010a 1124      		clr __zero_reg__
 290 010c E050      		subi r30,lo8(-(port))
 291 010e F040      		sbci r31,hi8(-(port))
 292 0110 3081      		ld r19,Z
 293 0112 3068      		ori r19,lo8(-128)
 294 0114 398B      		std Y+17,r19
 170:/home/anaz/Desktop/oldbb-ssh/build/src-bobby/system/data_link.bb ****     
 171:/home/anaz/Desktop/oldbb-ssh/build/src-bobby/system/data_link.bb ****     // clear out next pointer
 172:/home/anaz/Desktop/oldbb-ssh/build/src-bobby/system/data_link.bb ****     c->next = NULL;
 295               		.loc 1 172 0
 296 0116 1A8A      		std Y+18,__zero_reg__
 297 0118 1B8A      		std Y+19,__zero_reg__
 173:/home/anaz/Desktop/oldbb-ssh/build/src-bobby/system/data_link.bb **** 
 174:/home/anaz/Desktop/oldbb-ssh/build/src-bobby/system/data_link.bb ****     // set message handler
 175:/home/anaz/Desktop/oldbb-ssh/build/src-bobby/system/data_link.bb ****     *((MsgHandler*)(c->handler)) = mh;
 298               		.loc 1 175 0
 299 011a 0C8B      		std Y+20,r16
 300 011c 1D8B      		std Y+21,r17
 176:/home/anaz/Desktop/oldbb-ssh/build/src-bobby/system/data_link.bb **** 
 177:/home/anaz/Desktop/oldbb-ssh/build/src-bobby/system/data_link.bb ****     // setup callback
 178:/home/anaz/Desktop/oldbb-ssh/build/src-bobby/system/data_link.bb ****     c->callback = cb;
 301               		.loc 1 178 0
 302 011e EE8A      		std Y+22,r14
 303 0120 FF8A      		std Y+23,r15
 179:/home/anaz/Desktop/oldbb-ssh/build/src-bobby/system/data_link.bb **** 
 180:/home/anaz/Desktop/oldbb-ssh/build/src-bobby/system/data_link.bb ****     // copy message
 181:/home/anaz/Desktop/oldbb-ssh/build/src-bobby/system/data_link.bb ****     memcpy(c->data, msg, length);
 304               		.loc 1 181 0
 305 0122 022F      		mov r16,r18
 306               	.LVL23:
 307 0124 10E0      		ldi r17,0
 308 0126 422F      		mov r20,r18
 309               	.LVL24:
 310 0128 50E0      		ldi r21,0
 311 012a BC01      		movw r22,r24
 312               	.LVL25:
 313 012c CE01      		movw r24,r28
 314               	.LVL26:
 315 012e 0E94 0000 		call memcpy
 316               	.LVL27:
 182:/home/anaz/Desktop/oldbb-ssh/build/src-bobby/system/data_link.bb ****     
 183:/home/anaz/Desktop/oldbb-ssh/build/src-bobby/system/data_link.bb ****     // 'zero' out extra bytes (use ff's)
 184:/home/anaz/Desktop/oldbb-ssh/build/src-bobby/system/data_link.bb ****     memset((c->data)+length, 0xFF, DATA_SIZE-length);
 317               		.loc 1 184 0
 318 0132 C00F      		add r28,r16
 319 0134 D11F      		adc r29,r17
 320               	.LVL28:
 321 0136 41E1      		ldi r20,lo8(17)
 322 0138 50E0      		ldi r21,0
 323 013a 401B      		sub r20,r16
 324 013c 510B      		sbc r21,r17
 325 013e 6FEF      		ldi r22,lo8(-1)
 326 0140 70E0      		ldi r23,0
 327 0142 CE01      		movw r24,r28
 328 0144 0E94 0000 		call memset
 329               	.LVL29:
 185:/home/anaz/Desktop/oldbb-ssh/build/src-bobby/system/data_link.bb ****     
 186:/home/anaz/Desktop/oldbb-ssh/build/src-bobby/system/data_link.bb ****     return 1;
 330               		.loc 1 186 0
 331 0148 81E0      		ldi r24,lo8(1)
 332 014a 00C0      		rjmp .L31
 333               	.LVL30:
 334               	.L35:
 165:/home/anaz/Desktop/oldbb-ssh/build/src-bobby/system/data_link.bb ****         return 0;
 335               		.loc 1 165 0
 336 014c 80E0      		ldi r24,0
 337               	.LVL31:
 338               	.L31:
 339               	/* epilogue start */
 187:/home/anaz/Desktop/oldbb-ssh/build/src-bobby/system/data_link.bb **** }
 340               		.loc 1 187 0
 341 014e DF91      		pop r29
 342 0150 CF91      		pop r28
 343 0152 1F91      		pop r17
 344 0154 0F91      		pop r16
 345 0156 FF90      		pop r15
 346 0158 EF90      		pop r14
 347               	.LVL32:
 348 015a 0895      		ret
 349               	.LFE10:
 351               	.global	queueChunk
 353               	queueChunk:
 354               	.LFB11:
 188:/home/anaz/Desktop/oldbb-ssh/build/src-bobby/system/data_link.bb **** 
 189:/home/anaz/Desktop/oldbb-ssh/build/src-bobby/system/data_link.bb **** // queues the chunk for sending
 190:/home/anaz/Desktop/oldbb-ssh/build/src-bobby/system/data_link.bb **** // no guarantee chunk will be received - best-effort only
 191:/home/anaz/Desktop/oldbb-ssh/build/src-bobby/system/data_link.bb **** // inputs:  c - correctly formatted chunk
 192:/home/anaz/Desktop/oldbb-ssh/build/src-bobby/system/data_link.bb **** // outputs: 1 - chunk successfully queued
 193:/home/anaz/Desktop/oldbb-ssh/build/src-bobby/system/data_link.bb **** //          0 - error, chunk was not queued
 194:/home/anaz/Desktop/oldbb-ssh/build/src-bobby/system/data_link.bb **** byte queueChunk(Chunk* c)
 195:/home/anaz/Desktop/oldbb-ssh/build/src-bobby/system/data_link.bb **** {
 355               		.loc 1 195 0
 356               	.LVL33:
 357               	/* prologue: function */
 358               	/* frame size = 0 */
 359               	/* stack size = 0 */
 360               	.L__stack_usage = 0
 196:/home/anaz/Desktop/oldbb-ssh/build/src-bobby/system/data_link.bb ****     // null Chunk
 197:/home/anaz/Desktop/oldbb-ssh/build/src-bobby/system/data_link.bb ****     if(c == NULL)
 361               		.loc 1 197 0
 362 015c 0097      		sbiw r24,0
 363 015e 01F0      		breq .L41
 198:/home/anaz/Desktop/oldbb-ssh/build/src-bobby/system/data_link.bb ****     {
 199:/home/anaz/Desktop/oldbb-ssh/build/src-bobby/system/data_link.bb ****         return 0;    
 200:/home/anaz/Desktop/oldbb-ssh/build/src-bobby/system/data_link.bb ****     }
 201:/home/anaz/Desktop/oldbb-ssh/build/src-bobby/system/data_link.bb ****     
 202:/home/anaz/Desktop/oldbb-ssh/build/src-bobby/system/data_link.bb ****     byte p = faceNum(c);
 364               		.loc 1 202 0
 365 0160 DC01      		movw r26,r24
 366 0162 5196      		adiw r26,17
 367 0164 EC91      		ld r30,X
 368 0166 E770      		andi r30,lo8(7)
 369               	.LVL34:
 203:/home/anaz/Desktop/oldbb-ssh/build/src-bobby/system/data_link.bb ****     
 204:/home/anaz/Desktop/oldbb-ssh/build/src-bobby/system/data_link.bb ****     if(p < NUM_PORTS)
 370               		.loc 1 204 0
 371 0168 E630      		cpi r30,lo8(6)
 372 016a 00F4      		brsh .L38
 373               	.LBB34:
 205:/home/anaz/Desktop/oldbb-ssh/build/src-bobby/system/data_link.bb ****     {
 206:/home/anaz/Desktop/oldbb-ssh/build/src-bobby/system/data_link.bb **** #ifdef DEBUG
 207:/home/anaz/Desktop/oldbb-ssh/build/src-bobby/system/data_link.bb **** #if DEBUG == 5 // UP
 208:/home/anaz/Desktop/oldbb-ssh/build/src-bobby/system/data_link.bb **** 
 209:/home/anaz/Desktop/oldbb-ssh/build/src-bobby/system/data_link.bb **** #define DEBUGPORT 5
 210:/home/anaz/Desktop/oldbb-ssh/build/src-bobby/system/data_link.bb **** #define DEBUGUART USARTD1
 211:/home/anaz/Desktop/oldbb-ssh/build/src-bobby/system/data_link.bb **** 
 212:/home/anaz/Desktop/oldbb-ssh/build/src-bobby/system/data_link.bb **** #elif DEBUG == 1 // NORTH
 213:/home/anaz/Desktop/oldbb-ssh/build/src-bobby/system/data_link.bb **** 
 214:/home/anaz/Desktop/oldbb-ssh/build/src-bobby/system/data_link.bb **** #define DEBUGPORT 1
 215:/home/anaz/Desktop/oldbb-ssh/build/src-bobby/system/data_link.bb **** #define DEBUGUART USARTC1
 216:/home/anaz/Desktop/oldbb-ssh/build/src-bobby/system/data_link.bb **** 
 217:/home/anaz/Desktop/oldbb-ssh/build/src-bobby/system/data_link.bb **** #elif DEBUG == 4 //SOUTH
 218:/home/anaz/Desktop/oldbb-ssh/build/src-bobby/system/data_link.bb **** 
 219:/home/anaz/Desktop/oldbb-ssh/build/src-bobby/system/data_link.bb **** #define DEBUGPORT 4
 220:/home/anaz/Desktop/oldbb-ssh/build/src-bobby/system/data_link.bb **** #define DEBUGUART USARTE0
 221:/home/anaz/Desktop/oldbb-ssh/build/src-bobby/system/data_link.bb **** 
 222:/home/anaz/Desktop/oldbb-ssh/build/src-bobby/system/data_link.bb **** #elif DEBUG == 2 //EAST
 223:/home/anaz/Desktop/oldbb-ssh/build/src-bobby/system/data_link.bb **** 
 224:/home/anaz/Desktop/oldbb-ssh/build/src-bobby/system/data_link.bb **** #define DEBUGPORT 2
 225:/home/anaz/Desktop/oldbb-ssh/build/src-bobby/system/data_link.bb **** #define DEBUGUART USARTF0
 226:/home/anaz/Desktop/oldbb-ssh/build/src-bobby/system/data_link.bb **** 
 227:/home/anaz/Desktop/oldbb-ssh/build/src-bobby/system/data_link.bb **** #elif DEBUG == 3 //WEST
 228:/home/anaz/Desktop/oldbb-ssh/build/src-bobby/system/data_link.bb **** 
 229:/home/anaz/Desktop/oldbb-ssh/build/src-bobby/system/data_link.bb **** #define DEBUGPORT 3
 230:/home/anaz/Desktop/oldbb-ssh/build/src-bobby/system/data_link.bb **** #define DEBUGUART USARTC0
 231:/home/anaz/Desktop/oldbb-ssh/build/src-bobby/system/data_link.bb **** 
 232:/home/anaz/Desktop/oldbb-ssh/build/src-bobby/system/data_link.bb **** #elif DEBUG == 0 //DOWN
 233:/home/anaz/Desktop/oldbb-ssh/build/src-bobby/system/data_link.bb **** 
 234:/home/anaz/Desktop/oldbb-ssh/build/src-bobby/system/data_link.bb **** #define DEBUGPORT 0
 235:/home/anaz/Desktop/oldbb-ssh/build/src-bobby/system/data_link.bb **** #define DEBUGUART USARTD0
 236:/home/anaz/Desktop/oldbb-ssh/build/src-bobby/system/data_link.bb **** 
 237:/home/anaz/Desktop/oldbb-ssh/build/src-bobby/system/data_link.bb **** #endif
 238:/home/anaz/Desktop/oldbb-ssh/build/src-bobby/system/data_link.bb **** #ifndef DEBUGPORT
 239:/home/anaz/Desktop/oldbb-ssh/build/src-bobby/system/data_link.bb **** #error Invalid DEBUG option chosen - use a face enum.
 240:/home/anaz/Desktop/oldbb-ssh/build/src-bobby/system/data_link.bb **** #endif
 241:/home/anaz/Desktop/oldbb-ssh/build/src-bobby/system/data_link.bb **** 
 242:/home/anaz/Desktop/oldbb-ssh/build/src-bobby/system/data_link.bb ****         if(p == DEBUGPORT)
 243:/home/anaz/Desktop/oldbb-ssh/build/src-bobby/system/data_link.bb ****         {
 244:/home/anaz/Desktop/oldbb-ssh/build/src-bobby/system/data_link.bb ****             freeChunk(c);
 245:/home/anaz/Desktop/oldbb-ssh/build/src-bobby/system/data_link.bb ****             return 0;
 246:/home/anaz/Desktop/oldbb-ssh/build/src-bobby/system/data_link.bb ****         }
 247:/home/anaz/Desktop/oldbb-ssh/build/src-bobby/system/data_link.bb **** #endif    
 248:/home/anaz/Desktop/oldbb-ssh/build/src-bobby/system/data_link.bb ****     
 249:/home/anaz/Desktop/oldbb-ssh/build/src-bobby/system/data_link.bb ****         BB_LOCK(SQ_LOCK)
 374               		.loc 1 249 0
 375 016c 6FB7      		in r22,__SREG__
 376               	.LVL35:
 377               	.LBB35:
 378               	.LBB36:
  50:/usr/lib/gcc/avr/4.7.2/../../../avr/include/util/atomic.h ****     cli();
 379               		.loc 2 50 0
 380               	/* #APP */
 381               	 ;  50 "/usr/lib/gcc/avr/4.7.2/../../../avr/include/util/atomic.h" 1
 382 016e F894      		cli
 383               	 ;  0 "" 2
 384               	.LVL36:
 385               	/* #NOAPP */
 386               	.LBE36:
 387               	.LBE35:
 250:/home/anaz/Desktop/oldbb-ssh/build/src-bobby/system/data_link.bb **** 
 251:/home/anaz/Desktop/oldbb-ssh/build/src-bobby/system/data_link.bb ****         // add to queue - queue empty
 252:/home/anaz/Desktop/oldbb-ssh/build/src-bobby/system/data_link.bb ****         if( port[p].sq.head == NULL ) 
 388               		.loc 1 252 0
 389 0170 2E2F      		mov r18,r30
 390 0172 30E0      		ldi r19,0
 391 0174 B8E5      		ldi r27,lo8(88)
 392 0176 EB9F      		mul r30,r27
 393 0178 F001      		movw r30,r0
 394 017a 1124      		clr __zero_reg__
 395               	.LVL37:
 396 017c E050      		subi r30,lo8(-(port))
 397 017e F040      		sbci r31,hi8(-(port))
 398 0180 4785      		ldd r20,Z+15
 399 0182 5089      		ldd r21,Z+16
 400 0184 452B      		or r20,r21
 401 0186 01F4      		brne .L39
 253:/home/anaz/Desktop/oldbb-ssh/build/src-bobby/system/data_link.bb ****         {
 254:/home/anaz/Desktop/oldbb-ssh/build/src-bobby/system/data_link.bb ****             port[p].sq.head = c;
 402               		.loc 1 254 0
 403 0188 8787      		std Z+15,r24
 404 018a 908B      		std Z+16,r25
 405 018c 00C0      		rjmp .L40
 406               	.L39:
 255:/home/anaz/Desktop/oldbb-ssh/build/src-bobby/system/data_link.bb ****         }
 256:/home/anaz/Desktop/oldbb-ssh/build/src-bobby/system/data_link.bb ****         // queue has stuff
 257:/home/anaz/Desktop/oldbb-ssh/build/src-bobby/system/data_link.bb ****         else 
 258:/home/anaz/Desktop/oldbb-ssh/build/src-bobby/system/data_link.bb ****         {
 259:/home/anaz/Desktop/oldbb-ssh/build/src-bobby/system/data_link.bb ****             port[p].sq.tail->next = c;
 407               		.loc 1 259 0
 408 018e 0188      		ldd __tmp_reg__,Z+17
 409 0190 F289      		ldd r31,Z+18
 410 0192 E02D      		mov r30,__tmp_reg__
 411 0194 828B      		std Z+18,r24
 412 0196 938B      		std Z+19,r25
 413               	.L40:
 260:/home/anaz/Desktop/oldbb-ssh/build/src-bobby/system/data_link.bb ****         }
 261:/home/anaz/Desktop/oldbb-ssh/build/src-bobby/system/data_link.bb ****         // add to tail and update flags
 262:/home/anaz/Desktop/oldbb-ssh/build/src-bobby/system/data_link.bb ****         port[p].sq.tail   = c;
 414               		.loc 1 262 0
 415 0198 48E5      		ldi r20,lo8(88)
 416 019a 429F      		mul r20,r18
 417 019c F001      		movw r30,r0
 418 019e 439F      		mul r20,r19
 419 01a0 F00D      		add r31,r0
 420 01a2 1124      		clr __zero_reg__
 421 01a4 E050      		subi r30,lo8(-(port))
 422 01a6 F040      		sbci r31,hi8(-(port))
 423 01a8 818B      		std Z+17,r24
 424 01aa 928B      		std Z+18,r25
 263:/home/anaz/Desktop/oldbb-ssh/build/src-bobby/system/data_link.bb ****         port[p].sq.flags |= CHUNK_READY;
 425               		.loc 1 263 0
 426 01ac 8685      		ldd r24,Z+14
 427               	.LVL38:
 428 01ae 8068      		ori r24,lo8(-128)
 429 01b0 8687      		std Z+14,r24
 430               	.LVL39:
 431               	.LBB37:
 432               	.LBB38:
  70:/usr/lib/gcc/avr/4.7.2/../../../avr/include/util/atomic.h ****     SREG = *__s;
 433               		.loc 2 70 0
 434 01b2 6FBF      		out __SREG__,r22
 435               		.loc 2 71 0
 436               	.LBE38:
 437               	.LBE37:
 438               	.LBE34:
 264:/home/anaz/Desktop/oldbb-ssh/build/src-bobby/system/data_link.bb **** 
 265:/home/anaz/Desktop/oldbb-ssh/build/src-bobby/system/data_link.bb ****         BB_UNLOCK(SQ_LOCK)
 266:/home/anaz/Desktop/oldbb-ssh/build/src-bobby/system/data_link.bb **** 
 267:/home/anaz/Desktop/oldbb-ssh/build/src-bobby/system/data_link.bb ****         return 1;
 439               		.loc 1 267 0
 440 01b4 81E0      		ldi r24,lo8(1)
 441 01b6 0895      		ret
 442               	.LVL40:
 443               	.L38:
 268:/home/anaz/Desktop/oldbb-ssh/build/src-bobby/system/data_link.bb ****     }
 269:/home/anaz/Desktop/oldbb-ssh/build/src-bobby/system/data_link.bb ****     else
 270:/home/anaz/Desktop/oldbb-ssh/build/src-bobby/system/data_link.bb ****     {
 271:/home/anaz/Desktop/oldbb-ssh/build/src-bobby/system/data_link.bb ****         freeChunk(c);
 444               		.loc 1 271 0
 445 01b8 0E94 0000 		call freeChunk
 446               	.LVL41:
 447               	.L41:
 199:/home/anaz/Desktop/oldbb-ssh/build/src-bobby/system/data_link.bb ****         return 0;    
 448               		.loc 1 199 0
 449 01bc 80E0      		ldi r24,0
 272:/home/anaz/Desktop/oldbb-ssh/build/src-bobby/system/data_link.bb ****         return 0;
 273:/home/anaz/Desktop/oldbb-ssh/build/src-bobby/system/data_link.bb ****     }
 274:/home/anaz/Desktop/oldbb-ssh/build/src-bobby/system/data_link.bb **** }
 450               		.loc 1 274 0
 451 01be 0895      		ret
 452               	.LFE11:
 454               	.global	handleOneMessage
 456               	handleOneMessage:
 457               	.LFB12:
 275:/home/anaz/Desktop/oldbb-ssh/build/src-bobby/system/data_link.bb **** 
 276:/home/anaz/Desktop/oldbb-ssh/build/src-bobby/system/data_link.bb **** // call active message handler and send ack
 277:/home/anaz/Desktop/oldbb-ssh/build/src-bobby/system/data_link.bb **** // returns: 1 - message processed
 278:/home/anaz/Desktop/oldbb-ssh/build/src-bobby/system/data_link.bb **** //          0 - no new messages
 279:/home/anaz/Desktop/oldbb-ssh/build/src-bobby/system/data_link.bb **** byte handleOneMessage()
 280:/home/anaz/Desktop/oldbb-ssh/build/src-bobby/system/data_link.bb **** {
 458               		.loc 1 280 0
 459               	/* prologue: function */
 460               	/* frame size = 0 */
 461               	/* stack size = 0 */
 462               	.L__stack_usage = 0
 281:/home/anaz/Desktop/oldbb-ssh/build/src-bobby/system/data_link.bb ****     // set the global chunk that needs to be processed by the handler
 282:/home/anaz/Desktop/oldbb-ssh/build/src-bobby/system/data_link.bb ****     thisChunk = nextPacket();
 463               		.loc 1 282 0
 464 01c0 0E94 0000 		call nextPacket
 465               	.LVL42:
 466 01c4 8093 0000 		sts thisChunk,r24
 467 01c8 9093 0000 		sts thisChunk+1,r25
 283:/home/anaz/Desktop/oldbb-ssh/build/src-bobby/system/data_link.bb **** 
 284:/home/anaz/Desktop/oldbb-ssh/build/src-bobby/system/data_link.bb ****     // no packet, no action
 285:/home/anaz/Desktop/oldbb-ssh/build/src-bobby/system/data_link.bb ****     if( thisChunk == NULL )
 468               		.loc 1 285 0
 469 01cc 0097      		sbiw r24,0
 470 01ce 01F0      		breq .L46
 286:/home/anaz/Desktop/oldbb-ssh/build/src-bobby/system/data_link.bb ****     {
 287:/home/anaz/Desktop/oldbb-ssh/build/src-bobby/system/data_link.bb ****         return 0;
 288:/home/anaz/Desktop/oldbb-ssh/build/src-bobby/system/data_link.bb ****     }
 289:/home/anaz/Desktop/oldbb-ssh/build/src-bobby/system/data_link.bb **** 
 290:/home/anaz/Desktop/oldbb-ssh/build/src-bobby/system/data_link.bb ****     // call handler
 291:/home/anaz/Desktop/oldbb-ssh/build/src-bobby/system/data_link.bb ****     if( *((MsgHandler*)thisChunk->handler) == RES_SYS_HANDLER ) 
 471               		.loc 1 291 0
 472 01d0 DC01      		movw r26,r24
 473 01d2 5496      		adiw r26,20
 474 01d4 ED91      		ld r30,X+
 475 01d6 FC91      		ld r31,X
 476 01d8 5597      		sbiw r26,20+1
 477 01da 3097      		sbiw r30,0
 478 01dc 01F4      		brne .L44
 292:/home/anaz/Desktop/oldbb-ssh/build/src-bobby/system/data_link.bb ****     {
 293:/home/anaz/Desktop/oldbb-ssh/build/src-bobby/system/data_link.bb **** 	    reservedSystemHandler();
 479               		.loc 1 293 0
 480 01de 0E94 0000 		call reservedSystemHandler
 481               	.LVL43:
 482 01e2 00C0      		rjmp .L45
 483               	.L44:
 294:/home/anaz/Desktop/oldbb-ssh/build/src-bobby/system/data_link.bb ****     }
 295:/home/anaz/Desktop/oldbb-ssh/build/src-bobby/system/data_link.bb ****     else 
 296:/home/anaz/Desktop/oldbb-ssh/build/src-bobby/system/data_link.bb ****     {
 297:/home/anaz/Desktop/oldbb-ssh/build/src-bobby/system/data_link.bb **** 	    (*((MsgHandler*)(thisChunk->handler)))();
 484               		.loc 1 297 0
 485 01e4 1995      		eicall
 486               	.LVL44:
 487               	.L45:
 298:/home/anaz/Desktop/oldbb-ssh/build/src-bobby/system/data_link.bb ****     }
 299:/home/anaz/Desktop/oldbb-ssh/build/src-bobby/system/data_link.bb **** 
 300:/home/anaz/Desktop/oldbb-ssh/build/src-bobby/system/data_link.bb ****     // set flag to send ACK
 301:/home/anaz/Desktop/oldbb-ssh/build/src-bobby/system/data_link.bb ****     port[faceNum(thisChunk)].sq.flags |= setAck(thisChunk);
 488               		.loc 1 301 0
 489 01e6 8091 0000 		lds r24,thisChunk
 490 01ea 9091 0000 		lds r25,thisChunk+1
 491 01ee FC01      		movw r30,r24
 492 01f0 2189      		ldd r18,Z+17
 493 01f2 E22F      		mov r30,r18
 494 01f4 E770      		andi r30,lo8(7)
 495 01f6 38E5      		ldi r19,lo8(88)
 496 01f8 E39F      		mul r30,r19
 497 01fa F001      		movw r30,r0
 498 01fc 1124      		clr __zero_reg__
 499 01fe E050      		subi r30,lo8(-(port))
 500 0200 F040      		sbci r31,hi8(-(port))
 501 0202 25FB      		bst r18,5
 502 0204 4427      		clr r20
 503 0206 40F9      		bld r20,0
 504 0208 21E0      		ldi r18,lo8(1)
 505 020a 30E0      		ldi r19,0
 506 020c 00C0      		rjmp 2f
 507               		1:
 508 020e 220F      		lsl r18
 509               		2:
 510 0210 4A95      		dec r20
 511 0212 02F4      		brpl 1b
 512 0214 3685      		ldd r19,Z+14
 513 0216 322B      		or r19,r18
 514 0218 3687      		std Z+14,r19
 302:/home/anaz/Desktop/oldbb-ssh/build/src-bobby/system/data_link.bb **** 
 303:/home/anaz/Desktop/oldbb-ssh/build/src-bobby/system/data_link.bb ****     // free the rx chunk
 304:/home/anaz/Desktop/oldbb-ssh/build/src-bobby/system/data_link.bb ****     freeChunk(thisChunk);
 515               		.loc 1 304 0
 516 021a 0E94 0000 		call freeChunk
 517               	.LVL45:
 305:/home/anaz/Desktop/oldbb-ssh/build/src-bobby/system/data_link.bb **** 
 306:/home/anaz/Desktop/oldbb-ssh/build/src-bobby/system/data_link.bb ****     // reset the global chunk since memory is no longer valid
 307:/home/anaz/Desktop/oldbb-ssh/build/src-bobby/system/data_link.bb ****     thisChunk = NULL;
 518               		.loc 1 307 0
 519 021e 1092 0000 		sts thisChunk,__zero_reg__
 520 0222 1092 0000 		sts thisChunk+1,__zero_reg__
 308:/home/anaz/Desktop/oldbb-ssh/build/src-bobby/system/data_link.bb **** 
 309:/home/anaz/Desktop/oldbb-ssh/build/src-bobby/system/data_link.bb ****     return 1;
 521               		.loc 1 309 0
 522 0226 81E0      		ldi r24,lo8(1)
 523 0228 0895      		ret
 524               	.L46:
 287:/home/anaz/Desktop/oldbb-ssh/build/src-bobby/system/data_link.bb ****         return 0;
 525               		.loc 1 287 0
 526 022a 80E0      		ldi r24,0
 310:/home/anaz/Desktop/oldbb-ssh/build/src-bobby/system/data_link.bb **** }
 527               		.loc 1 310 0
 528 022c 0895      		ret
 529               	.LFE12:
 531               	.global	initDataLink
 533               	initDataLink:
 534               	.LFB13:
 311:/home/anaz/Desktop/oldbb-ssh/build/src-bobby/system/data_link.bb **** 
 312:/home/anaz/Desktop/oldbb-ssh/build/src-bobby/system/data_link.bb **** // initialization
 313:/home/anaz/Desktop/oldbb-ssh/build/src-bobby/system/data_link.bb **** void initDataLink()
 314:/home/anaz/Desktop/oldbb-ssh/build/src-bobby/system/data_link.bb **** {
 535               		.loc 1 314 0
 536               	/* prologue: function */
 537               	/* frame size = 0 */
 538               	/* stack size = 0 */
 539               	.L__stack_usage = 0
 315:/home/anaz/Desktop/oldbb-ssh/build/src-bobby/system/data_link.bb ****     initHWDataLink();
 540               		.loc 1 315 0
 541 022e 0E94 0000 		call initHWDataLink
 542               	.LVL46:
 316:/home/anaz/Desktop/oldbb-ssh/build/src-bobby/system/data_link.bb **** 
 317:/home/anaz/Desktop/oldbb-ssh/build/src-bobby/system/data_link.bb ****     globalRq.head  = NULL;
 543               		.loc 1 317 0
 544 0232 1092 0000 		sts globalRq,__zero_reg__
 545 0236 1092 0000 		sts globalRq+1,__zero_reg__
 318:/home/anaz/Desktop/oldbb-ssh/build/src-bobby/system/data_link.bb ****     globalRq.tail  = NULL;
 546               		.loc 1 318 0
 547 023a 1092 0000 		sts globalRq+2,__zero_reg__
 548 023e 1092 0000 		sts globalRq+2+1,__zero_reg__
 319:/home/anaz/Desktop/oldbb-ssh/build/src-bobby/system/data_link.bb ****     globalRq.flags = 0;
 549               		.loc 1 319 0
 550 0242 1092 0000 		sts globalRq+4,__zero_reg__
 551 0246 0895      		ret
 552               	.LFE13:
 554               		.comm	thisChunk,2,1
 555               		.comm	globalRq,5,1
 680               	.Letext0:
 681               		.file 3 "/usr/lib/gcc/avr/4.7.2/../../../avr/include/stdint.h"
 682               		.file 4 "/home/anaz/Desktop/oldbb-ssh/build/src-bobby/system/defs.bbh"
 683               		.file 5 "/usr/lib/gcc/avr/4.7.2/include/stddef.h"
 684               		.file 6 "/home/anaz/Desktop/oldbb-ssh/build/src-bobby/system/circ_buffer.bbh"
 685               		.file 7 "/home/anaz/Desktop/oldbb-ssh/build/src-bobby/system/handler.bbh"
 686               		.file 8 "/home/anaz/Desktop/oldbb-ssh/build/src-bobby/system/memory.bbh"
 687               		.file 9 "/home/anaz/Desktop/oldbb-ssh/build/src-bobby/system/hardwaretime.bbh"
 688               		.file 10 "/home/anaz/Desktop/oldbb-ssh/build/src-bobby/system/queues.bbh"
 689               		.file 11 "/home/anaz/Desktop/oldbb-ssh/build/src-bobby/system/serial.bbh"
 690               		.file 12 "/home/anaz/Desktop/oldbb-ssh/build/src-bobby/system/ensemble.bbh"
 691               		.file 13 "/home/anaz/Desktop/oldbb-ssh/build/src-bobby/system/log.bbh"
 692               		.file 14 "/usr/lib/gcc/avr/4.7.2/../../../avr/include/string.h"
 693               		.file 15 "/home/anaz/Desktop/oldbb-ssh/build/src-bobby/system/../hw-api/hwDataLink.h"
 694               		.file 16 "/home/anaz/Desktop/oldbb-ssh/build/src-bobby/system/boot.bbh"
DEFINED SYMBOLS
                            *ABS*:0000000000000000 data_link.c
     /tmp/ccAW6907.s:2      *ABS*:000000000000003e __SP_H__
     /tmp/ccAW6907.s:3      *ABS*:000000000000003d __SP_L__
     /tmp/ccAW6907.s:4      *ABS*:000000000000003f __SREG__
     /tmp/ccAW6907.s:5      *ABS*:000000000000003b __RAMPZ__
     /tmp/ccAW6907.s:6      *ABS*:0000000000000034 __CCP__
     /tmp/ccAW6907.s:7      *ABS*:0000000000000000 __tmp_reg__
     /tmp/ccAW6907.s:8      *ABS*:0000000000000001 __zero_reg__
     /tmp/ccAW6907.s:13     .text:0000000000000000 defaultMsgHandler
     /tmp/ccAW6907.s:28     .text:0000000000000004 reservedSystemHandler
                            *COM*:0000000000000002 thisChunk
     /tmp/ccAW6907.s:73     .text:0000000000000032 removeFromSq
     /tmp/ccAW6907.s:204    .text:00000000000000ba flushSendQueue
     /tmp/ccAW6907.s:252    .text:00000000000000e4 setupChunk
     /tmp/ccAW6907.s:353    .text:000000000000015c queueChunk
     /tmp/ccAW6907.s:456    .text:00000000000001c0 handleOneMessage
     /tmp/ccAW6907.s:533    .text:000000000000022e initDataLink
                            *COM*:0000000000000005 globalRq

UNDEFINED SYMBOLS
jumpToBootSection
handleNeighborMessage
handleLogMessage
port
isHostPort
memcpy
memset
freeChunk
nextPacket
initHWDataLink
__do_clear_bss
