   1               		.file	"ext_memory.c"
   2               	__SP_H__ = 0x3e
   3               	__SP_L__ = 0x3d
   4               	__SREG__ = 0x3f
   5               	__RAMPZ__ = 0x3b
   6               	__CCP__ = 0x34
   7               	__tmp_reg__ = 0
   8               	__zero_reg__ = 1
   9               		.text
  10               	.Ltext0:
  11               	.global	spiTxRx
  13               	spiTxRx:
  14               	.LFB1:
  15               		.file 1 "/home/dcampbel/Research/blinkyBocksHardware/build/src-bobby/hw-block/ext_memory.c"
   1:/home/dcampbel/Research/blinkyBocksHardware/build/src-bobby/hw-block/ext_memory.c **** #include "ext_memory.h"
   2:/home/dcampbel/Research/blinkyBocksHardware/build/src-bobby/hw-block/ext_memory.c **** #include <avr/io.h>
   3:/home/dcampbel/Research/blinkyBocksHardware/build/src-bobby/hw-block/ext_memory.c **** 
   4:/home/dcampbel/Research/blinkyBocksHardware/build/src-bobby/hw-block/ext_memory.c **** uint8_t spiTxRx(uint8_t input)
   5:/home/dcampbel/Research/blinkyBocksHardware/build/src-bobby/hw-block/ext_memory.c **** {
  16               		.loc 1 5 0
  17               	.LVL0:
  18               	/* prologue: function */
  19               	/* frame size = 0 */
  20               	/* stack size = 0 */
  21               	.L__stack_usage = 0
   6:/home/dcampbel/Research/blinkyBocksHardware/build/src-bobby/hw-block/ext_memory.c **** 	SPIE.DATA = input;
  22               		.loc 1 6 0
  23 0000 8093 C30A 		sts 2755,r24
  24               	.LVL1:
  25               	.L2:
   7:/home/dcampbel/Research/blinkyBocksHardware/build/src-bobby/hw-block/ext_memory.c **** 	
   8:/home/dcampbel/Research/blinkyBocksHardware/build/src-bobby/hw-block/ext_memory.c **** 	while(!(SPIE.STATUS & SPI_IF_bm));
  26               		.loc 1 8 0 discriminator 1
  27 0004 8091 C20A 		lds r24,2754
  28 0008 87FF      		sbrs r24,7
  29 000a 00C0      		rjmp .L2
   9:/home/dcampbel/Research/blinkyBocksHardware/build/src-bobby/hw-block/ext_memory.c **** 	
  10:/home/dcampbel/Research/blinkyBocksHardware/build/src-bobby/hw-block/ext_memory.c **** 	return SPIE.DATA;
  30               		.loc 1 10 0
  31 000c 8091 C30A 		lds r24,2755
  11:/home/dcampbel/Research/blinkyBocksHardware/build/src-bobby/hw-block/ext_memory.c **** 	
  12:/home/dcampbel/Research/blinkyBocksHardware/build/src-bobby/hw-block/ext_memory.c **** }
  32               		.loc 1 12 0
  33 0010 0895      		ret
  34               	.LFE1:
  36               	.global	setSS
  38               	setSS:
  39               	.LFB2:
  13:/home/dcampbel/Research/blinkyBocksHardware/build/src-bobby/hw-block/ext_memory.c **** 
  14:/home/dcampbel/Research/blinkyBocksHardware/build/src-bobby/hw-block/ext_memory.c **** void setSS(int which, int level)
  15:/home/dcampbel/Research/blinkyBocksHardware/build/src-bobby/hw-block/ext_memory.c **** {
  40               		.loc 1 15 0
  41               	.LVL2:
  42               	/* prologue: function */
  43               	/* frame size = 0 */
  44               	/* stack size = 0 */
  45               	.L__stack_usage = 0
  16:/home/dcampbel/Research/blinkyBocksHardware/build/src-bobby/hw-block/ext_memory.c **** 	if(which == SRAM)
  46               		.loc 1 16 0
  47 0012 0197      		sbiw r24,1
  48 0014 01F4      		brne .L5
  49               	.LVL3:
  50               	.LBB6:
  51               	.LBB7:
  17:/home/dcampbel/Research/blinkyBocksHardware/build/src-bobby/hw-block/ext_memory.c **** 	{
  18:/home/dcampbel/Research/blinkyBocksHardware/build/src-bobby/hw-block/ext_memory.c **** 		if(level)
  19:/home/dcampbel/Research/blinkyBocksHardware/build/src-bobby/hw-block/ext_memory.c **** 		{
  20:/home/dcampbel/Research/blinkyBocksHardware/build/src-bobby/hw-block/ext_memory.c **** 			PORTF.OUTSET = PIN4_bm;
  52               		.loc 1 20 0
  53 0016 80E1      		ldi r24,lo8(16)
  54               	.LVL4:
  18:/home/dcampbel/Research/blinkyBocksHardware/build/src-bobby/hw-block/ext_memory.c **** 		if(level)
  55               		.loc 1 18 0
  56 0018 672B      		or r22,r23
  57 001a 01F0      		breq .L6
  58               		.loc 1 20 0
  59 001c 8093 A506 		sts 1701,r24
  60 0020 0895      		ret
  61               	.L6:
  21:/home/dcampbel/Research/blinkyBocksHardware/build/src-bobby/hw-block/ext_memory.c **** 		}
  22:/home/dcampbel/Research/blinkyBocksHardware/build/src-bobby/hw-block/ext_memory.c **** 		else
  23:/home/dcampbel/Research/blinkyBocksHardware/build/src-bobby/hw-block/ext_memory.c **** 		{
  24:/home/dcampbel/Research/blinkyBocksHardware/build/src-bobby/hw-block/ext_memory.c **** 			PORTF.OUTCLR = PIN4_bm;	
  62               		.loc 1 24 0
  63 0022 8093 A606 		sts 1702,r24
  64 0026 0895      		ret
  65               	.LVL5:
  66               	.L5:
  67               	.LBE7:
  68               	.LBE6:
  25:/home/dcampbel/Research/blinkyBocksHardware/build/src-bobby/hw-block/ext_memory.c **** 		}
  26:/home/dcampbel/Research/blinkyBocksHardware/build/src-bobby/hw-block/ext_memory.c **** 	}
  27:/home/dcampbel/Research/blinkyBocksHardware/build/src-bobby/hw-block/ext_memory.c **** 	else
  28:/home/dcampbel/Research/blinkyBocksHardware/build/src-bobby/hw-block/ext_memory.c **** 	{
  29:/home/dcampbel/Research/blinkyBocksHardware/build/src-bobby/hw-block/ext_memory.c **** 		if(level)
  30:/home/dcampbel/Research/blinkyBocksHardware/build/src-bobby/hw-block/ext_memory.c **** 		{
  31:/home/dcampbel/Research/blinkyBocksHardware/build/src-bobby/hw-block/ext_memory.c **** 			PORTE.OUTSET = PIN4_bm;
  69               		.loc 1 31 0
  70 0028 80E1      		ldi r24,lo8(16)
  71               	.LVL6:
  29:/home/dcampbel/Research/blinkyBocksHardware/build/src-bobby/hw-block/ext_memory.c **** 		if(level)
  72               		.loc 1 29 0
  73 002a 672B      		or r22,r23
  74 002c 01F0      		breq .L8
  75               		.loc 1 31 0
  76 002e 8093 8506 		sts 1669,r24
  77 0032 0895      		ret
  78               	.L8:
  32:/home/dcampbel/Research/blinkyBocksHardware/build/src-bobby/hw-block/ext_memory.c **** 		}
  33:/home/dcampbel/Research/blinkyBocksHardware/build/src-bobby/hw-block/ext_memory.c **** 		else
  34:/home/dcampbel/Research/blinkyBocksHardware/build/src-bobby/hw-block/ext_memory.c **** 		{
  35:/home/dcampbel/Research/blinkyBocksHardware/build/src-bobby/hw-block/ext_memory.c **** 			PORTE.OUTCLR = PIN4_bm;	
  79               		.loc 1 35 0
  80 0034 8093 8606 		sts 1670,r24
  81 0038 0895      		ret
  82               	.LFE2:
  84               	.global	readExtMem
  86               	readExtMem:
  87               	.LFB3:
  36:/home/dcampbel/Research/blinkyBocksHardware/build/src-bobby/hw-block/ext_memory.c **** 		}	
  37:/home/dcampbel/Research/blinkyBocksHardware/build/src-bobby/hw-block/ext_memory.c **** 	
  38:/home/dcampbel/Research/blinkyBocksHardware/build/src-bobby/hw-block/ext_memory.c **** 	}
  39:/home/dcampbel/Research/blinkyBocksHardware/build/src-bobby/hw-block/ext_memory.c **** }
  40:/home/dcampbel/Research/blinkyBocksHardware/build/src-bobby/hw-block/ext_memory.c **** 
  41:/home/dcampbel/Research/blinkyBocksHardware/build/src-bobby/hw-block/ext_memory.c **** int readExtMem(int which, int start, char * buf, int length)
  42:/home/dcampbel/Research/blinkyBocksHardware/build/src-bobby/hw-block/ext_memory.c **** {
  88               		.loc 1 42 0
  89               	.LVL7:
  90 003a EF92      		push r14
  91               	.LCFI0:
  92 003c FF92      		push r15
  93               	.LCFI1:
  94 003e 0F93      		push r16
  95               	.LCFI2:
  96 0040 1F93      		push r17
  97               	.LCFI3:
  98 0042 CF93      		push r28
  99               	.LCFI4:
 100 0044 DF93      		push r29
 101               	.LCFI5:
 102               	/* prologue: function */
 103               	/* frame size = 0 */
 104               	/* stack size = 6 */
 105               	.L__stack_usage = 6
 106 0046 EB01      		movw r28,r22
 107 0048 8A01      		movw r16,r20
 108 004a 7901      		movw r14,r18
  43:/home/dcampbel/Research/blinkyBocksHardware/build/src-bobby/hw-block/ext_memory.c **** 	if(which == SRAM)
 109               		.loc 1 43 0
 110 004c 0197      		sbiw r24,1
 111 004e 01F4      		brne .L10
 112               	.LVL8:
 113               	.LBB26:
 114               	.LBB27:
 115               	.LBB28:
 116               	.LBB29:
  24:/home/dcampbel/Research/blinkyBocksHardware/build/src-bobby/hw-block/ext_memory.c **** 			PORTF.OUTCLR = PIN4_bm;	
 117               		.loc 1 24 0
 118 0050 80E1      		ldi r24,lo8(16)
 119               	.LVL9:
 120 0052 8093 A606 		sts 1702,r24
 121               	.LBE29:
 122               	.LBE28:
 123               	.LBE27:
  44:/home/dcampbel/Research/blinkyBocksHardware/build/src-bobby/hw-block/ext_memory.c **** 	{
  45:/home/dcampbel/Research/blinkyBocksHardware/build/src-bobby/hw-block/ext_memory.c **** 		int i;
  46:/home/dcampbel/Research/blinkyBocksHardware/build/src-bobby/hw-block/ext_memory.c **** 		
  47:/home/dcampbel/Research/blinkyBocksHardware/build/src-bobby/hw-block/ext_memory.c **** 		setSS(SRAM, 0);
  48:/home/dcampbel/Research/blinkyBocksHardware/build/src-bobby/hw-block/ext_memory.c **** 		
  49:/home/dcampbel/Research/blinkyBocksHardware/build/src-bobby/hw-block/ext_memory.c **** 		spiTxRx(SRAM_READ);
 124               		.loc 1 49 0
 125 0056 83E0      		ldi r24,lo8(3)
 126 0058 0E94 0000 		call spiTxRx
 127               	.LVL10:
  50:/home/dcampbel/Research/blinkyBocksHardware/build/src-bobby/hw-block/ext_memory.c **** 		spiTxRx((start >> 8) & 0x00FF);
 128               		.loc 1 50 0
 129 005c 8D2F      		mov r24,r29
 130 005e 0E94 0000 		call spiTxRx
 131               	.LVL11:
  51:/home/dcampbel/Research/blinkyBocksHardware/build/src-bobby/hw-block/ext_memory.c **** 		spiTxRx(start & 0x00FF);
 132               		.loc 1 51 0
 133 0062 8C2F      		mov r24,r28
 134 0064 0E94 0000 		call spiTxRx
 135               	.LVL12:
 136 0068 E801      		movw r28,r16
 137               	.LVL13:
  52:/home/dcampbel/Research/blinkyBocksHardware/build/src-bobby/hw-block/ext_memory.c **** 		
  53:/home/dcampbel/Research/blinkyBocksHardware/build/src-bobby/hw-block/ext_memory.c **** 		for(i = 0; i < length; ++i)
 138               		.loc 1 53 0
 139 006a 00C0      		rjmp .L11
 140               	.LVL14:
 141               	.L12:
  54:/home/dcampbel/Research/blinkyBocksHardware/build/src-bobby/hw-block/ext_memory.c **** 		{
  55:/home/dcampbel/Research/blinkyBocksHardware/build/src-bobby/hw-block/ext_memory.c **** 			buf[i] = spiTxRx(0);
 142               		.loc 1 55 0 discriminator 2
 143 006c 80E0      		ldi r24,0
 144 006e 0E94 0000 		call spiTxRx
 145               	.LVL15:
 146 0072 F801      		movw r30,r16
 147 0074 8193      		st Z+,r24
 148 0076 8F01      		movw r16,r30
 149               	.L11:
  41:/home/dcampbel/Research/blinkyBocksHardware/build/src-bobby/hw-block/ext_memory.c **** int readExtMem(int which, int start, char * buf, int length)
 150               		.loc 1 41 0 discriminator 1
 151 0078 C801      		movw r24,r16
 152 007a 8C1B      		sub r24,r28
 153 007c 9D0B      		sbc r25,r29
  53:/home/dcampbel/Research/blinkyBocksHardware/build/src-bobby/hw-block/ext_memory.c **** 		for(i = 0; i < length; ++i)
 154               		.loc 1 53 0 discriminator 1
 155 007e 8E15      		cp r24,r14
 156 0080 9F05      		cpc r25,r15
 157 0082 04F0      		brlt .L12
 158               	.LVL16:
 159               	.LBB30:
 160               	.LBB31:
 161               	.LBB32:
  20:/home/dcampbel/Research/blinkyBocksHardware/build/src-bobby/hw-block/ext_memory.c **** 			PORTF.OUTSET = PIN4_bm;
 162               		.loc 1 20 0
 163 0084 80E1      		ldi r24,lo8(16)
 164 0086 8093 A506 		sts 1701,r24
 165 008a 00C0      		rjmp .L13
 166               	.LVL17:
 167               	.L10:
 168               	.LBE32:
 169               	.LBE31:
 170               	.LBE30:
 171               	.LBE26:
 172               	.LBB33:
 173               	.LBB34:
 174               	.LBB35:
  35:/home/dcampbel/Research/blinkyBocksHardware/build/src-bobby/hw-block/ext_memory.c **** 			PORTE.OUTCLR = PIN4_bm;	
 175               		.loc 1 35 0
 176 008c 80E1      		ldi r24,lo8(16)
 177               	.LVL18:
 178 008e 8093 8606 		sts 1670,r24
 179               	.LBE35:
 180               	.LBE34:
  56:/home/dcampbel/Research/blinkyBocksHardware/build/src-bobby/hw-block/ext_memory.c **** 		}
  57:/home/dcampbel/Research/blinkyBocksHardware/build/src-bobby/hw-block/ext_memory.c **** 		
  58:/home/dcampbel/Research/blinkyBocksHardware/build/src-bobby/hw-block/ext_memory.c **** 		setSS(SRAM, 1);	
  59:/home/dcampbel/Research/blinkyBocksHardware/build/src-bobby/hw-block/ext_memory.c **** 		
  60:/home/dcampbel/Research/blinkyBocksHardware/build/src-bobby/hw-block/ext_memory.c **** 		return 1;
  61:/home/dcampbel/Research/blinkyBocksHardware/build/src-bobby/hw-block/ext_memory.c **** 	}
  62:/home/dcampbel/Research/blinkyBocksHardware/build/src-bobby/hw-block/ext_memory.c **** 	else
  63:/home/dcampbel/Research/blinkyBocksHardware/build/src-bobby/hw-block/ext_memory.c **** 	{
  64:/home/dcampbel/Research/blinkyBocksHardware/build/src-bobby/hw-block/ext_memory.c **** 		int i;
  65:/home/dcampbel/Research/blinkyBocksHardware/build/src-bobby/hw-block/ext_memory.c **** 		
  66:/home/dcampbel/Research/blinkyBocksHardware/build/src-bobby/hw-block/ext_memory.c **** 		setSS(FLASH, 0);
  67:/home/dcampbel/Research/blinkyBocksHardware/build/src-bobby/hw-block/ext_memory.c **** 		
  68:/home/dcampbel/Research/blinkyBocksHardware/build/src-bobby/hw-block/ext_memory.c **** 		spiTxRx(FLASH_BF1RD);
 181               		.loc 1 68 0
 182 0092 84ED      		ldi r24,lo8(-44)
 183 0094 0E94 0000 		call spiTxRx
 184               	.LVL19:
  69:/home/dcampbel/Research/blinkyBocksHardware/build/src-bobby/hw-block/ext_memory.c **** 		spiTxRx(0x00);
 185               		.loc 1 69 0
 186 0098 80E0      		ldi r24,0
 187 009a 0E94 0000 		call spiTxRx
 188               	.LVL20:
  70:/home/dcampbel/Research/blinkyBocksHardware/build/src-bobby/hw-block/ext_memory.c **** 		spiTxRx((start & 0x0300) >> 8);
 189               		.loc 1 70 0
 190 009e CE01      		movw r24,r28
 191 00a0 8827      		clr r24
 192 00a2 9370      		andi r25,3
 193 00a4 892F      		mov r24,r25
 194 00a6 0E94 0000 		call spiTxRx
 195               	.LVL21:
  71:/home/dcampbel/Research/blinkyBocksHardware/build/src-bobby/hw-block/ext_memory.c **** 		spiTxRx(start & 0x00FF);
 196               		.loc 1 71 0
 197 00aa 8C2F      		mov r24,r28
 198 00ac 0E94 0000 		call spiTxRx
 199               	.LVL22:
  72:/home/dcampbel/Research/blinkyBocksHardware/build/src-bobby/hw-block/ext_memory.c **** 		spiTxRx(0x00);
 200               		.loc 1 72 0
 201 00b0 80E0      		ldi r24,0
 202 00b2 0E94 0000 		call spiTxRx
 203               	.LVL23:
 204 00b6 E801      		movw r28,r16
 205               	.LVL24:
  73:/home/dcampbel/Research/blinkyBocksHardware/build/src-bobby/hw-block/ext_memory.c **** 		
  74:/home/dcampbel/Research/blinkyBocksHardware/build/src-bobby/hw-block/ext_memory.c **** 		for(i = 0; i < length; ++i)
 206               		.loc 1 74 0
 207 00b8 00C0      		rjmp .L14
 208               	.LVL25:
 209               	.L15:
  75:/home/dcampbel/Research/blinkyBocksHardware/build/src-bobby/hw-block/ext_memory.c **** 		{
  76:/home/dcampbel/Research/blinkyBocksHardware/build/src-bobby/hw-block/ext_memory.c **** 			buf[i] = spiTxRx(0);
 210               		.loc 1 76 0 discriminator 2
 211 00ba 80E0      		ldi r24,0
 212 00bc 0E94 0000 		call spiTxRx
 213               	.LVL26:
 214 00c0 F801      		movw r30,r16
 215 00c2 8193      		st Z+,r24
 216 00c4 8F01      		movw r16,r30
 217               	.L14:
  41:/home/dcampbel/Research/blinkyBocksHardware/build/src-bobby/hw-block/ext_memory.c **** int readExtMem(int which, int start, char * buf, int length)
 218               		.loc 1 41 0 discriminator 1
 219 00c6 C801      		movw r24,r16
 220 00c8 8C1B      		sub r24,r28
 221 00ca 9D0B      		sbc r25,r29
  74:/home/dcampbel/Research/blinkyBocksHardware/build/src-bobby/hw-block/ext_memory.c **** 		for(i = 0; i < length; ++i)
 222               		.loc 1 74 0 discriminator 1
 223 00cc 8E15      		cp r24,r14
 224 00ce 9F05      		cpc r25,r15
 225 00d0 04F0      		brlt .L15
 226               	.LVL27:
 227               	.LBB36:
 228               	.LBB37:
  31:/home/dcampbel/Research/blinkyBocksHardware/build/src-bobby/hw-block/ext_memory.c **** 			PORTE.OUTSET = PIN4_bm;
 229               		.loc 1 31 0
 230 00d2 80E1      		ldi r24,lo8(16)
 231 00d4 8093 8506 		sts 1669,r24
 232               	.LVL28:
 233               	.L13:
 234               	.LBE37:
 235               	.LBE36:
 236               	.LBE33:
  77:/home/dcampbel/Research/blinkyBocksHardware/build/src-bobby/hw-block/ext_memory.c **** 		}
  78:/home/dcampbel/Research/blinkyBocksHardware/build/src-bobby/hw-block/ext_memory.c **** 		
  79:/home/dcampbel/Research/blinkyBocksHardware/build/src-bobby/hw-block/ext_memory.c **** 		setSS(FLASH, 1);	
  80:/home/dcampbel/Research/blinkyBocksHardware/build/src-bobby/hw-block/ext_memory.c **** 		
  81:/home/dcampbel/Research/blinkyBocksHardware/build/src-bobby/hw-block/ext_memory.c **** 		return 1;
  82:/home/dcampbel/Research/blinkyBocksHardware/build/src-bobby/hw-block/ext_memory.c **** 	}
  83:/home/dcampbel/Research/blinkyBocksHardware/build/src-bobby/hw-block/ext_memory.c **** }
 237               		.loc 1 83 0
 238 00d8 81E0      		ldi r24,lo8(1)
 239 00da 90E0      		ldi r25,0
 240               	/* epilogue start */
 241 00dc DF91      		pop r29
 242 00de CF91      		pop r28
 243               	.LVL29:
 244 00e0 1F91      		pop r17
 245 00e2 0F91      		pop r16
 246 00e4 FF90      		pop r15
 247 00e6 EF90      		pop r14
 248               	.LVL30:
 249 00e8 0895      		ret
 250               	.LFE3:
 252               	.global	writeExtMem
 254               	writeExtMem:
 255               	.LFB4:
  84:/home/dcampbel/Research/blinkyBocksHardware/build/src-bobby/hw-block/ext_memory.c **** 
  85:/home/dcampbel/Research/blinkyBocksHardware/build/src-bobby/hw-block/ext_memory.c **** int writeExtMem(int which, int start, char * buf, int length)
  86:/home/dcampbel/Research/blinkyBocksHardware/build/src-bobby/hw-block/ext_memory.c **** {
 256               		.loc 1 86 0
 257               	.LVL31:
 258 00ea EF92      		push r14
 259               	.LCFI6:
 260 00ec FF92      		push r15
 261               	.LCFI7:
 262 00ee 0F93      		push r16
 263               	.LCFI8:
 264 00f0 1F93      		push r17
 265               	.LCFI9:
 266 00f2 CF93      		push r28
 267               	.LCFI10:
 268 00f4 DF93      		push r29
 269               	.LCFI11:
 270               	/* prologue: function */
 271               	/* frame size = 0 */
 272               	/* stack size = 6 */
 273               	.L__stack_usage = 6
 274 00f6 EB01      		movw r28,r22
 275 00f8 8A01      		movw r16,r20
 276 00fa 7901      		movw r14,r18
  87:/home/dcampbel/Research/blinkyBocksHardware/build/src-bobby/hw-block/ext_memory.c **** 	if(which == SRAM)
 277               		.loc 1 87 0
 278 00fc 0197      		sbiw r24,1
 279 00fe 01F4      		brne .L17
 280               	.LVL32:
 281               	.LBB56:
 282               	.LBB57:
 283               	.LBB58:
 284               	.LBB59:
  24:/home/dcampbel/Research/blinkyBocksHardware/build/src-bobby/hw-block/ext_memory.c **** 			PORTF.OUTCLR = PIN4_bm;	
 285               		.loc 1 24 0
 286 0100 80E1      		ldi r24,lo8(16)
 287               	.LVL33:
 288 0102 8093 A606 		sts 1702,r24
 289               	.LBE59:
 290               	.LBE58:
 291               	.LBE57:
  88:/home/dcampbel/Research/blinkyBocksHardware/build/src-bobby/hw-block/ext_memory.c **** 	{
  89:/home/dcampbel/Research/blinkyBocksHardware/build/src-bobby/hw-block/ext_memory.c **** 		int i;
  90:/home/dcampbel/Research/blinkyBocksHardware/build/src-bobby/hw-block/ext_memory.c **** 		
  91:/home/dcampbel/Research/blinkyBocksHardware/build/src-bobby/hw-block/ext_memory.c **** 		setSS(SRAM, 0);
  92:/home/dcampbel/Research/blinkyBocksHardware/build/src-bobby/hw-block/ext_memory.c **** 		
  93:/home/dcampbel/Research/blinkyBocksHardware/build/src-bobby/hw-block/ext_memory.c **** 		spiTxRx(SRAM_WRITE);
 292               		.loc 1 93 0
 293 0106 82E0      		ldi r24,lo8(2)
 294 0108 0E94 0000 		call spiTxRx
 295               	.LVL34:
  94:/home/dcampbel/Research/blinkyBocksHardware/build/src-bobby/hw-block/ext_memory.c **** 		spiTxRx((start >> 8) & 0x00FF);
 296               		.loc 1 94 0
 297 010c 8D2F      		mov r24,r29
 298 010e 0E94 0000 		call spiTxRx
 299               	.LVL35:
  95:/home/dcampbel/Research/blinkyBocksHardware/build/src-bobby/hw-block/ext_memory.c **** 		spiTxRx(start & 0x00FF);
 300               		.loc 1 95 0
 301 0112 8C2F      		mov r24,r28
 302 0114 0E94 0000 		call spiTxRx
 303               	.LVL36:
 304 0118 E801      		movw r28,r16
 305               	.LVL37:
  96:/home/dcampbel/Research/blinkyBocksHardware/build/src-bobby/hw-block/ext_memory.c **** 		
  97:/home/dcampbel/Research/blinkyBocksHardware/build/src-bobby/hw-block/ext_memory.c **** 		for(i = 0; i < length; ++i)
 306               		.loc 1 97 0
 307 011a 00C0      		rjmp .L18
 308               	.LVL38:
 309               	.L19:
  98:/home/dcampbel/Research/blinkyBocksHardware/build/src-bobby/hw-block/ext_memory.c **** 		{
  99:/home/dcampbel/Research/blinkyBocksHardware/build/src-bobby/hw-block/ext_memory.c **** 			spiTxRx(buf[i]);
 310               		.loc 1 99 0 discriminator 2
 311 011c F801      		movw r30,r16
 312 011e 8191      		ld r24,Z+
 313 0120 8F01      		movw r16,r30
 314 0122 0E94 0000 		call spiTxRx
 315               	.LVL39:
 316               	.L18:
  85:/home/dcampbel/Research/blinkyBocksHardware/build/src-bobby/hw-block/ext_memory.c **** int writeExtMem(int which, int start, char * buf, int length)
 317               		.loc 1 85 0 discriminator 1
 318 0126 C801      		movw r24,r16
 319 0128 8C1B      		sub r24,r28
 320 012a 9D0B      		sbc r25,r29
  97:/home/dcampbel/Research/blinkyBocksHardware/build/src-bobby/hw-block/ext_memory.c **** 		for(i = 0; i < length; ++i)
 321               		.loc 1 97 0 discriminator 1
 322 012c 8E15      		cp r24,r14
 323 012e 9F05      		cpc r25,r15
 324 0130 04F0      		brlt .L19
 325               	.LVL40:
 326               	.LBB60:
 327               	.LBB61:
 328               	.LBB62:
  20:/home/dcampbel/Research/blinkyBocksHardware/build/src-bobby/hw-block/ext_memory.c **** 			PORTF.OUTSET = PIN4_bm;
 329               		.loc 1 20 0
 330 0132 80E1      		ldi r24,lo8(16)
 331 0134 8093 A506 		sts 1701,r24
 332 0138 00C0      		rjmp .L20
 333               	.LVL41:
 334               	.L17:
 335               	.LBE62:
 336               	.LBE61:
 337               	.LBE60:
 338               	.LBE56:
 339               	.LBB63:
 340               	.LBB64:
 341               	.LBB65:
  35:/home/dcampbel/Research/blinkyBocksHardware/build/src-bobby/hw-block/ext_memory.c **** 			PORTE.OUTCLR = PIN4_bm;	
 342               		.loc 1 35 0
 343 013a 80E1      		ldi r24,lo8(16)
 344               	.LVL42:
 345 013c 8093 8606 		sts 1670,r24
 346               	.LBE65:
 347               	.LBE64:
 100:/home/dcampbel/Research/blinkyBocksHardware/build/src-bobby/hw-block/ext_memory.c **** 		}
 101:/home/dcampbel/Research/blinkyBocksHardware/build/src-bobby/hw-block/ext_memory.c **** 		
 102:/home/dcampbel/Research/blinkyBocksHardware/build/src-bobby/hw-block/ext_memory.c **** 		setSS(SRAM, 1);	
 103:/home/dcampbel/Research/blinkyBocksHardware/build/src-bobby/hw-block/ext_memory.c **** 		
 104:/home/dcampbel/Research/blinkyBocksHardware/build/src-bobby/hw-block/ext_memory.c **** 		return 1;
 105:/home/dcampbel/Research/blinkyBocksHardware/build/src-bobby/hw-block/ext_memory.c **** 	}
 106:/home/dcampbel/Research/blinkyBocksHardware/build/src-bobby/hw-block/ext_memory.c **** 	else
 107:/home/dcampbel/Research/blinkyBocksHardware/build/src-bobby/hw-block/ext_memory.c **** 	{
 108:/home/dcampbel/Research/blinkyBocksHardware/build/src-bobby/hw-block/ext_memory.c **** 		int i;
 109:/home/dcampbel/Research/blinkyBocksHardware/build/src-bobby/hw-block/ext_memory.c **** 		
 110:/home/dcampbel/Research/blinkyBocksHardware/build/src-bobby/hw-block/ext_memory.c **** 		setSS(FLASH, 0);
 111:/home/dcampbel/Research/blinkyBocksHardware/build/src-bobby/hw-block/ext_memory.c **** 		
 112:/home/dcampbel/Research/blinkyBocksHardware/build/src-bobby/hw-block/ext_memory.c **** 		spiTxRx(FLASH_BF1WR);
 348               		.loc 1 112 0
 349 0140 84E8      		ldi r24,lo8(-124)
 350 0142 0E94 0000 		call spiTxRx
 351               	.LVL43:
 113:/home/dcampbel/Research/blinkyBocksHardware/build/src-bobby/hw-block/ext_memory.c **** 		spiTxRx(0x00);
 352               		.loc 1 113 0
 353 0146 80E0      		ldi r24,0
 354 0148 0E94 0000 		call spiTxRx
 355               	.LVL44:
 114:/home/dcampbel/Research/blinkyBocksHardware/build/src-bobby/hw-block/ext_memory.c **** 		spiTxRx((start & 0x0300) >> 8);
 356               		.loc 1 114 0
 357 014c CE01      		movw r24,r28
 358 014e 8827      		clr r24
 359 0150 9370      		andi r25,3
 360 0152 892F      		mov r24,r25
 361 0154 0E94 0000 		call spiTxRx
 362               	.LVL45:
 115:/home/dcampbel/Research/blinkyBocksHardware/build/src-bobby/hw-block/ext_memory.c **** 		spiTxRx(start & 0x00FF);
 363               		.loc 1 115 0
 364 0158 8C2F      		mov r24,r28
 365 015a 0E94 0000 		call spiTxRx
 366               	.LVL46:
 367 015e E801      		movw r28,r16
 368               	.LVL47:
 116:/home/dcampbel/Research/blinkyBocksHardware/build/src-bobby/hw-block/ext_memory.c **** 		
 117:/home/dcampbel/Research/blinkyBocksHardware/build/src-bobby/hw-block/ext_memory.c **** 		for(i = 0; i < length; ++i)
 369               		.loc 1 117 0
 370 0160 00C0      		rjmp .L21
 371               	.LVL48:
 372               	.L22:
 118:/home/dcampbel/Research/blinkyBocksHardware/build/src-bobby/hw-block/ext_memory.c **** 		{
 119:/home/dcampbel/Research/blinkyBocksHardware/build/src-bobby/hw-block/ext_memory.c **** 			spiTxRx(buf[i]);
 373               		.loc 1 119 0 discriminator 2
 374 0162 F801      		movw r30,r16
 375 0164 8191      		ld r24,Z+
 376 0166 8F01      		movw r16,r30
 377 0168 0E94 0000 		call spiTxRx
 378               	.LVL49:
 379               	.L21:
  85:/home/dcampbel/Research/blinkyBocksHardware/build/src-bobby/hw-block/ext_memory.c **** int writeExtMem(int which, int start, char * buf, int length)
 380               		.loc 1 85 0 discriminator 1
 381 016c C801      		movw r24,r16
 382 016e 8C1B      		sub r24,r28
 383 0170 9D0B      		sbc r25,r29
 117:/home/dcampbel/Research/blinkyBocksHardware/build/src-bobby/hw-block/ext_memory.c **** 		for(i = 0; i < length; ++i)
 384               		.loc 1 117 0 discriminator 1
 385 0172 8E15      		cp r24,r14
 386 0174 9F05      		cpc r25,r15
 387 0176 04F0      		brlt .L22
 388               	.LVL50:
 389               	.LBB66:
 390               	.LBB67:
  31:/home/dcampbel/Research/blinkyBocksHardware/build/src-bobby/hw-block/ext_memory.c **** 			PORTE.OUTSET = PIN4_bm;
 391               		.loc 1 31 0
 392 0178 80E1      		ldi r24,lo8(16)
 393 017a 8093 8506 		sts 1669,r24
 394               	.LVL51:
 395               	.L20:
 396               	.LBE67:
 397               	.LBE66:
 398               	.LBE63:
 120:/home/dcampbel/Research/blinkyBocksHardware/build/src-bobby/hw-block/ext_memory.c **** 		}
 121:/home/dcampbel/Research/blinkyBocksHardware/build/src-bobby/hw-block/ext_memory.c **** 		
 122:/home/dcampbel/Research/blinkyBocksHardware/build/src-bobby/hw-block/ext_memory.c **** 		setSS(FLASH, 1);	
 123:/home/dcampbel/Research/blinkyBocksHardware/build/src-bobby/hw-block/ext_memory.c **** 		
 124:/home/dcampbel/Research/blinkyBocksHardware/build/src-bobby/hw-block/ext_memory.c **** 		return 1;
 125:/home/dcampbel/Research/blinkyBocksHardware/build/src-bobby/hw-block/ext_memory.c **** 	}
 126:/home/dcampbel/Research/blinkyBocksHardware/build/src-bobby/hw-block/ext_memory.c **** 
 127:/home/dcampbel/Research/blinkyBocksHardware/build/src-bobby/hw-block/ext_memory.c **** 
 128:/home/dcampbel/Research/blinkyBocksHardware/build/src-bobby/hw-block/ext_memory.c **** }
 399               		.loc 1 128 0
 400 017e 81E0      		ldi r24,lo8(1)
 401 0180 90E0      		ldi r25,0
 402               	/* epilogue start */
 403 0182 DF91      		pop r29
 404 0184 CF91      		pop r28
 405               	.LVL52:
 406 0186 1F91      		pop r17
 407 0188 0F91      		pop r16
 408 018a FF90      		pop r15
 409 018c EF90      		pop r14
 410               	.LVL53:
 411 018e 0895      		ret
 412               	.LFE4:
 414               	.global	initFlash
 416               	initFlash:
 417               	.LFB5:
 129:/home/dcampbel/Research/blinkyBocksHardware/build/src-bobby/hw-block/ext_memory.c **** 
 130:/home/dcampbel/Research/blinkyBocksHardware/build/src-bobby/hw-block/ext_memory.c **** 
 131:/home/dcampbel/Research/blinkyBocksHardware/build/src-bobby/hw-block/ext_memory.c **** 
 132:/home/dcampbel/Research/blinkyBocksHardware/build/src-bobby/hw-block/ext_memory.c **** void initFlash()
 133:/home/dcampbel/Research/blinkyBocksHardware/build/src-bobby/hw-block/ext_memory.c **** {
 418               		.loc 1 133 0
 419               	/* prologue: function */
 420               	/* frame size = 0 */
 421               	/* stack size = 0 */
 422               	.L__stack_usage = 0
 423 0190 0895      		ret
 424               	.LFE5:
 426               		.section	.rodata.str1.1,"aMS",@progbits,1
 427               	.LC0:
 428 0000 5352 2069 		.string	"SR is: %x\r\n"
 428      733A 2025 
 428      780D 0A00 
 429               		.text
 430               	.global	initSRAM
 432               	initSRAM:
 433               	.LFB6:
 134:/home/dcampbel/Research/blinkyBocksHardware/build/src-bobby/hw-block/ext_memory.c **** 
 135:/home/dcampbel/Research/blinkyBocksHardware/build/src-bobby/hw-block/ext_memory.c **** }
 136:/home/dcampbel/Research/blinkyBocksHardware/build/src-bobby/hw-block/ext_memory.c **** 
 137:/home/dcampbel/Research/blinkyBocksHardware/build/src-bobby/hw-block/ext_memory.c **** void initSRAM()
 138:/home/dcampbel/Research/blinkyBocksHardware/build/src-bobby/hw-block/ext_memory.c **** {
 434               		.loc 1 138 0
 435               		.loc 1 138 0
 436 0192 1F93      		push r17
 437               	.LCFI12:
 438 0194 CF93      		push r28
 439               	.LCFI13:
 440 0196 DF93      		push r29
 441               	.LCFI14:
 442               	/* prologue: function */
 443               	/* frame size = 0 */
 444               	/* stack size = 3 */
 445               	.L__stack_usage = 3
 446               	.LVL54:
 447               	.LBB85:
 448               	.LBB86:
 449               	.LBB87:
  24:/home/dcampbel/Research/blinkyBocksHardware/build/src-bobby/hw-block/ext_memory.c **** 			PORTF.OUTCLR = PIN4_bm;	
 450               		.loc 1 24 0
 451 0198 C0EA      		ldi r28,lo8(-96)
 452 019a D6E0      		ldi r29,lo8(6)
 453 019c 10E1      		ldi r17,lo8(16)
 454 019e 1E83      		std Y+6,r17
 455               	.LBE87:
 456               	.LBE86:
 457               	.LBE85:
 139:/home/dcampbel/Research/blinkyBocksHardware/build/src-bobby/hw-block/ext_memory.c **** 		setSS(SRAM, 0);
 140:/home/dcampbel/Research/blinkyBocksHardware/build/src-bobby/hw-block/ext_memory.c **** 		
 141:/home/dcampbel/Research/blinkyBocksHardware/build/src-bobby/hw-block/ext_memory.c **** 		spiTxRx(SRAM_WRSR);
 458               		.loc 1 141 0
 459 01a0 81E0      		ldi r24,lo8(1)
 460 01a2 0E94 0000 		call spiTxRx
 461               	.LVL55:
 142:/home/dcampbel/Research/blinkyBocksHardware/build/src-bobby/hw-block/ext_memory.c **** 		spiTxRx(0x41);	// set mode to sequential, disable HOLD feature
 462               		.loc 1 142 0
 463 01a6 81E4      		ldi r24,lo8(65)
 464 01a8 0E94 0000 		call spiTxRx
 465               	.LVL56:
 466               	.LBB88:
 467               	.LBB89:
 468               	.LBB90:
  20:/home/dcampbel/Research/blinkyBocksHardware/build/src-bobby/hw-block/ext_memory.c **** 			PORTF.OUTSET = PIN4_bm;
 469               		.loc 1 20 0
 470 01ac 1D83      		std Y+5,r17
 471               	.LVL57:
 472               	.LBE90:
 473               	.LBE89:
 474               	.LBE88:
 475               	.LBB91:
 476               	.LBB92:
 477               	.LBB93:
 478               	.LBB94:
  24:/home/dcampbel/Research/blinkyBocksHardware/build/src-bobby/hw-block/ext_memory.c **** 			PORTF.OUTCLR = PIN4_bm;	
 479               		.loc 1 24 0
 480 01ae 1E83      		std Y+6,r17
 481               	.LBE94:
 482               	.LBE93:
 483               	.LBE92:
 143:/home/dcampbel/Research/blinkyBocksHardware/build/src-bobby/hw-block/ext_memory.c **** 		
 144:/home/dcampbel/Research/blinkyBocksHardware/build/src-bobby/hw-block/ext_memory.c **** 		setSS(SRAM, 1);	
 145:/home/dcampbel/Research/blinkyBocksHardware/build/src-bobby/hw-block/ext_memory.c **** 	
 146:/home/dcampbel/Research/blinkyBocksHardware/build/src-bobby/hw-block/ext_memory.c **** 	{
 147:/home/dcampbel/Research/blinkyBocksHardware/build/src-bobby/hw-block/ext_memory.c **** 		uint8_t val;
 148:/home/dcampbel/Research/blinkyBocksHardware/build/src-bobby/hw-block/ext_memory.c **** 		setSS(SRAM, 0);
 149:/home/dcampbel/Research/blinkyBocksHardware/build/src-bobby/hw-block/ext_memory.c **** 		
 150:/home/dcampbel/Research/blinkyBocksHardware/build/src-bobby/hw-block/ext_memory.c **** 		spiTxRx(SRAM_RDSR);
 484               		.loc 1 150 0
 485 01b0 85E0      		ldi r24,lo8(5)
 486 01b2 0E94 0000 		call spiTxRx
 487               	.LVL58:
 151:/home/dcampbel/Research/blinkyBocksHardware/build/src-bobby/hw-block/ext_memory.c **** 		val = spiTxRx(0x0);	// set mode to sequential, disable HOLD feature
 488               		.loc 1 151 0
 489 01b6 80E0      		ldi r24,0
 490 01b8 0E94 0000 		call spiTxRx
 491               	.LVL59:
 492               	.LBB95:
 493               	.LBB96:
 494               	.LBB97:
  20:/home/dcampbel/Research/blinkyBocksHardware/build/src-bobby/hw-block/ext_memory.c **** 			PORTF.OUTSET = PIN4_bm;
 495               		.loc 1 20 0
 496 01bc 1D83      		std Y+5,r17
 497               	.LBE97:
 498               	.LBE96:
 499               	.LBE95:
 152:/home/dcampbel/Research/blinkyBocksHardware/build/src-bobby/hw-block/ext_memory.c **** 		
 153:/home/dcampbel/Research/blinkyBocksHardware/build/src-bobby/hw-block/ext_memory.c **** 		setSS(SRAM, 1);			
 154:/home/dcampbel/Research/blinkyBocksHardware/build/src-bobby/hw-block/ext_memory.c **** 		
 155:/home/dcampbel/Research/blinkyBocksHardware/build/src-bobby/hw-block/ext_memory.c **** 		printf("SR is: %x\r\n",val);
 500               		.loc 1 155 0
 501 01be 1F92      		push __zero_reg__
 502               	.LCFI15:
 503 01c0 8F93      		push r24
 504               	.LCFI16:
 505 01c2 80E0      		ldi r24,lo8(.LC0)
 506 01c4 90E0      		ldi r25,hi8(.LC0)
 507               	.LVL60:
 508 01c6 9F93      		push r25
 509               	.LCFI17:
 510               	.LVL61:
 511 01c8 8F93      		push r24
 512               	.LCFI18:
 513               	.LVL62:
 514 01ca 0E94 0000 		call printf
 515               	.LVL63:
 516 01ce 0F90      		pop __tmp_reg__
 517 01d0 0F90      		pop __tmp_reg__
 518 01d2 0F90      		pop __tmp_reg__
 519 01d4 0F90      		pop __tmp_reg__
 520               	.LCFI19:
 521               	/* epilogue start */
 522               	.LBE91:
 156:/home/dcampbel/Research/blinkyBocksHardware/build/src-bobby/hw-block/ext_memory.c **** 	}
 157:/home/dcampbel/Research/blinkyBocksHardware/build/src-bobby/hw-block/ext_memory.c **** }
 523               		.loc 1 157 0
 524 01d6 DF91      		pop r29
 525 01d8 CF91      		pop r28
 526 01da 1F91      		pop r17
 527 01dc 0895      		ret
 528               	.LFE6:
 530               	.global	initExtMem
 532               	initExtMem:
 533               	.LFB7:
 158:/home/dcampbel/Research/blinkyBocksHardware/build/src-bobby/hw-block/ext_memory.c **** 
 159:/home/dcampbel/Research/blinkyBocksHardware/build/src-bobby/hw-block/ext_memory.c **** void initExtMem()
 160:/home/dcampbel/Research/blinkyBocksHardware/build/src-bobby/hw-block/ext_memory.c **** {
 534               		.loc 1 160 0
 535               	/* prologue: function */
 536               	/* frame size = 0 */
 537               	/* stack size = 0 */
 538               	.L__stack_usage = 0
 161:/home/dcampbel/Research/blinkyBocksHardware/build/src-bobby/hw-block/ext_memory.c **** 	PORTE.OUTSET = PIN4_bm;
 539               		.loc 1 161 0
 540 01de E0E8      		ldi r30,lo8(-128)
 541 01e0 F6E0      		ldi r31,lo8(6)
 542 01e2 80E1      		ldi r24,lo8(16)
 543 01e4 8583      		std Z+5,r24
 162:/home/dcampbel/Research/blinkyBocksHardware/build/src-bobby/hw-block/ext_memory.c **** 	PORTE.DIRSET = PIN4_bm;
 544               		.loc 1 162 0
 545 01e6 8183      		std Z+1,r24
 163:/home/dcampbel/Research/blinkyBocksHardware/build/src-bobby/hw-block/ext_memory.c **** 
 164:/home/dcampbel/Research/blinkyBocksHardware/build/src-bobby/hw-block/ext_memory.c **** 	// set !SS1 lhigh
 165:/home/dcampbel/Research/blinkyBocksHardware/build/src-bobby/hw-block/ext_memory.c **** 	PORTF.OUTSET = PIN4_bm;
 546               		.loc 1 165 0
 547 01e8 A0EA      		ldi r26,lo8(-96)
 548 01ea B6E0      		ldi r27,lo8(6)
 549 01ec 1596      		adiw r26,5
 550 01ee 8C93      		st X,r24
 551 01f0 1597      		sbiw r26,5
 166:/home/dcampbel/Research/blinkyBocksHardware/build/src-bobby/hw-block/ext_memory.c **** 	PORTF.DIRSET = PIN4_bm;
 552               		.loc 1 166 0
 553 01f2 1196      		adiw r26,1
 554 01f4 8C93      		st X,r24
 167:/home/dcampbel/Research/blinkyBocksHardware/build/src-bobby/hw-block/ext_memory.c **** 
 168:/home/dcampbel/Research/blinkyBocksHardware/build/src-bobby/hw-block/ext_memory.c **** 
 169:/home/dcampbel/Research/blinkyBocksHardware/build/src-bobby/hw-block/ext_memory.c **** 	PORTE.DIRSET = PIN5_bm | PIN7_bm;	// !ss/mosi/sck as output
 555               		.loc 1 169 0
 556 01f6 80EA      		ldi r24,lo8(-96)
 557 01f8 8183      		std Z+1,r24
 170:/home/dcampbel/Research/blinkyBocksHardware/build/src-bobby/hw-block/ext_memory.c **** 	PORTE.DIRCLR = PIN6_bm;				// miso as input
 558               		.loc 1 170 0
 559 01fa 80E4      		ldi r24,lo8(64)
 560 01fc 8283      		std Z+2,r24
 171:/home/dcampbel/Research/blinkyBocksHardware/build/src-bobby/hw-block/ext_memory.c **** 
 172:/home/dcampbel/Research/blinkyBocksHardware/build/src-bobby/hw-block/ext_memory.c **** 	SPIE.CTRL = SPI_ENABLE_bm | SPI_MASTER_bm;	//mode 0, clock/4
 561               		.loc 1 172 0
 562 01fe 80E5      		ldi r24,lo8(80)
 563 0200 8093 C00A 		sts 2752,r24
 173:/home/dcampbel/Research/blinkyBocksHardware/build/src-bobby/hw-block/ext_memory.c **** 
 174:/home/dcampbel/Research/blinkyBocksHardware/build/src-bobby/hw-block/ext_memory.c **** 	initFlash();
 175:/home/dcampbel/Research/blinkyBocksHardware/build/src-bobby/hw-block/ext_memory.c **** 	initSRAM();
 564               		.loc 1 175 0
 565 0204 0C94 0000 		jmp initSRAM
 566               	.LVL64:
 567               	.LFE7:
 753               	.Letext0:
 754               		.file 2 "/usr/lib/gcc/avr/4.7.2/../../../avr/include/stdint.h"
 755               		.file 3 "/usr/lib/gcc/avr/4.7.2/../../../avr/include/avr/iox256a3.h"
 756               		.file 4 "/usr/lib/gcc/avr/4.7.2/../../../avr/include/stdio.h"
DEFINED SYMBOLS
                            *ABS*:0000000000000000 ext_memory.c
     /tmp/ccr1wW7N.s:2      *ABS*:000000000000003e __SP_H__
     /tmp/ccr1wW7N.s:3      *ABS*:000000000000003d __SP_L__
     /tmp/ccr1wW7N.s:4      *ABS*:000000000000003f __SREG__
     /tmp/ccr1wW7N.s:5      *ABS*:000000000000003b __RAMPZ__
     /tmp/ccr1wW7N.s:6      *ABS*:0000000000000034 __CCP__
     /tmp/ccr1wW7N.s:7      *ABS*:0000000000000000 __tmp_reg__
     /tmp/ccr1wW7N.s:8      *ABS*:0000000000000001 __zero_reg__
     /tmp/ccr1wW7N.s:13     .text:0000000000000000 spiTxRx
     /tmp/ccr1wW7N.s:38     .text:0000000000000012 setSS
     /tmp/ccr1wW7N.s:86     .text:000000000000003a readExtMem
     /tmp/ccr1wW7N.s:254    .text:00000000000000ea writeExtMem
     /tmp/ccr1wW7N.s:416    .text:0000000000000190 initFlash
     /tmp/ccr1wW7N.s:432    .text:0000000000000192 initSRAM
     /tmp/ccr1wW7N.s:532    .text:00000000000001de initExtMem

UNDEFINED SYMBOLS
printf
__do_copy_data
