   1               		.file	"hwSerial.c"
   2               	__SP_H__ = 0x3e
   3               	__SP_L__ = 0x3d
   4               	__SREG__ = 0x3f
   5               	__RAMPZ__ = 0x3b
   6               	__CCP__ = 0x34
   7               	__tmp_reg__ = 0
   8               	__zero_reg__ = 1
   9               		.text
  10               	.Ltext0:
  11               	.global	u_putchar
  13               	u_putchar:
  14               	.LFB6:
  15               		.file 1 "/home/anaz/Desktop/oldbb-ssh/build/src-bobby/hw-block/hwSerial.c"
   1:/home/anaz/Desktop/oldbb-ssh/build/src-bobby/hw-block/hwSerial.c **** #include <avr/io.h>
   2:/home/anaz/Desktop/oldbb-ssh/build/src-bobby/hw-block/hwSerial.c **** #include <avr/interrupt.h>
   3:/home/anaz/Desktop/oldbb-ssh/build/src-bobby/hw-block/hwSerial.c **** #include "../system/circ_buffer.h"
   4:/home/anaz/Desktop/oldbb-ssh/build/src-bobby/hw-block/hwSerial.c **** #include "../hw-api/hwSerial.h"
   5:/home/anaz/Desktop/oldbb-ssh/build/src-bobby/hw-block/hwSerial.c **** #include "../system/serial.h"
   6:/home/anaz/Desktop/oldbb-ssh/build/src-bobby/hw-block/hwSerial.c **** 
   7:/home/anaz/Desktop/oldbb-ssh/build/src-bobby/hw-block/hwSerial.c **** //#include "soft_uart2.h"
   8:/home/anaz/Desktop/oldbb-ssh/build/src-bobby/hw-block/hwSerial.c **** 
   9:/home/anaz/Desktop/oldbb-ssh/build/src-bobby/hw-block/hwSerial.c **** #define HARDWARE_UART 0
  10:/home/anaz/Desktop/oldbb-ssh/build/src-bobby/hw-block/hwSerial.c **** #define SOFTWARE_UART 1
  11:/home/anaz/Desktop/oldbb-ssh/build/src-bobby/hw-block/hwSerial.c **** 
  12:/home/anaz/Desktop/oldbb-ssh/build/src-bobby/hw-block/hwSerial.c **** typedef union
  13:/home/anaz/Desktop/oldbb-ssh/build/src-bobby/hw-block/hwSerial.c **** {
  14:/home/anaz/Desktop/oldbb-ssh/build/src-bobby/hw-block/hwSerial.c **** 	USART_t* huart;
  15:/home/anaz/Desktop/oldbb-ssh/build/src-bobby/hw-block/hwSerial.c **** 	//soft_uart_t* suart;
  16:/home/anaz/Desktop/oldbb-ssh/build/src-bobby/hw-block/hwSerial.c **** } Uart;
  17:/home/anaz/Desktop/oldbb-ssh/build/src-bobby/hw-block/hwSerial.c **** 
  18:/home/anaz/Desktop/oldbb-ssh/build/src-bobby/hw-block/hwSerial.c **** typedef struct _uart
  19:/home/anaz/Desktop/oldbb-ssh/build/src-bobby/hw-block/hwSerial.c **** {
  20:/home/anaz/Desktop/oldbb-ssh/build/src-bobby/hw-block/hwSerial.c **** 	Uart uart;
  21:/home/anaz/Desktop/oldbb-ssh/build/src-bobby/hw-block/hwSerial.c **** 	byte ptype;
  22:/home/anaz/Desktop/oldbb-ssh/build/src-bobby/hw-block/hwSerial.c **** } HWPort;
  23:/home/anaz/Desktop/oldbb-ssh/build/src-bobby/hw-block/hwSerial.c **** 
  24:/home/anaz/Desktop/oldbb-ssh/build/src-bobby/hw-block/hwSerial.c **** HWPort hwPort[NUM_PORTS];
  25:/home/anaz/Desktop/oldbb-ssh/build/src-bobby/hw-block/hwSerial.c **** extern Port port[NUM_PORTS];
  26:/home/anaz/Desktop/oldbb-ssh/build/src-bobby/hw-block/hwSerial.c **** 
  27:/home/anaz/Desktop/oldbb-ssh/build/src-bobby/hw-block/hwSerial.c **** void initHWUart(USART_t * uart);
  28:/home/anaz/Desktop/oldbb-ssh/build/src-bobby/hw-block/hwSerial.c **** 
  29:/home/anaz/Desktop/oldbb-ssh/build/src-bobby/hw-block/hwSerial.c **** 
  30:/home/anaz/Desktop/oldbb-ssh/build/src-bobby/hw-block/hwSerial.c **** void u_putchar(char c, USART_t * uart)
  31:/home/anaz/Desktop/oldbb-ssh/build/src-bobby/hw-block/hwSerial.c **** {
  16               		.loc 1 31 0
  17               	/* prologue: function */
  18               	/* frame size = 0 */
  19               	/* stack size = 0 */
  20               	.L__stack_usage = 0
  21               	.LVL0:
  22               	.L2:
  32:/home/anaz/Desktop/oldbb-ssh/build/src-bobby/hw-block/hwSerial.c **** 	while(!(uart->STATUS & USART_DREIF_bm));
  23               		.loc 1 32 0 discriminator 1
  24 0000 FB01      		movw r30,r22
  25 0002 9181      		ldd r25,Z+1
  26 0004 95FF      		sbrs r25,5
  27 0006 00C0      		rjmp .L2
  33:/home/anaz/Desktop/oldbb-ssh/build/src-bobby/hw-block/hwSerial.c ****     //loop_until_bit_is_set(UCSR0A, UDRE0);
  34:/home/anaz/Desktop/oldbb-ssh/build/src-bobby/hw-block/hwSerial.c **** 	// Load buffer with your character
  35:/home/anaz/Desktop/oldbb-ssh/build/src-bobby/hw-block/hwSerial.c ****     uart->DATA = c;
  28               		.loc 1 35 0
  29 0008 8083      		st Z,r24
  30 000a 0895      		ret
  31               	.LFE6:
  33               	.global	u_getchar
  35               	u_getchar:
  36               	.LFB7:
  36:/home/anaz/Desktop/oldbb-ssh/build/src-bobby/hw-block/hwSerial.c **** }
  37:/home/anaz/Desktop/oldbb-ssh/build/src-bobby/hw-block/hwSerial.c **** 
  38:/home/anaz/Desktop/oldbb-ssh/build/src-bobby/hw-block/hwSerial.c **** int	u_getchar(USART_t * uart)
  39:/home/anaz/Desktop/oldbb-ssh/build/src-bobby/hw-block/hwSerial.c **** {
  37               		.loc 1 39 0
  38               	.LVL1:
  39               	/* prologue: function */
  40               	/* frame size = 0 */
  41               	/* stack size = 0 */
  42               	.L__stack_usage = 0
  40:/home/anaz/Desktop/oldbb-ssh/build/src-bobby/hw-block/hwSerial.c **** 	//char c;
  41:/home/anaz/Desktop/oldbb-ssh/build/src-bobby/hw-block/hwSerial.c **** 	// Wait for the receive buffer to be filled
  42:/home/anaz/Desktop/oldbb-ssh/build/src-bobby/hw-block/hwSerial.c ****     //loop_until_bit_is_set(UCSR0A, RXC0);
  43:/home/anaz/Desktop/oldbb-ssh/build/src-bobby/hw-block/hwSerial.c **** 	if((uart->STATUS & USART_RXCIF_bm))
  43               		.loc 1 43 0
  44 000c FC01      		movw r30,r24
  45 000e 2181      		ldd r18,Z+1
  46 0010 27FF      		sbrs r18,7
  47 0012 00C0      		rjmp .L9
  44:/home/anaz/Desktop/oldbb-ssh/build/src-bobby/hw-block/hwSerial.c **** 	{
  45:/home/anaz/Desktop/oldbb-ssh/build/src-bobby/hw-block/hwSerial.c **** 		// Read the receive buffer
  46:/home/anaz/Desktop/oldbb-ssh/build/src-bobby/hw-block/hwSerial.c **** 		//c = uart->DATA;
  47:/home/anaz/Desktop/oldbb-ssh/build/src-bobby/hw-block/hwSerial.c **** 		return uart->DATA;
  48               		.loc 1 47 0
  49 0014 2081      		ld r18,Z
  50 0016 30E0      		ldi r19,0
  51 0018 00C0      		rjmp .L8
  52               	.L9:
  48:/home/anaz/Desktop/oldbb-ssh/build/src-bobby/hw-block/hwSerial.c **** 	}
  49:/home/anaz/Desktop/oldbb-ssh/build/src-bobby/hw-block/hwSerial.c **** 	else
  50:/home/anaz/Desktop/oldbb-ssh/build/src-bobby/hw-block/hwSerial.c **** 	{
  51:/home/anaz/Desktop/oldbb-ssh/build/src-bobby/hw-block/hwSerial.c **** 		return -1;
  53               		.loc 1 51 0
  54 001a 2FEF      		ldi r18,lo8(-1)
  55 001c 3FEF      		ldi r19,lo8(-1)
  56               	.L8:
  52:/home/anaz/Desktop/oldbb-ssh/build/src-bobby/hw-block/hwSerial.c **** 	}
  53:/home/anaz/Desktop/oldbb-ssh/build/src-bobby/hw-block/hwSerial.c **** }
  57               		.loc 1 53 0
  58 001e C901      		movw r24,r18
  59               	.LVL2:
  60 0020 0895      		ret
  61               	.LFE7:
  63               	.global	pPutChar
  65               	pPutChar:
  66               	.LFB8:
  54:/home/anaz/Desktop/oldbb-ssh/build/src-bobby/hw-block/hwSerial.c **** 
  55:/home/anaz/Desktop/oldbb-ssh/build/src-bobby/hw-block/hwSerial.c **** void pPutChar(char c, PRef p)
  56:/home/anaz/Desktop/oldbb-ssh/build/src-bobby/hw-block/hwSerial.c **** {
  67               		.loc 1 56 0
  68               	.LVL3:
  69               	/* prologue: function */
  70               	/* frame size = 0 */
  71               	/* stack size = 0 */
  72               	.L__stack_usage = 0
  57:/home/anaz/Desktop/oldbb-ssh/build/src-bobby/hw-block/hwSerial.c **** 	if(p >= 0 && p < NUM_PORTS)
  73               		.loc 1 57 0
  74 0022 6630      		cpi r22,lo8(6)
  75 0024 00F4      		brsh .L10
  58:/home/anaz/Desktop/oldbb-ssh/build/src-bobby/hw-block/hwSerial.c **** 	{
  59:/home/anaz/Desktop/oldbb-ssh/build/src-bobby/hw-block/hwSerial.c **** 		if(hwPort[p].ptype == HARDWARE_UART)
  76               		.loc 1 59 0
  77 0026 70E0      		ldi r23,0
  78 0028 FB01      		movw r30,r22
  79 002a EE0F      		lsl r30
  80 002c FF1F      		rol r31
  81 002e E60F      		add r30,r22
  82 0030 F71F      		adc r31,r23
  83 0032 E050      		subi r30,lo8(-(hwPort))
  84 0034 F040      		sbci r31,hi8(-(hwPort))
  85 0036 9281      		ldd r25,Z+2
  86 0038 9111      		cpse r25,__zero_reg__
  87 003a 00C0      		rjmp .L10
  60:/home/anaz/Desktop/oldbb-ssh/build/src-bobby/hw-block/hwSerial.c **** 		{
  61:/home/anaz/Desktop/oldbb-ssh/build/src-bobby/hw-block/hwSerial.c **** 			u_putchar(c, hwPort[p].uart.huart);
  88               		.loc 1 61 0
  89 003c 6081      		ld r22,Z
  90 003e 7181      		ldd r23,Z+1
  91               	.LVL4:
  92 0040 0C94 0000 		jmp u_putchar
  93               	.LVL5:
  94               	.L10:
  95 0044 0895      		ret
  96               	.LFE8:
  98               	.global	pGetChar
 100               	pGetChar:
 101               	.LFB9:
  62:/home/anaz/Desktop/oldbb-ssh/build/src-bobby/hw-block/hwSerial.c **** 		}
  63:/home/anaz/Desktop/oldbb-ssh/build/src-bobby/hw-block/hwSerial.c **** 		else
  64:/home/anaz/Desktop/oldbb-ssh/build/src-bobby/hw-block/hwSerial.c **** 		{
  65:/home/anaz/Desktop/oldbb-ssh/build/src-bobby/hw-block/hwSerial.c **** 			//su_putchar(c, hwPort[p].uart.suart);
  66:/home/anaz/Desktop/oldbb-ssh/build/src-bobby/hw-block/hwSerial.c **** 		}
  67:/home/anaz/Desktop/oldbb-ssh/build/src-bobby/hw-block/hwSerial.c **** 	}
  68:/home/anaz/Desktop/oldbb-ssh/build/src-bobby/hw-block/hwSerial.c **** }
  69:/home/anaz/Desktop/oldbb-ssh/build/src-bobby/hw-block/hwSerial.c **** 
  70:/home/anaz/Desktop/oldbb-ssh/build/src-bobby/hw-block/hwSerial.c **** int pGetChar(PRef p)
  71:/home/anaz/Desktop/oldbb-ssh/build/src-bobby/hw-block/hwSerial.c **** {
 102               		.loc 1 71 0
 103               	.LVL6:
 104               	/* prologue: function */
 105               	/* frame size = 0 */
 106               	/* stack size = 0 */
 107               	.L__stack_usage = 0
  72:/home/anaz/Desktop/oldbb-ssh/build/src-bobby/hw-block/hwSerial.c **** 	if(p >= 0 && p < NUM_PORTS)
 108               		.loc 1 72 0
 109 0046 8630      		cpi r24,lo8(6)
 110 0048 00F4      		brsh .L16
  73:/home/anaz/Desktop/oldbb-ssh/build/src-bobby/hw-block/hwSerial.c **** 	{
  74:/home/anaz/Desktop/oldbb-ssh/build/src-bobby/hw-block/hwSerial.c **** 		if(hwPort[p].ptype == HARDWARE_UART)
 111               		.loc 1 74 0
 112 004a 90E0      		ldi r25,0
 113 004c FC01      		movw r30,r24
 114 004e EE0F      		lsl r30
 115 0050 FF1F      		rol r31
 116 0052 E80F      		add r30,r24
 117 0054 F91F      		adc r31,r25
 118 0056 E050      		subi r30,lo8(-(hwPort))
 119 0058 F040      		sbci r31,hi8(-(hwPort))
 120 005a 8281      		ldd r24,Z+2
 121               	.LVL7:
 122 005c 8111      		cpse r24,__zero_reg__
 123 005e 00C0      		rjmp .L16
  75:/home/anaz/Desktop/oldbb-ssh/build/src-bobby/hw-block/hwSerial.c **** 		{
  76:/home/anaz/Desktop/oldbb-ssh/build/src-bobby/hw-block/hwSerial.c **** 			return u_getchar(hwPort[p].uart.huart);
 124               		.loc 1 76 0
 125 0060 0190      		ld __tmp_reg__,Z+
 126 0062 F081      		ld r31,Z
 127 0064 E02D      		mov r30,__tmp_reg__
 128               	.LVL8:
 129               	.LBB4:
 130               	.LBB5:
  43:/home/anaz/Desktop/oldbb-ssh/build/src-bobby/hw-block/hwSerial.c **** 	if((uart->STATUS & USART_RXCIF_bm))
 131               		.loc 1 43 0
 132 0066 8181      		ldd r24,Z+1
 133 0068 87FF      		sbrs r24,7
 134 006a 00C0      		rjmp .L16
  47:/home/anaz/Desktop/oldbb-ssh/build/src-bobby/hw-block/hwSerial.c **** 		return uart->DATA;
 135               		.loc 1 47 0
 136 006c 2081      		ld r18,Z
 137 006e 30E0      		ldi r19,0
 138 0070 00C0      		rjmp .L13
 139               	.LVL9:
 140               	.L16:
  77:/home/anaz/Desktop/oldbb-ssh/build/src-bobby/hw-block/hwSerial.c **** 		}
  78:/home/anaz/Desktop/oldbb-ssh/build/src-bobby/hw-block/hwSerial.c **** 		else
  79:/home/anaz/Desktop/oldbb-ssh/build/src-bobby/hw-block/hwSerial.c **** 		{
  80:/home/anaz/Desktop/oldbb-ssh/build/src-bobby/hw-block/hwSerial.c **** 			//return su_getchar(hwPort[p].uart.suart);
  81:/home/anaz/Desktop/oldbb-ssh/build/src-bobby/hw-block/hwSerial.c **** 		}
  82:/home/anaz/Desktop/oldbb-ssh/build/src-bobby/hw-block/hwSerial.c **** 	}
  83:/home/anaz/Desktop/oldbb-ssh/build/src-bobby/hw-block/hwSerial.c **** 
  84:/home/anaz/Desktop/oldbb-ssh/build/src-bobby/hw-block/hwSerial.c **** 	return -1;
 141               		.loc 1 84 0
 142 0072 2FEF      		ldi r18,lo8(-1)
 143 0074 3FEF      		ldi r19,lo8(-1)
 144               	.L13:
 145               	.LBE5:
 146               	.LBE4:
  85:/home/anaz/Desktop/oldbb-ssh/build/src-bobby/hw-block/hwSerial.c **** }
 147               		.loc 1 85 0
 148 0076 C901      		movw r24,r18
 149 0078 0895      		ret
 150               	.LFE9:
 152               	.global	initHWUart
 154               	initHWUart:
 155               	.LFB12:
  86:/home/anaz/Desktop/oldbb-ssh/build/src-bobby/hw-block/hwSerial.c **** 
  87:/home/anaz/Desktop/oldbb-ssh/build/src-bobby/hw-block/hwSerial.c **** void initializeHWPort(HWPort *p, USART_t *huart)
  88:/home/anaz/Desktop/oldbb-ssh/build/src-bobby/hw-block/hwSerial.c **** {
  89:/home/anaz/Desktop/oldbb-ssh/build/src-bobby/hw-block/hwSerial.c **** 	if(huart != NULL)
  90:/home/anaz/Desktop/oldbb-ssh/build/src-bobby/hw-block/hwSerial.c **** 	{
  91:/home/anaz/Desktop/oldbb-ssh/build/src-bobby/hw-block/hwSerial.c **** 		(p->uart).huart = huart;
  92:/home/anaz/Desktop/oldbb-ssh/build/src-bobby/hw-block/hwSerial.c **** 		p->ptype = HARDWARE_UART;
  93:/home/anaz/Desktop/oldbb-ssh/build/src-bobby/hw-block/hwSerial.c **** 
  94:/home/anaz/Desktop/oldbb-ssh/build/src-bobby/hw-block/hwSerial.c **** 		initHWUart(huart);
  95:/home/anaz/Desktop/oldbb-ssh/build/src-bobby/hw-block/hwSerial.c **** 	}
  96:/home/anaz/Desktop/oldbb-ssh/build/src-bobby/hw-block/hwSerial.c **** }
  97:/home/anaz/Desktop/oldbb-ssh/build/src-bobby/hw-block/hwSerial.c **** 
  98:/home/anaz/Desktop/oldbb-ssh/build/src-bobby/hw-block/hwSerial.c **** void initHWPorts()
  99:/home/anaz/Desktop/oldbb-ssh/build/src-bobby/hw-block/hwSerial.c **** {
 100:/home/anaz/Desktop/oldbb-ssh/build/src-bobby/hw-block/hwSerial.c **** 	// male headers
 101:/home/anaz/Desktop/oldbb-ssh/build/src-bobby/hw-block/hwSerial.c **** 	PORTD.DIRSET = PIN7_bm;
 102:/home/anaz/Desktop/oldbb-ssh/build/src-bobby/hw-block/hwSerial.c **** 	initializeHWPort(&(hwPort[UP]), &USARTD1);
 103:/home/anaz/Desktop/oldbb-ssh/build/src-bobby/hw-block/hwSerial.c **** 
 104:/home/anaz/Desktop/oldbb-ssh/build/src-bobby/hw-block/hwSerial.c **** 	// near the double TVS diodes
 105:/home/anaz/Desktop/oldbb-ssh/build/src-bobby/hw-block/hwSerial.c **** 	PORTC.DIRSET = PIN7_bm;
 106:/home/anaz/Desktop/oldbb-ssh/build/src-bobby/hw-block/hwSerial.c **** 	initializeHWPort(&(hwPort[NORTH]), &USARTC1);
 107:/home/anaz/Desktop/oldbb-ssh/build/src-bobby/hw-block/hwSerial.c **** 	
 108:/home/anaz/Desktop/oldbb-ssh/build/src-bobby/hw-block/hwSerial.c **** 	// closest to audio amp
 109:/home/anaz/Desktop/oldbb-ssh/build/src-bobby/hw-block/hwSerial.c **** 	PORTE.DIRSET = PIN3_bm;
 110:/home/anaz/Desktop/oldbb-ssh/build/src-bobby/hw-block/hwSerial.c **** 	initializeHWPort(&(hwPort[SOUTH]), &USARTE0);
 111:/home/anaz/Desktop/oldbb-ssh/build/src-bobby/hw-block/hwSerial.c **** 	
 112:/home/anaz/Desktop/oldbb-ssh/build/src-bobby/hw-block/hwSerial.c **** 	// closest to LEDs
 113:/home/anaz/Desktop/oldbb-ssh/build/src-bobby/hw-block/hwSerial.c **** 	PORTF.DIRSET = PIN3_bm;	
 114:/home/anaz/Desktop/oldbb-ssh/build/src-bobby/hw-block/hwSerial.c **** 	initializeHWPort(&(hwPort[EAST]), &USARTF0);
 115:/home/anaz/Desktop/oldbb-ssh/build/src-bobby/hw-block/hwSerial.c **** 	
 116:/home/anaz/Desktop/oldbb-ssh/build/src-bobby/hw-block/hwSerial.c **** 	// closest to analog input dividers
 117:/home/anaz/Desktop/oldbb-ssh/build/src-bobby/hw-block/hwSerial.c **** 	PORTC.DIRSET = PIN3_bm;	
 118:/home/anaz/Desktop/oldbb-ssh/build/src-bobby/hw-block/hwSerial.c **** 	initializeHWPort(&(hwPort[WEST]), &USARTC0);
 119:/home/anaz/Desktop/oldbb-ssh/build/src-bobby/hw-block/hwSerial.c **** 	
 120:/home/anaz/Desktop/oldbb-ssh/build/src-bobby/hw-block/hwSerial.c **** 	PORTD.DIRSET = PIN3_bm;	
 121:/home/anaz/Desktop/oldbb-ssh/build/src-bobby/hw-block/hwSerial.c **** 	initializeHWPort(&(hwPort[DOWN]), &USARTD0);
 122:/home/anaz/Desktop/oldbb-ssh/build/src-bobby/hw-block/hwSerial.c **** }
 123:/home/anaz/Desktop/oldbb-ssh/build/src-bobby/hw-block/hwSerial.c **** 
 124:/home/anaz/Desktop/oldbb-ssh/build/src-bobby/hw-block/hwSerial.c **** void initHWUart(USART_t * huart)
 125:/home/anaz/Desktop/oldbb-ssh/build/src-bobby/hw-block/hwSerial.c **** {
 156               		.loc 1 125 0
 157               	.LVL10:
 158               	/* prologue: function */
 159               	/* frame size = 0 */
 160               	/* stack size = 0 */
 161               	.L__stack_usage = 0
 162 007a FC01      		movw r30,r24
 126:/home/anaz/Desktop/oldbb-ssh/build/src-bobby/hw-block/hwSerial.c **** 	huart->CTRLB = USART_RXEN_bm | USART_TXEN_bm;		// turn on RX/TX, somewhat helpful!
 163               		.loc 1 126 0
 164 007c 88E1      		ldi r24,lo8(24)
 165               	.LVL11:
 166 007e 8483      		std Z+4,r24
 127:/home/anaz/Desktop/oldbb-ssh/build/src-bobby/hw-block/hwSerial.c **** 	huart->CTRLC = USART_CHSIZE_8BIT_gc;				// use 8-bit data
 167               		.loc 1 127 0
 168 0080 83E0      		ldi r24,lo8(3)
 169 0082 8583      		std Z+5,r24
 128:/home/anaz/Desktop/oldbb-ssh/build/src-bobby/hw-block/hwSerial.c **** 
 129:/home/anaz/Desktop/oldbb-ssh/build/src-bobby/hw-block/hwSerial.c **** 	huart->CTRLA = USART_RXCINTLVL_HI_gc | USART_TXCINTLVL_HI_gc;	// enable RX/TX interrupt support
 170               		.loc 1 129 0
 171 0084 8CE3      		ldi r24,lo8(60)
 172 0086 8383      		std Z+3,r24
 130:/home/anaz/Desktop/oldbb-ssh/build/src-bobby/hw-block/hwSerial.c **** 	huart->BAUDCTRLA = 51;  // 38400 		// 57600   			//103;	//19200 	16; // 115200
 173               		.loc 1 130 0
 174 0088 83E3      		ldi r24,lo8(51)
 175 008a 8683      		std Z+6,r24
 131:/home/anaz/Desktop/oldbb-ssh/build/src-bobby/hw-block/hwSerial.c **** 	huart->BAUDCTRLB = 0;				//0xB4;  // 57600, set to 0 for others
 176               		.loc 1 131 0
 177 008c 1782      		std Z+7,__zero_reg__
 178 008e 0895      		ret
 179               	.LFE12:
 181               	.global	initializeHWPort
 183               	initializeHWPort:
 184               	.LFB10:
  88:/home/anaz/Desktop/oldbb-ssh/build/src-bobby/hw-block/hwSerial.c **** {
 185               		.loc 1 88 0
 186               	.LVL12:
 187               	/* prologue: function */
 188               	/* frame size = 0 */
 189               	/* stack size = 0 */
 190               	.L__stack_usage = 0
  89:/home/anaz/Desktop/oldbb-ssh/build/src-bobby/hw-block/hwSerial.c **** 	if(huart != NULL)
 191               		.loc 1 89 0
 192 0090 6115      		cp r22,__zero_reg__
 193 0092 7105      		cpc r23,__zero_reg__
 194 0094 01F0      		breq .L18
  91:/home/anaz/Desktop/oldbb-ssh/build/src-bobby/hw-block/hwSerial.c **** 		(p->uart).huart = huart;
 195               		.loc 1 91 0
 196 0096 FC01      		movw r30,r24
 197 0098 6083      		st Z,r22
 198 009a 7183      		std Z+1,r23
  92:/home/anaz/Desktop/oldbb-ssh/build/src-bobby/hw-block/hwSerial.c **** 		p->ptype = HARDWARE_UART;
 199               		.loc 1 92 0
 200 009c 1282      		std Z+2,__zero_reg__
  94:/home/anaz/Desktop/oldbb-ssh/build/src-bobby/hw-block/hwSerial.c **** 		initHWUart(huart);
 201               		.loc 1 94 0
 202 009e CB01      		movw r24,r22
 203               	.LVL13:
 204 00a0 0C94 0000 		jmp initHWUart
 205               	.LVL14:
 206               	.L18:
 207 00a4 0895      		ret
 208               	.LFE10:
 210               	.global	initHWPorts
 212               	initHWPorts:
 213               	.LFB11:
  99:/home/anaz/Desktop/oldbb-ssh/build/src-bobby/hw-block/hwSerial.c **** {
 214               		.loc 1 99 0
 215 00a6 FF92      		push r15
 216               	.LCFI0:
 217 00a8 0F93      		push r16
 218               	.LCFI1:
 219 00aa 1F93      		push r17
 220               	.LCFI2:
 221 00ac CF93      		push r28
 222               	.LCFI3:
 223 00ae DF93      		push r29
 224               	.LCFI4:
 225               	/* prologue: function */
 226               	/* frame size = 0 */
 227               	/* stack size = 5 */
 228               	.L__stack_usage = 5
 101:/home/anaz/Desktop/oldbb-ssh/build/src-bobby/hw-block/hwSerial.c **** 	PORTD.DIRSET = PIN7_bm;
 229               		.loc 1 101 0
 230 00b0 C0E6      		ldi r28,lo8(96)
 231 00b2 D6E0      		ldi r29,lo8(6)
 232 00b4 30E8      		ldi r19,lo8(-128)
 233 00b6 F32E      		mov r15,r19
 234 00b8 F982      		std Y+1,r15
 235               	.LVL15:
 236               	.LBB18:
 237               	.LBB19:
  91:/home/anaz/Desktop/oldbb-ssh/build/src-bobby/hw-block/hwSerial.c **** 		(p->uart).huart = huart;
 238               		.loc 1 91 0
 239 00ba 80EB      		ldi r24,lo8(-80)
 240 00bc 99E0      		ldi r25,lo8(9)
 241 00be 8093 0000 		sts hwPort+15,r24
 242 00c2 9093 0000 		sts hwPort+15+1,r25
  92:/home/anaz/Desktop/oldbb-ssh/build/src-bobby/hw-block/hwSerial.c **** 		p->ptype = HARDWARE_UART;
 243               		.loc 1 92 0
 244 00c6 1092 0000 		sts hwPort+17,__zero_reg__
  94:/home/anaz/Desktop/oldbb-ssh/build/src-bobby/hw-block/hwSerial.c **** 		initHWUart(huart);
 245               		.loc 1 94 0
 246 00ca 0E94 0000 		call initHWUart
 247               	.LVL16:
 248               	.LBE19:
 249               	.LBE18:
 105:/home/anaz/Desktop/oldbb-ssh/build/src-bobby/hw-block/hwSerial.c **** 	PORTC.DIRSET = PIN7_bm;
 250               		.loc 1 105 0
 251 00ce 00E4      		ldi r16,lo8(64)
 252 00d0 16E0      		ldi r17,lo8(6)
 253 00d2 F801      		movw r30,r16
 254 00d4 F182      		std Z+1,r15
 255               	.LVL17:
 256               	.LBB20:
 257               	.LBB21:
  91:/home/anaz/Desktop/oldbb-ssh/build/src-bobby/hw-block/hwSerial.c **** 		(p->uart).huart = huart;
 258               		.loc 1 91 0
 259 00d6 80EB      		ldi r24,lo8(-80)
 260 00d8 98E0      		ldi r25,lo8(8)
 261 00da 8093 0000 		sts hwPort+3,r24
 262 00de 9093 0000 		sts hwPort+3+1,r25
  92:/home/anaz/Desktop/oldbb-ssh/build/src-bobby/hw-block/hwSerial.c **** 		p->ptype = HARDWARE_UART;
 263               		.loc 1 92 0
 264 00e2 1092 0000 		sts hwPort+5,__zero_reg__
  94:/home/anaz/Desktop/oldbb-ssh/build/src-bobby/hw-block/hwSerial.c **** 		initHWUart(huart);
 265               		.loc 1 94 0
 266 00e6 0E94 0000 		call initHWUart
 267               	.LVL18:
 268               	.LBE21:
 269               	.LBE20:
 109:/home/anaz/Desktop/oldbb-ssh/build/src-bobby/hw-block/hwSerial.c **** 	PORTE.DIRSET = PIN3_bm;
 270               		.loc 1 109 0
 271 00ea 48E0      		ldi r20,lo8(8)
 272 00ec F42E      		mov r15,r20
 273 00ee E0E8      		ldi r30,lo8(-128)
 274 00f0 F6E0      		ldi r31,lo8(6)
 275 00f2 F182      		std Z+1,r15
 276               	.LVL19:
 277               	.LBB22:
 278               	.LBB23:
  91:/home/anaz/Desktop/oldbb-ssh/build/src-bobby/hw-block/hwSerial.c **** 		(p->uart).huart = huart;
 279               		.loc 1 91 0
 280 00f4 80EA      		ldi r24,lo8(-96)
 281 00f6 9AE0      		ldi r25,lo8(10)
 282 00f8 8093 0000 		sts hwPort+12,r24
 283 00fc 9093 0000 		sts hwPort+12+1,r25
  92:/home/anaz/Desktop/oldbb-ssh/build/src-bobby/hw-block/hwSerial.c **** 		p->ptype = HARDWARE_UART;
 284               		.loc 1 92 0
 285 0100 1092 0000 		sts hwPort+14,__zero_reg__
  94:/home/anaz/Desktop/oldbb-ssh/build/src-bobby/hw-block/hwSerial.c **** 		initHWUart(huart);
 286               		.loc 1 94 0
 287 0104 0E94 0000 		call initHWUart
 288               	.LVL20:
 289               	.LBE23:
 290               	.LBE22:
 113:/home/anaz/Desktop/oldbb-ssh/build/src-bobby/hw-block/hwSerial.c **** 	PORTF.DIRSET = PIN3_bm;	
 291               		.loc 1 113 0
 292 0108 E0EA      		ldi r30,lo8(-96)
 293 010a F6E0      		ldi r31,lo8(6)
 294 010c F182      		std Z+1,r15
 295               	.LVL21:
 296               	.LBB24:
 297               	.LBB25:
  91:/home/anaz/Desktop/oldbb-ssh/build/src-bobby/hw-block/hwSerial.c **** 		(p->uart).huart = huart;
 298               		.loc 1 91 0
 299 010e 80EA      		ldi r24,lo8(-96)
 300 0110 9BE0      		ldi r25,lo8(11)
 301 0112 8093 0000 		sts hwPort+6,r24
 302 0116 9093 0000 		sts hwPort+6+1,r25
  92:/home/anaz/Desktop/oldbb-ssh/build/src-bobby/hw-block/hwSerial.c **** 		p->ptype = HARDWARE_UART;
 303               		.loc 1 92 0
 304 011a 1092 0000 		sts hwPort+8,__zero_reg__
  94:/home/anaz/Desktop/oldbb-ssh/build/src-bobby/hw-block/hwSerial.c **** 		initHWUart(huart);
 305               		.loc 1 94 0
 306 011e 0E94 0000 		call initHWUart
 307               	.LVL22:
 308               	.LBE25:
 309               	.LBE24:
 117:/home/anaz/Desktop/oldbb-ssh/build/src-bobby/hw-block/hwSerial.c **** 	PORTC.DIRSET = PIN3_bm;	
 310               		.loc 1 117 0
 311 0122 F801      		movw r30,r16
 312 0124 F182      		std Z+1,r15
 313               	.LVL23:
 314               	.LBB26:
 315               	.LBB27:
  91:/home/anaz/Desktop/oldbb-ssh/build/src-bobby/hw-block/hwSerial.c **** 		(p->uart).huart = huart;
 316               		.loc 1 91 0
 317 0126 80EA      		ldi r24,lo8(-96)
 318 0128 98E0      		ldi r25,lo8(8)
 319 012a 8093 0000 		sts hwPort+9,r24
 320 012e 9093 0000 		sts hwPort+9+1,r25
  92:/home/anaz/Desktop/oldbb-ssh/build/src-bobby/hw-block/hwSerial.c **** 		p->ptype = HARDWARE_UART;
 321               		.loc 1 92 0
 322 0132 1092 0000 		sts hwPort+11,__zero_reg__
  94:/home/anaz/Desktop/oldbb-ssh/build/src-bobby/hw-block/hwSerial.c **** 		initHWUart(huart);
 323               		.loc 1 94 0
 324 0136 0E94 0000 		call initHWUart
 325               	.LVL24:
 326               	.LBE27:
 327               	.LBE26:
 120:/home/anaz/Desktop/oldbb-ssh/build/src-bobby/hw-block/hwSerial.c **** 	PORTD.DIRSET = PIN3_bm;	
 328               		.loc 1 120 0
 329 013a F982      		std Y+1,r15
 330               	.LVL25:
 331               	.LBB28:
 332               	.LBB29:
  91:/home/anaz/Desktop/oldbb-ssh/build/src-bobby/hw-block/hwSerial.c **** 		(p->uart).huart = huart;
 333               		.loc 1 91 0
 334 013c 80EA      		ldi r24,lo8(-96)
 335 013e 99E0      		ldi r25,lo8(9)
 336 0140 8093 0000 		sts hwPort,r24
 337 0144 9093 0000 		sts hwPort+1,r25
  92:/home/anaz/Desktop/oldbb-ssh/build/src-bobby/hw-block/hwSerial.c **** 		p->ptype = HARDWARE_UART;
 338               		.loc 1 92 0
 339 0148 1092 0000 		sts hwPort+2,__zero_reg__
 340               	/* epilogue start */
 341               	.LBE29:
 342               	.LBE28:
 122:/home/anaz/Desktop/oldbb-ssh/build/src-bobby/hw-block/hwSerial.c **** }
 343               		.loc 1 122 0
 344 014c DF91      		pop r29
 345 014e CF91      		pop r28
 346 0150 1F91      		pop r17
 347 0152 0F91      		pop r16
 348 0154 FF90      		pop r15
 349               	.LBB31:
 350               	.LBB30:
  94:/home/anaz/Desktop/oldbb-ssh/build/src-bobby/hw-block/hwSerial.c **** 		initHWUart(huart);
 351               		.loc 1 94 0
 352 0156 0C94 0000 		jmp initHWUart
 353               	.LVL26:
 354               	.LBE30:
 355               	.LBE31:
 356               	.LFE11:
 358               	.global	__vector_91
 360               	__vector_91:
 361               	.LFB13:
 132:/home/anaz/Desktop/oldbb-ssh/build/src-bobby/hw-block/hwSerial.c **** }
 133:/home/anaz/Desktop/oldbb-ssh/build/src-bobby/hw-block/hwSerial.c **** 
 134:/home/anaz/Desktop/oldbb-ssh/build/src-bobby/hw-block/hwSerial.c **** 
 135:/home/anaz/Desktop/oldbb-ssh/build/src-bobby/hw-block/hwSerial.c **** ISR(USARTD1_RXC_vect)
 136:/home/anaz/Desktop/oldbb-ssh/build/src-bobby/hw-block/hwSerial.c **** {
 362               		.loc 1 136 0
 363 015a 1F92      		push r1
 364               	.LCFI5:
 365 015c 0F92      		push r0
 366               	.LCFI6:
 367 015e 0FB6      		in r0,__SREG__
 368 0160 0F92      		push r0
 369 0162 1124      		clr __zero_reg__
 370 0164 0BB6      		in r0,__RAMPZ__
 371 0166 0F92      		push r0
 372 0168 2F93      		push r18
 373               	.LCFI7:
 374 016a 3F93      		push r19
 375               	.LCFI8:
 376 016c 4F93      		push r20
 377               	.LCFI9:
 378 016e 5F93      		push r21
 379               	.LCFI10:
 380 0170 6F93      		push r22
 381               	.LCFI11:
 382 0172 7F93      		push r23
 383               	.LCFI12:
 384 0174 8F93      		push r24
 385               	.LCFI13:
 386 0176 9F93      		push r25
 387               	.LCFI14:
 388 0178 AF93      		push r26
 389               	.LCFI15:
 390 017a BF93      		push r27
 391               	.LCFI16:
 392 017c EF93      		push r30
 393               	.LCFI17:
 394 017e FF93      		push r31
 395               	.LCFI18:
 396               	/* prologue: Signal */
 397               	/* frame size = 0 */
 398               	/* stack size = 16 */
 399               	.L__stack_usage = 16
 137:/home/anaz/Desktop/oldbb-ssh/build/src-bobby/hw-block/hwSerial.c **** 	uint8_t c;
 138:/home/anaz/Desktop/oldbb-ssh/build/src-bobby/hw-block/hwSerial.c **** 	
 139:/home/anaz/Desktop/oldbb-ssh/build/src-bobby/hw-block/hwSerial.c **** 	c = USARTD1.DATA;
 400               		.loc 1 139 0
 401 0180 8091 B009 		lds r24,2480
 402               	.LVL27:
 140:/home/anaz/Desktop/oldbb-ssh/build/src-bobby/hw-block/hwSerial.c **** 	//printf("R:%x",c);	
 141:/home/anaz/Desktop/oldbb-ssh/build/src-bobby/hw-block/hwSerial.c **** 	push(c, &(port[UP].rx));
 403               		.loc 1 141 0
 404 0184 60E0      		ldi r22,lo8(port+464)
 405 0186 70E0      		ldi r23,hi8(port+464)
 406 0188 0E94 0000 		call push
 407               	.LVL28:
 408               	/* epilogue start */
 142:/home/anaz/Desktop/oldbb-ssh/build/src-bobby/hw-block/hwSerial.c **** }
 409               		.loc 1 142 0
 410 018c FF91      		pop r31
 411 018e EF91      		pop r30
 412 0190 BF91      		pop r27
 413 0192 AF91      		pop r26
 414 0194 9F91      		pop r25
 415 0196 8F91      		pop r24
 416 0198 7F91      		pop r23
 417 019a 6F91      		pop r22
 418 019c 5F91      		pop r21
 419 019e 4F91      		pop r20
 420 01a0 3F91      		pop r19
 421 01a2 2F91      		pop r18
 422 01a4 0F90      		pop r0
 423 01a6 0BBE      		out __RAMPZ__,r0
 424 01a8 0F90      		pop r0
 425 01aa 0FBE      		out __SREG__,r0
 426 01ac 0F90      		pop r0
 427 01ae 1F90      		pop r1
 428 01b0 1895      		reti
 429               	.LFE13:
 431               	.global	__vector_93
 433               	__vector_93:
 434               	.LFB14:
 143:/home/anaz/Desktop/oldbb-ssh/build/src-bobby/hw-block/hwSerial.c **** 
 144:/home/anaz/Desktop/oldbb-ssh/build/src-bobby/hw-block/hwSerial.c **** ISR(USARTD1_TXC_vect)
 145:/home/anaz/Desktop/oldbb-ssh/build/src-bobby/hw-block/hwSerial.c **** {
 435               		.loc 1 145 0
 436 01b2 1F92      		push r1
 437               	.LCFI19:
 438 01b4 0F92      		push r0
 439               	.LCFI20:
 440 01b6 0FB6      		in r0,__SREG__
 441 01b8 0F92      		push r0
 442 01ba 1124      		clr __zero_reg__
 443 01bc 0BB6      		in r0,__RAMPZ__
 444 01be 0F92      		push r0
 445 01c0 2F93      		push r18
 446               	.LCFI21:
 447 01c2 3F93      		push r19
 448               	.LCFI22:
 449 01c4 4F93      		push r20
 450               	.LCFI23:
 451 01c6 5F93      		push r21
 452               	.LCFI24:
 453 01c8 6F93      		push r22
 454               	.LCFI25:
 455 01ca 7F93      		push r23
 456               	.LCFI26:
 457 01cc 8F93      		push r24
 458               	.LCFI27:
 459 01ce 9F93      		push r25
 460               	.LCFI28:
 461 01d0 AF93      		push r26
 462               	.LCFI29:
 463 01d2 BF93      		push r27
 464               	.LCFI30:
 465 01d4 EF93      		push r30
 466               	.LCFI31:
 467 01d6 FF93      		push r31
 468               	.LCFI32:
 469               	/* prologue: Signal */
 470               	/* frame size = 0 */
 471               	/* stack size = 16 */
 472               	.L__stack_usage = 16
 146:/home/anaz/Desktop/oldbb-ssh/build/src-bobby/hw-block/hwSerial.c **** 	int16_t c;
 147:/home/anaz/Desktop/oldbb-ssh/build/src-bobby/hw-block/hwSerial.c **** 	
 148:/home/anaz/Desktop/oldbb-ssh/build/src-bobby/hw-block/hwSerial.c **** 	c  = pop(&(port[UP].tx));
 473               		.loc 1 148 0
 474 01d8 80E0      		ldi r24,lo8(port+496)
 475 01da 90E0      		ldi r25,hi8(port+496)
 476 01dc 0E94 0000 		call pop
 477               	.LVL29:
 149:/home/anaz/Desktop/oldbb-ssh/build/src-bobby/hw-block/hwSerial.c **** 	
 150:/home/anaz/Desktop/oldbb-ssh/build/src-bobby/hw-block/hwSerial.c **** 	if(c != -1)
 478               		.loc 1 150 0
 479 01e0 8F3F      		cpi r24,-1
 480 01e2 2FEF      		ldi r18,-1
 481 01e4 9207      		cpc r25,r18
 482 01e6 01F0      		breq .L22
 151:/home/anaz/Desktop/oldbb-ssh/build/src-bobby/hw-block/hwSerial.c **** 	{
 152:/home/anaz/Desktop/oldbb-ssh/build/src-bobby/hw-block/hwSerial.c **** 		USARTD1.DATA = c;
 483               		.loc 1 152 0
 484 01e8 8093 B009 		sts 2480,r24
 485               	.L22:
 486               	/* epilogue start */
 153:/home/anaz/Desktop/oldbb-ssh/build/src-bobby/hw-block/hwSerial.c **** 	}
 154:/home/anaz/Desktop/oldbb-ssh/build/src-bobby/hw-block/hwSerial.c **** 	else
 155:/home/anaz/Desktop/oldbb-ssh/build/src-bobby/hw-block/hwSerial.c **** 	{
 156:/home/anaz/Desktop/oldbb-ssh/build/src-bobby/hw-block/hwSerial.c **** 		// should flag that we're waiting for an ACK now
 157:/home/anaz/Desktop/oldbb-ssh/build/src-bobby/hw-block/hwSerial.c **** 	}
 158:/home/anaz/Desktop/oldbb-ssh/build/src-bobby/hw-block/hwSerial.c **** }
 487               		.loc 1 158 0
 488 01ec FF91      		pop r31
 489 01ee EF91      		pop r30
 490 01f0 BF91      		pop r27
 491 01f2 AF91      		pop r26
 492 01f4 9F91      		pop r25
 493 01f6 8F91      		pop r24
 494               	.LVL30:
 495 01f8 7F91      		pop r23
 496 01fa 6F91      		pop r22
 497 01fc 5F91      		pop r21
 498 01fe 4F91      		pop r20
 499 0200 3F91      		pop r19
 500 0202 2F91      		pop r18
 501 0204 0F90      		pop r0
 502 0206 0BBE      		out __RAMPZ__,r0
 503 0208 0F90      		pop r0
 504 020a 0FBE      		out __SREG__,r0
 505 020c 0F90      		pop r0
 506 020e 1F90      		pop r1
 507 0210 1895      		reti
 508               	.LFE14:
 510               	.global	__vector_28
 512               	__vector_28:
 513               	.LFB15:
 159:/home/anaz/Desktop/oldbb-ssh/build/src-bobby/hw-block/hwSerial.c **** 
 160:/home/anaz/Desktop/oldbb-ssh/build/src-bobby/hw-block/hwSerial.c **** ISR(USARTC1_RXC_vect)
 161:/home/anaz/Desktop/oldbb-ssh/build/src-bobby/hw-block/hwSerial.c **** {
 514               		.loc 1 161 0
 515 0212 1F92      		push r1
 516               	.LCFI33:
 517 0214 0F92      		push r0
 518               	.LCFI34:
 519 0216 0FB6      		in r0,__SREG__
 520 0218 0F92      		push r0
 521 021a 1124      		clr __zero_reg__
 522 021c 0BB6      		in r0,__RAMPZ__
 523 021e 0F92      		push r0
 524 0220 2F93      		push r18
 525               	.LCFI35:
 526 0222 3F93      		push r19
 527               	.LCFI36:
 528 0224 4F93      		push r20
 529               	.LCFI37:
 530 0226 5F93      		push r21
 531               	.LCFI38:
 532 0228 6F93      		push r22
 533               	.LCFI39:
 534 022a 7F93      		push r23
 535               	.LCFI40:
 536 022c 8F93      		push r24
 537               	.LCFI41:
 538 022e 9F93      		push r25
 539               	.LCFI42:
 540 0230 AF93      		push r26
 541               	.LCFI43:
 542 0232 BF93      		push r27
 543               	.LCFI44:
 544 0234 EF93      		push r30
 545               	.LCFI45:
 546 0236 FF93      		push r31
 547               	.LCFI46:
 548               	/* prologue: Signal */
 549               	/* frame size = 0 */
 550               	/* stack size = 16 */
 551               	.L__stack_usage = 16
 162:/home/anaz/Desktop/oldbb-ssh/build/src-bobby/hw-block/hwSerial.c **** 	uint8_t c;
 163:/home/anaz/Desktop/oldbb-ssh/build/src-bobby/hw-block/hwSerial.c **** 	
 164:/home/anaz/Desktop/oldbb-ssh/build/src-bobby/hw-block/hwSerial.c **** 	c = USARTC1.DATA;
 552               		.loc 1 164 0
 553 0238 8091 B008 		lds r24,2224
 554               	.LVL31:
 165:/home/anaz/Desktop/oldbb-ssh/build/src-bobby/hw-block/hwSerial.c **** 	//printf("R:%x",c);	
 166:/home/anaz/Desktop/oldbb-ssh/build/src-bobby/hw-block/hwSerial.c **** 	push(c, &(port[NORTH].rx));
 555               		.loc 1 166 0
 556 023c 60E0      		ldi r22,lo8(port+112)
 557 023e 70E0      		ldi r23,hi8(port+112)
 558 0240 0E94 0000 		call push
 559               	.LVL32:
 560               	/* epilogue start */
 167:/home/anaz/Desktop/oldbb-ssh/build/src-bobby/hw-block/hwSerial.c **** }
 561               		.loc 1 167 0
 562 0244 FF91      		pop r31
 563 0246 EF91      		pop r30
 564 0248 BF91      		pop r27
 565 024a AF91      		pop r26
 566 024c 9F91      		pop r25
 567 024e 8F91      		pop r24
 568 0250 7F91      		pop r23
 569 0252 6F91      		pop r22
 570 0254 5F91      		pop r21
 571 0256 4F91      		pop r20
 572 0258 3F91      		pop r19
 573 025a 2F91      		pop r18
 574 025c 0F90      		pop r0
 575 025e 0BBE      		out __RAMPZ__,r0
 576 0260 0F90      		pop r0
 577 0262 0FBE      		out __SREG__,r0
 578 0264 0F90      		pop r0
 579 0266 1F90      		pop r1
 580 0268 1895      		reti
 581               	.LFE15:
 583               	.global	__vector_30
 585               	__vector_30:
 586               	.LFB16:
 168:/home/anaz/Desktop/oldbb-ssh/build/src-bobby/hw-block/hwSerial.c **** ISR(USARTC1_TXC_vect)
 169:/home/anaz/Desktop/oldbb-ssh/build/src-bobby/hw-block/hwSerial.c **** {
 587               		.loc 1 169 0
 588 026a 1F92      		push r1
 589               	.LCFI47:
 590 026c 0F92      		push r0
 591               	.LCFI48:
 592 026e 0FB6      		in r0,__SREG__
 593 0270 0F92      		push r0
 594 0272 1124      		clr __zero_reg__
 595 0274 0BB6      		in r0,__RAMPZ__
 596 0276 0F92      		push r0
 597 0278 2F93      		push r18
 598               	.LCFI49:
 599 027a 3F93      		push r19
 600               	.LCFI50:
 601 027c 4F93      		push r20
 602               	.LCFI51:
 603 027e 5F93      		push r21
 604               	.LCFI52:
 605 0280 6F93      		push r22
 606               	.LCFI53:
 607 0282 7F93      		push r23
 608               	.LCFI54:
 609 0284 8F93      		push r24
 610               	.LCFI55:
 611 0286 9F93      		push r25
 612               	.LCFI56:
 613 0288 AF93      		push r26
 614               	.LCFI57:
 615 028a BF93      		push r27
 616               	.LCFI58:
 617 028c EF93      		push r30
 618               	.LCFI59:
 619 028e FF93      		push r31
 620               	.LCFI60:
 621               	/* prologue: Signal */
 622               	/* frame size = 0 */
 623               	/* stack size = 16 */
 624               	.L__stack_usage = 16
 170:/home/anaz/Desktop/oldbb-ssh/build/src-bobby/hw-block/hwSerial.c **** 	int16_t c;
 171:/home/anaz/Desktop/oldbb-ssh/build/src-bobby/hw-block/hwSerial.c **** 	
 172:/home/anaz/Desktop/oldbb-ssh/build/src-bobby/hw-block/hwSerial.c **** 	c  = pop(&(port[NORTH].tx));
 625               		.loc 1 172 0
 626 0290 80E0      		ldi r24,lo8(port+144)
 627 0292 90E0      		ldi r25,hi8(port+144)
 628 0294 0E94 0000 		call pop
 629               	.LVL33:
 173:/home/anaz/Desktop/oldbb-ssh/build/src-bobby/hw-block/hwSerial.c **** 	
 174:/home/anaz/Desktop/oldbb-ssh/build/src-bobby/hw-block/hwSerial.c **** 	if(c != -1)
 630               		.loc 1 174 0
 631 0298 8F3F      		cpi r24,-1
 632 029a 2FEF      		ldi r18,-1
 633 029c 9207      		cpc r25,r18
 634 029e 01F0      		breq .L28
 175:/home/anaz/Desktop/oldbb-ssh/build/src-bobby/hw-block/hwSerial.c **** 	{
 176:/home/anaz/Desktop/oldbb-ssh/build/src-bobby/hw-block/hwSerial.c **** 		USARTC1.DATA = c;
 635               		.loc 1 176 0
 636 02a0 8093 B008 		sts 2224,r24
 637               	.L28:
 638               	/* epilogue start */
 177:/home/anaz/Desktop/oldbb-ssh/build/src-bobby/hw-block/hwSerial.c **** 	}
 178:/home/anaz/Desktop/oldbb-ssh/build/src-bobby/hw-block/hwSerial.c **** }
 639               		.loc 1 178 0
 640 02a4 FF91      		pop r31
 641 02a6 EF91      		pop r30
 642 02a8 BF91      		pop r27
 643 02aa AF91      		pop r26
 644 02ac 9F91      		pop r25
 645 02ae 8F91      		pop r24
 646               	.LVL34:
 647 02b0 7F91      		pop r23
 648 02b2 6F91      		pop r22
 649 02b4 5F91      		pop r21
 650 02b6 4F91      		pop r20
 651 02b8 3F91      		pop r19
 652 02ba 2F91      		pop r18
 653 02bc 0F90      		pop r0
 654 02be 0BBE      		out __RAMPZ__,r0
 655 02c0 0F90      		pop r0
 656 02c2 0FBE      		out __SREG__,r0
 657 02c4 0F90      		pop r0
 658 02c6 1F90      		pop r1
 659 02c8 1895      		reti
 660               	.LFE16:
 662               	.global	__vector_119
 664               	__vector_119:
 665               	.LFB17:
 179:/home/anaz/Desktop/oldbb-ssh/build/src-bobby/hw-block/hwSerial.c **** 
 180:/home/anaz/Desktop/oldbb-ssh/build/src-bobby/hw-block/hwSerial.c **** ISR(USARTF0_RXC_vect)
 181:/home/anaz/Desktop/oldbb-ssh/build/src-bobby/hw-block/hwSerial.c **** {
 666               		.loc 1 181 0
 667 02ca 1F92      		push r1
 668               	.LCFI61:
 669 02cc 0F92      		push r0
 670               	.LCFI62:
 671 02ce 0FB6      		in r0,__SREG__
 672 02d0 0F92      		push r0
 673 02d2 1124      		clr __zero_reg__
 674 02d4 0BB6      		in r0,__RAMPZ__
 675 02d6 0F92      		push r0
 676 02d8 2F93      		push r18
 677               	.LCFI63:
 678 02da 3F93      		push r19
 679               	.LCFI64:
 680 02dc 4F93      		push r20
 681               	.LCFI65:
 682 02de 5F93      		push r21
 683               	.LCFI66:
 684 02e0 6F93      		push r22
 685               	.LCFI67:
 686 02e2 7F93      		push r23
 687               	.LCFI68:
 688 02e4 8F93      		push r24
 689               	.LCFI69:
 690 02e6 9F93      		push r25
 691               	.LCFI70:
 692 02e8 AF93      		push r26
 693               	.LCFI71:
 694 02ea BF93      		push r27
 695               	.LCFI72:
 696 02ec EF93      		push r30
 697               	.LCFI73:
 698 02ee FF93      		push r31
 699               	.LCFI74:
 700               	/* prologue: Signal */
 701               	/* frame size = 0 */
 702               	/* stack size = 16 */
 703               	.L__stack_usage = 16
 182:/home/anaz/Desktop/oldbb-ssh/build/src-bobby/hw-block/hwSerial.c **** 	uint8_t c;
 183:/home/anaz/Desktop/oldbb-ssh/build/src-bobby/hw-block/hwSerial.c **** 	
 184:/home/anaz/Desktop/oldbb-ssh/build/src-bobby/hw-block/hwSerial.c **** 	c = USARTF0.DATA;
 704               		.loc 1 184 0
 705 02f0 8091 A00B 		lds r24,2976
 706               	.LVL35:
 185:/home/anaz/Desktop/oldbb-ssh/build/src-bobby/hw-block/hwSerial.c **** 	//printf("R:%x",c);	
 186:/home/anaz/Desktop/oldbb-ssh/build/src-bobby/hw-block/hwSerial.c **** 	push(c, &(port[EAST].rx));
 707               		.loc 1 186 0
 708 02f4 60E0      		ldi r22,lo8(port+200)
 709 02f6 70E0      		ldi r23,hi8(port+200)
 710 02f8 0E94 0000 		call push
 711               	.LVL36:
 712               	/* epilogue start */
 187:/home/anaz/Desktop/oldbb-ssh/build/src-bobby/hw-block/hwSerial.c **** }
 713               		.loc 1 187 0
 714 02fc FF91      		pop r31
 715 02fe EF91      		pop r30
 716 0300 BF91      		pop r27
 717 0302 AF91      		pop r26
 718 0304 9F91      		pop r25
 719 0306 8F91      		pop r24
 720 0308 7F91      		pop r23
 721 030a 6F91      		pop r22
 722 030c 5F91      		pop r21
 723 030e 4F91      		pop r20
 724 0310 3F91      		pop r19
 725 0312 2F91      		pop r18
 726 0314 0F90      		pop r0
 727 0316 0BBE      		out __RAMPZ__,r0
 728 0318 0F90      		pop r0
 729 031a 0FBE      		out __SREG__,r0
 730 031c 0F90      		pop r0
 731 031e 1F90      		pop r1
 732 0320 1895      		reti
 733               	.LFE17:
 735               	.global	__vector_121
 737               	__vector_121:
 738               	.LFB18:
 188:/home/anaz/Desktop/oldbb-ssh/build/src-bobby/hw-block/hwSerial.c **** ISR(USARTF0_TXC_vect)
 189:/home/anaz/Desktop/oldbb-ssh/build/src-bobby/hw-block/hwSerial.c **** {
 739               		.loc 1 189 0
 740 0322 1F92      		push r1
 741               	.LCFI75:
 742 0324 0F92      		push r0
 743               	.LCFI76:
 744 0326 0FB6      		in r0,__SREG__
 745 0328 0F92      		push r0
 746 032a 1124      		clr __zero_reg__
 747 032c 0BB6      		in r0,__RAMPZ__
 748 032e 0F92      		push r0
 749 0330 2F93      		push r18
 750               	.LCFI77:
 751 0332 3F93      		push r19
 752               	.LCFI78:
 753 0334 4F93      		push r20
 754               	.LCFI79:
 755 0336 5F93      		push r21
 756               	.LCFI80:
 757 0338 6F93      		push r22
 758               	.LCFI81:
 759 033a 7F93      		push r23
 760               	.LCFI82:
 761 033c 8F93      		push r24
 762               	.LCFI83:
 763 033e 9F93      		push r25
 764               	.LCFI84:
 765 0340 AF93      		push r26
 766               	.LCFI85:
 767 0342 BF93      		push r27
 768               	.LCFI86:
 769 0344 EF93      		push r30
 770               	.LCFI87:
 771 0346 FF93      		push r31
 772               	.LCFI88:
 773               	/* prologue: Signal */
 774               	/* frame size = 0 */
 775               	/* stack size = 16 */
 776               	.L__stack_usage = 16
 190:/home/anaz/Desktop/oldbb-ssh/build/src-bobby/hw-block/hwSerial.c **** 	int16_t c;
 191:/home/anaz/Desktop/oldbb-ssh/build/src-bobby/hw-block/hwSerial.c **** 	
 192:/home/anaz/Desktop/oldbb-ssh/build/src-bobby/hw-block/hwSerial.c **** 	c  = pop(&(port[EAST].tx));
 777               		.loc 1 192 0
 778 0348 80E0      		ldi r24,lo8(port+232)
 779 034a 90E0      		ldi r25,hi8(port+232)
 780 034c 0E94 0000 		call pop
 781               	.LVL37:
 193:/home/anaz/Desktop/oldbb-ssh/build/src-bobby/hw-block/hwSerial.c **** 	
 194:/home/anaz/Desktop/oldbb-ssh/build/src-bobby/hw-block/hwSerial.c **** 	if(c != -1)
 782               		.loc 1 194 0
 783 0350 8F3F      		cpi r24,-1
 784 0352 2FEF      		ldi r18,-1
 785 0354 9207      		cpc r25,r18
 786 0356 01F0      		breq .L34
 195:/home/anaz/Desktop/oldbb-ssh/build/src-bobby/hw-block/hwSerial.c **** 	{
 196:/home/anaz/Desktop/oldbb-ssh/build/src-bobby/hw-block/hwSerial.c **** 		USARTF0.DATA = c;
 787               		.loc 1 196 0
 788 0358 8093 A00B 		sts 2976,r24
 789               	.L34:
 790               	/* epilogue start */
 197:/home/anaz/Desktop/oldbb-ssh/build/src-bobby/hw-block/hwSerial.c **** 	}
 198:/home/anaz/Desktop/oldbb-ssh/build/src-bobby/hw-block/hwSerial.c **** }
 791               		.loc 1 198 0
 792 035c FF91      		pop r31
 793 035e EF91      		pop r30
 794 0360 BF91      		pop r27
 795 0362 AF91      		pop r26
 796 0364 9F91      		pop r25
 797 0366 8F91      		pop r24
 798               	.LVL38:
 799 0368 7F91      		pop r23
 800 036a 6F91      		pop r22
 801 036c 5F91      		pop r21
 802 036e 4F91      		pop r20
 803 0370 3F91      		pop r19
 804 0372 2F91      		pop r18
 805 0374 0F90      		pop r0
 806 0376 0BBE      		out __RAMPZ__,r0
 807 0378 0F90      		pop r0
 808 037a 0FBE      		out __SREG__,r0
 809 037c 0F90      		pop r0
 810 037e 1F90      		pop r1
 811 0380 1895      		reti
 812               	.LFE18:
 814               	.global	__vector_58
 816               	__vector_58:
 817               	.LFB19:
 199:/home/anaz/Desktop/oldbb-ssh/build/src-bobby/hw-block/hwSerial.c **** 
 200:/home/anaz/Desktop/oldbb-ssh/build/src-bobby/hw-block/hwSerial.c **** ISR(USARTE0_RXC_vect)
 201:/home/anaz/Desktop/oldbb-ssh/build/src-bobby/hw-block/hwSerial.c **** {
 818               		.loc 1 201 0
 819 0382 1F92      		push r1
 820               	.LCFI89:
 821 0384 0F92      		push r0
 822               	.LCFI90:
 823 0386 0FB6      		in r0,__SREG__
 824 0388 0F92      		push r0
 825 038a 1124      		clr __zero_reg__
 826 038c 0BB6      		in r0,__RAMPZ__
 827 038e 0F92      		push r0
 828 0390 2F93      		push r18
 829               	.LCFI91:
 830 0392 3F93      		push r19
 831               	.LCFI92:
 832 0394 4F93      		push r20
 833               	.LCFI93:
 834 0396 5F93      		push r21
 835               	.LCFI94:
 836 0398 6F93      		push r22
 837               	.LCFI95:
 838 039a 7F93      		push r23
 839               	.LCFI96:
 840 039c 8F93      		push r24
 841               	.LCFI97:
 842 039e 9F93      		push r25
 843               	.LCFI98:
 844 03a0 AF93      		push r26
 845               	.LCFI99:
 846 03a2 BF93      		push r27
 847               	.LCFI100:
 848 03a4 EF93      		push r30
 849               	.LCFI101:
 850 03a6 FF93      		push r31
 851               	.LCFI102:
 852               	/* prologue: Signal */
 853               	/* frame size = 0 */
 854               	/* stack size = 16 */
 855               	.L__stack_usage = 16
 202:/home/anaz/Desktop/oldbb-ssh/build/src-bobby/hw-block/hwSerial.c **** 	uint8_t c;
 203:/home/anaz/Desktop/oldbb-ssh/build/src-bobby/hw-block/hwSerial.c **** 	
 204:/home/anaz/Desktop/oldbb-ssh/build/src-bobby/hw-block/hwSerial.c **** 	c = USARTE0.DATA;
 856               		.loc 1 204 0
 857 03a8 8091 A00A 		lds r24,2720
 858               	.LVL39:
 205:/home/anaz/Desktop/oldbb-ssh/build/src-bobby/hw-block/hwSerial.c **** 	//printf("R:%x",c);	
 206:/home/anaz/Desktop/oldbb-ssh/build/src-bobby/hw-block/hwSerial.c **** 	push(c, &(port[SOUTH].rx));
 859               		.loc 1 206 0
 860 03ac 60E0      		ldi r22,lo8(port+376)
 861 03ae 70E0      		ldi r23,hi8(port+376)
 862 03b0 0E94 0000 		call push
 863               	.LVL40:
 864               	/* epilogue start */
 207:/home/anaz/Desktop/oldbb-ssh/build/src-bobby/hw-block/hwSerial.c **** }
 865               		.loc 1 207 0
 866 03b4 FF91      		pop r31
 867 03b6 EF91      		pop r30
 868 03b8 BF91      		pop r27
 869 03ba AF91      		pop r26
 870 03bc 9F91      		pop r25
 871 03be 8F91      		pop r24
 872 03c0 7F91      		pop r23
 873 03c2 6F91      		pop r22
 874 03c4 5F91      		pop r21
 875 03c6 4F91      		pop r20
 876 03c8 3F91      		pop r19
 877 03ca 2F91      		pop r18
 878 03cc 0F90      		pop r0
 879 03ce 0BBE      		out __RAMPZ__,r0
 880 03d0 0F90      		pop r0
 881 03d2 0FBE      		out __SREG__,r0
 882 03d4 0F90      		pop r0
 883 03d6 1F90      		pop r1
 884 03d8 1895      		reti
 885               	.LFE19:
 887               	.global	__vector_60
 889               	__vector_60:
 890               	.LFB20:
 208:/home/anaz/Desktop/oldbb-ssh/build/src-bobby/hw-block/hwSerial.c **** ISR(USARTE0_TXC_vect)
 209:/home/anaz/Desktop/oldbb-ssh/build/src-bobby/hw-block/hwSerial.c **** {
 891               		.loc 1 209 0
 892 03da 1F92      		push r1
 893               	.LCFI103:
 894 03dc 0F92      		push r0
 895               	.LCFI104:
 896 03de 0FB6      		in r0,__SREG__
 897 03e0 0F92      		push r0
 898 03e2 1124      		clr __zero_reg__
 899 03e4 0BB6      		in r0,__RAMPZ__
 900 03e6 0F92      		push r0
 901 03e8 2F93      		push r18
 902               	.LCFI105:
 903 03ea 3F93      		push r19
 904               	.LCFI106:
 905 03ec 4F93      		push r20
 906               	.LCFI107:
 907 03ee 5F93      		push r21
 908               	.LCFI108:
 909 03f0 6F93      		push r22
 910               	.LCFI109:
 911 03f2 7F93      		push r23
 912               	.LCFI110:
 913 03f4 8F93      		push r24
 914               	.LCFI111:
 915 03f6 9F93      		push r25
 916               	.LCFI112:
 917 03f8 AF93      		push r26
 918               	.LCFI113:
 919 03fa BF93      		push r27
 920               	.LCFI114:
 921 03fc EF93      		push r30
 922               	.LCFI115:
 923 03fe FF93      		push r31
 924               	.LCFI116:
 925               	/* prologue: Signal */
 926               	/* frame size = 0 */
 927               	/* stack size = 16 */
 928               	.L__stack_usage = 16
 210:/home/anaz/Desktop/oldbb-ssh/build/src-bobby/hw-block/hwSerial.c **** 	int16_t c;
 211:/home/anaz/Desktop/oldbb-ssh/build/src-bobby/hw-block/hwSerial.c **** 	
 212:/home/anaz/Desktop/oldbb-ssh/build/src-bobby/hw-block/hwSerial.c **** 	c  = pop(&(port[SOUTH].tx));
 929               		.loc 1 212 0
 930 0400 80E0      		ldi r24,lo8(port+408)
 931 0402 90E0      		ldi r25,hi8(port+408)
 932 0404 0E94 0000 		call pop
 933               	.LVL41:
 213:/home/anaz/Desktop/oldbb-ssh/build/src-bobby/hw-block/hwSerial.c **** 	
 214:/home/anaz/Desktop/oldbb-ssh/build/src-bobby/hw-block/hwSerial.c **** 	if(c != -1)
 934               		.loc 1 214 0
 935 0408 8F3F      		cpi r24,-1
 936 040a 2FEF      		ldi r18,-1
 937 040c 9207      		cpc r25,r18
 938 040e 01F0      		breq .L40
 215:/home/anaz/Desktop/oldbb-ssh/build/src-bobby/hw-block/hwSerial.c **** 	{
 216:/home/anaz/Desktop/oldbb-ssh/build/src-bobby/hw-block/hwSerial.c **** 		USARTE0.DATA = c;
 939               		.loc 1 216 0
 940 0410 8093 A00A 		sts 2720,r24
 941               	.L40:
 942               	/* epilogue start */
 217:/home/anaz/Desktop/oldbb-ssh/build/src-bobby/hw-block/hwSerial.c **** 	}
 218:/home/anaz/Desktop/oldbb-ssh/build/src-bobby/hw-block/hwSerial.c **** }
 943               		.loc 1 218 0
 944 0414 FF91      		pop r31
 945 0416 EF91      		pop r30
 946 0418 BF91      		pop r27
 947 041a AF91      		pop r26
 948 041c 9F91      		pop r25
 949 041e 8F91      		pop r24
 950               	.LVL42:
 951 0420 7F91      		pop r23
 952 0422 6F91      		pop r22
 953 0424 5F91      		pop r21
 954 0426 4F91      		pop r20
 955 0428 3F91      		pop r19
 956 042a 2F91      		pop r18
 957 042c 0F90      		pop r0
 958 042e 0BBE      		out __RAMPZ__,r0
 959 0430 0F90      		pop r0
 960 0432 0FBE      		out __SREG__,r0
 961 0434 0F90      		pop r0
 962 0436 1F90      		pop r1
 963 0438 1895      		reti
 964               	.LFE20:
 966               	.global	__vector_25
 968               	__vector_25:
 969               	.LFB21:
 219:/home/anaz/Desktop/oldbb-ssh/build/src-bobby/hw-block/hwSerial.c **** 
 220:/home/anaz/Desktop/oldbb-ssh/build/src-bobby/hw-block/hwSerial.c **** ISR(USARTC0_RXC_vect)
 221:/home/anaz/Desktop/oldbb-ssh/build/src-bobby/hw-block/hwSerial.c **** {
 970               		.loc 1 221 0
 971 043a 1F92      		push r1
 972               	.LCFI117:
 973 043c 0F92      		push r0
 974               	.LCFI118:
 975 043e 0FB6      		in r0,__SREG__
 976 0440 0F92      		push r0
 977 0442 1124      		clr __zero_reg__
 978 0444 0BB6      		in r0,__RAMPZ__
 979 0446 0F92      		push r0
 980 0448 2F93      		push r18
 981               	.LCFI119:
 982 044a 3F93      		push r19
 983               	.LCFI120:
 984 044c 4F93      		push r20
 985               	.LCFI121:
 986 044e 5F93      		push r21
 987               	.LCFI122:
 988 0450 6F93      		push r22
 989               	.LCFI123:
 990 0452 7F93      		push r23
 991               	.LCFI124:
 992 0454 8F93      		push r24
 993               	.LCFI125:
 994 0456 9F93      		push r25
 995               	.LCFI126:
 996 0458 AF93      		push r26
 997               	.LCFI127:
 998 045a BF93      		push r27
 999               	.LCFI128:
 1000 045c EF93      		push r30
 1001               	.LCFI129:
 1002 045e FF93      		push r31
 1003               	.LCFI130:
 1004               	/* prologue: Signal */
 1005               	/* frame size = 0 */
 1006               	/* stack size = 16 */
 1007               	.L__stack_usage = 16
 222:/home/anaz/Desktop/oldbb-ssh/build/src-bobby/hw-block/hwSerial.c **** 	uint8_t c;
 223:/home/anaz/Desktop/oldbb-ssh/build/src-bobby/hw-block/hwSerial.c **** 	
 224:/home/anaz/Desktop/oldbb-ssh/build/src-bobby/hw-block/hwSerial.c **** 	c = USARTC0.DATA;
 1008               		.loc 1 224 0
 1009 0460 8091 A008 		lds r24,2208
 1010               	.LVL43:
 225:/home/anaz/Desktop/oldbb-ssh/build/src-bobby/hw-block/hwSerial.c **** 	//printf("R:%x",c);	
 226:/home/anaz/Desktop/oldbb-ssh/build/src-bobby/hw-block/hwSerial.c **** 	push(c, &(port[WEST].rx));
 1011               		.loc 1 226 0
 1012 0464 60E0      		ldi r22,lo8(port+288)
 1013 0466 70E0      		ldi r23,hi8(port+288)
 1014 0468 0E94 0000 		call push
 1015               	.LVL44:
 1016               	/* epilogue start */
 227:/home/anaz/Desktop/oldbb-ssh/build/src-bobby/hw-block/hwSerial.c **** }
 1017               		.loc 1 227 0
 1018 046c FF91      		pop r31
 1019 046e EF91      		pop r30
 1020 0470 BF91      		pop r27
 1021 0472 AF91      		pop r26
 1022 0474 9F91      		pop r25
 1023 0476 8F91      		pop r24
 1024 0478 7F91      		pop r23
 1025 047a 6F91      		pop r22
 1026 047c 5F91      		pop r21
 1027 047e 4F91      		pop r20
 1028 0480 3F91      		pop r19
 1029 0482 2F91      		pop r18
 1030 0484 0F90      		pop r0
 1031 0486 0BBE      		out __RAMPZ__,r0
 1032 0488 0F90      		pop r0
 1033 048a 0FBE      		out __SREG__,r0
 1034 048c 0F90      		pop r0
 1035 048e 1F90      		pop r1
 1036 0490 1895      		reti
 1037               	.LFE21:
 1039               	.global	__vector_27
 1041               	__vector_27:
 1042               	.LFB22:
 228:/home/anaz/Desktop/oldbb-ssh/build/src-bobby/hw-block/hwSerial.c **** ISR(USARTC0_TXC_vect)
 229:/home/anaz/Desktop/oldbb-ssh/build/src-bobby/hw-block/hwSerial.c **** {
 1043               		.loc 1 229 0
 1044 0492 1F92      		push r1
 1045               	.LCFI131:
 1046 0494 0F92      		push r0
 1047               	.LCFI132:
 1048 0496 0FB6      		in r0,__SREG__
 1049 0498 0F92      		push r0
 1050 049a 1124      		clr __zero_reg__
 1051 049c 0BB6      		in r0,__RAMPZ__
 1052 049e 0F92      		push r0
 1053 04a0 2F93      		push r18
 1054               	.LCFI133:
 1055 04a2 3F93      		push r19
 1056               	.LCFI134:
 1057 04a4 4F93      		push r20
 1058               	.LCFI135:
 1059 04a6 5F93      		push r21
 1060               	.LCFI136:
 1061 04a8 6F93      		push r22
 1062               	.LCFI137:
 1063 04aa 7F93      		push r23
 1064               	.LCFI138:
 1065 04ac 8F93      		push r24
 1066               	.LCFI139:
 1067 04ae 9F93      		push r25
 1068               	.LCFI140:
 1069 04b0 AF93      		push r26
 1070               	.LCFI141:
 1071 04b2 BF93      		push r27
 1072               	.LCFI142:
 1073 04b4 EF93      		push r30
 1074               	.LCFI143:
 1075 04b6 FF93      		push r31
 1076               	.LCFI144:
 1077               	/* prologue: Signal */
 1078               	/* frame size = 0 */
 1079               	/* stack size = 16 */
 1080               	.L__stack_usage = 16
 230:/home/anaz/Desktop/oldbb-ssh/build/src-bobby/hw-block/hwSerial.c **** 	int16_t c;
 231:/home/anaz/Desktop/oldbb-ssh/build/src-bobby/hw-block/hwSerial.c **** 	
 232:/home/anaz/Desktop/oldbb-ssh/build/src-bobby/hw-block/hwSerial.c **** 	c  = pop(&(port[WEST].tx));
 1081               		.loc 1 232 0
 1082 04b8 80E0      		ldi r24,lo8(port+320)
 1083 04ba 90E0      		ldi r25,hi8(port+320)
 1084 04bc 0E94 0000 		call pop
 1085               	.LVL45:
 233:/home/anaz/Desktop/oldbb-ssh/build/src-bobby/hw-block/hwSerial.c **** 	
 234:/home/anaz/Desktop/oldbb-ssh/build/src-bobby/hw-block/hwSerial.c **** 	if(c != -1)
 1086               		.loc 1 234 0
 1087 04c0 8F3F      		cpi r24,-1
 1088 04c2 2FEF      		ldi r18,-1
 1089 04c4 9207      		cpc r25,r18
 1090 04c6 01F0      		breq .L46
 235:/home/anaz/Desktop/oldbb-ssh/build/src-bobby/hw-block/hwSerial.c **** 	{
 236:/home/anaz/Desktop/oldbb-ssh/build/src-bobby/hw-block/hwSerial.c **** 		USARTC0.DATA = c;
 1091               		.loc 1 236 0
 1092 04c8 8093 A008 		sts 2208,r24
 1093               	.L46:
 1094               	/* epilogue start */
 237:/home/anaz/Desktop/oldbb-ssh/build/src-bobby/hw-block/hwSerial.c **** 	}
 238:/home/anaz/Desktop/oldbb-ssh/build/src-bobby/hw-block/hwSerial.c **** }
 1095               		.loc 1 238 0
 1096 04cc FF91      		pop r31
 1097 04ce EF91      		pop r30
 1098 04d0 BF91      		pop r27
 1099 04d2 AF91      		pop r26
 1100 04d4 9F91      		pop r25
 1101 04d6 8F91      		pop r24
 1102               	.LVL46:
 1103 04d8 7F91      		pop r23
 1104 04da 6F91      		pop r22
 1105 04dc 5F91      		pop r21
 1106 04de 4F91      		pop r20
 1107 04e0 3F91      		pop r19
 1108 04e2 2F91      		pop r18
 1109 04e4 0F90      		pop r0
 1110 04e6 0BBE      		out __RAMPZ__,r0
 1111 04e8 0F90      		pop r0
 1112 04ea 0FBE      		out __SREG__,r0
 1113 04ec 0F90      		pop r0
 1114 04ee 1F90      		pop r1
 1115 04f0 1895      		reti
 1116               	.LFE22:
 1118               	.global	__vector_88
 1120               	__vector_88:
 1121               	.LFB23:
 239:/home/anaz/Desktop/oldbb-ssh/build/src-bobby/hw-block/hwSerial.c **** 
 240:/home/anaz/Desktop/oldbb-ssh/build/src-bobby/hw-block/hwSerial.c **** ISR(USARTD0_RXC_vect)
 241:/home/anaz/Desktop/oldbb-ssh/build/src-bobby/hw-block/hwSerial.c **** {
 1122               		.loc 1 241 0
 1123 04f2 1F92      		push r1
 1124               	.LCFI145:
 1125 04f4 0F92      		push r0
 1126               	.LCFI146:
 1127 04f6 0FB6      		in r0,__SREG__
 1128 04f8 0F92      		push r0
 1129 04fa 1124      		clr __zero_reg__
 1130 04fc 0BB6      		in r0,__RAMPZ__
 1131 04fe 0F92      		push r0
 1132 0500 2F93      		push r18
 1133               	.LCFI147:
 1134 0502 3F93      		push r19
 1135               	.LCFI148:
 1136 0504 4F93      		push r20
 1137               	.LCFI149:
 1138 0506 5F93      		push r21
 1139               	.LCFI150:
 1140 0508 6F93      		push r22
 1141               	.LCFI151:
 1142 050a 7F93      		push r23
 1143               	.LCFI152:
 1144 050c 8F93      		push r24
 1145               	.LCFI153:
 1146 050e 9F93      		push r25
 1147               	.LCFI154:
 1148 0510 AF93      		push r26
 1149               	.LCFI155:
 1150 0512 BF93      		push r27
 1151               	.LCFI156:
 1152 0514 EF93      		push r30
 1153               	.LCFI157:
 1154 0516 FF93      		push r31
 1155               	.LCFI158:
 1156               	/* prologue: Signal */
 1157               	/* frame size = 0 */
 1158               	/* stack size = 16 */
 1159               	.L__stack_usage = 16
 242:/home/anaz/Desktop/oldbb-ssh/build/src-bobby/hw-block/hwSerial.c **** 	uint8_t c;
 243:/home/anaz/Desktop/oldbb-ssh/build/src-bobby/hw-block/hwSerial.c **** 	
 244:/home/anaz/Desktop/oldbb-ssh/build/src-bobby/hw-block/hwSerial.c **** 	c = USARTD0.DATA;
 1160               		.loc 1 244 0
 1161 0518 8091 A009 		lds r24,2464
 1162               	.LVL47:
 245:/home/anaz/Desktop/oldbb-ssh/build/src-bobby/hw-block/hwSerial.c **** 	//printf("R:%x",c);
 246:/home/anaz/Desktop/oldbb-ssh/build/src-bobby/hw-block/hwSerial.c **** 	push(c, &(port[DOWN].rx));
 1163               		.loc 1 246 0
 1164 051c 60E0      		ldi r22,lo8(port+24)
 1165 051e 70E0      		ldi r23,hi8(port+24)
 1166 0520 0E94 0000 		call push
 1167               	.LVL48:
 1168               	/* epilogue start */
 247:/home/anaz/Desktop/oldbb-ssh/build/src-bobby/hw-block/hwSerial.c **** }
 1169               		.loc 1 247 0
 1170 0524 FF91      		pop r31
 1171 0526 EF91      		pop r30
 1172 0528 BF91      		pop r27
 1173 052a AF91      		pop r26
 1174 052c 9F91      		pop r25
 1175 052e 8F91      		pop r24
 1176 0530 7F91      		pop r23
 1177 0532 6F91      		pop r22
 1178 0534 5F91      		pop r21
 1179 0536 4F91      		pop r20
 1180 0538 3F91      		pop r19
 1181 053a 2F91      		pop r18
 1182 053c 0F90      		pop r0
 1183 053e 0BBE      		out __RAMPZ__,r0
 1184 0540 0F90      		pop r0
 1185 0542 0FBE      		out __SREG__,r0
 1186 0544 0F90      		pop r0
 1187 0546 1F90      		pop r1
 1188 0548 1895      		reti
 1189               	.LFE23:
 1191               	.global	__vector_90
 1193               	__vector_90:
 1194               	.LFB24:
 248:/home/anaz/Desktop/oldbb-ssh/build/src-bobby/hw-block/hwSerial.c **** ISR(USARTD0_TXC_vect)
 249:/home/anaz/Desktop/oldbb-ssh/build/src-bobby/hw-block/hwSerial.c **** {
 1195               		.loc 1 249 0
 1196 054a 1F92      		push r1
 1197               	.LCFI159:
 1198 054c 0F92      		push r0
 1199               	.LCFI160:
 1200 054e 0FB6      		in r0,__SREG__
 1201 0550 0F92      		push r0
 1202 0552 1124      		clr __zero_reg__
 1203 0554 0BB6      		in r0,__RAMPZ__
 1204 0556 0F92      		push r0
 1205 0558 2F93      		push r18
 1206               	.LCFI161:
 1207 055a 3F93      		push r19
 1208               	.LCFI162:
 1209 055c 4F93      		push r20
 1210               	.LCFI163:
 1211 055e 5F93      		push r21
 1212               	.LCFI164:
 1213 0560 6F93      		push r22
 1214               	.LCFI165:
 1215 0562 7F93      		push r23
 1216               	.LCFI166:
 1217 0564 8F93      		push r24
 1218               	.LCFI167:
 1219 0566 9F93      		push r25
 1220               	.LCFI168:
 1221 0568 AF93      		push r26
 1222               	.LCFI169:
 1223 056a BF93      		push r27
 1224               	.LCFI170:
 1225 056c EF93      		push r30
 1226               	.LCFI171:
 1227 056e FF93      		push r31
 1228               	.LCFI172:
 1229               	/* prologue: Signal */
 1230               	/* frame size = 0 */
 1231               	/* stack size = 16 */
 1232               	.L__stack_usage = 16
 250:/home/anaz/Desktop/oldbb-ssh/build/src-bobby/hw-block/hwSerial.c **** 	int16_t c;
 251:/home/anaz/Desktop/oldbb-ssh/build/src-bobby/hw-block/hwSerial.c **** 	
 252:/home/anaz/Desktop/oldbb-ssh/build/src-bobby/hw-block/hwSerial.c **** 	c  = pop(&(port[DOWN].tx));
 1233               		.loc 1 252 0
 1234 0570 80E0      		ldi r24,lo8(port+56)
 1235 0572 90E0      		ldi r25,hi8(port+56)
 1236 0574 0E94 0000 		call pop
 1237               	.LVL49:
 253:/home/anaz/Desktop/oldbb-ssh/build/src-bobby/hw-block/hwSerial.c **** 	
 254:/home/anaz/Desktop/oldbb-ssh/build/src-bobby/hw-block/hwSerial.c **** 	if(c != -1)
 1238               		.loc 1 254 0
 1239 0578 8F3F      		cpi r24,-1
 1240 057a 2FEF      		ldi r18,-1
 1241 057c 9207      		cpc r25,r18
 1242 057e 01F0      		breq .L52
 255:/home/anaz/Desktop/oldbb-ssh/build/src-bobby/hw-block/hwSerial.c **** 	{
 256:/home/anaz/Desktop/oldbb-ssh/build/src-bobby/hw-block/hwSerial.c **** 		USARTD0.DATA = c;
 1243               		.loc 1 256 0
 1244 0580 8093 A009 		sts 2464,r24
 1245               	.L52:
 1246               	/* epilogue start */
 257:/home/anaz/Desktop/oldbb-ssh/build/src-bobby/hw-block/hwSerial.c **** 	}
 258:/home/anaz/Desktop/oldbb-ssh/build/src-bobby/hw-block/hwSerial.c **** }
 1247               		.loc 1 258 0
 1248 0584 FF91      		pop r31
 1249 0586 EF91      		pop r30
 1250 0588 BF91      		pop r27
 1251 058a AF91      		pop r26
 1252 058c 9F91      		pop r25
 1253 058e 8F91      		pop r24
 1254               	.LVL50:
 1255 0590 7F91      		pop r23
 1256 0592 6F91      		pop r22
 1257 0594 5F91      		pop r21
 1258 0596 4F91      		pop r20
 1259 0598 3F91      		pop r19
 1260 059a 2F91      		pop r18
 1261 059c 0F90      		pop r0
 1262 059e 0BBE      		out __RAMPZ__,r0
 1263 05a0 0F90      		pop r0
 1264 05a2 0FBE      		out __SREG__,r0
 1265 05a4 0F90      		pop r0
 1266 05a6 1F90      		pop r1
 1267 05a8 1895      		reti
 1268               	.LFE24:
 1270               		.comm	hwPort,18,1
 2479               	.Letext0:
 2480               		.file 2 "/usr/lib/gcc/avr/4.7.2/../../../avr/include/stdint.h"
 2481               		.file 3 "/usr/lib/gcc/avr/4.7.2/../../../avr/include/avr/iox256a3.h"
 2482               		.file 4 "/home/anaz/Desktop/oldbb-ssh/build/src-bobby/system/defs.bbh"
 2483               		.file 5 "/home/anaz/Desktop/oldbb-ssh/build/src-bobby/system/circ_buffer.bbh"
 2484               		.file 6 "/home/anaz/Desktop/oldbb-ssh/build/src-bobby/system/handler.bbh"
 2485               		.file 7 "/home/anaz/Desktop/oldbb-ssh/build/src-bobby/system/memory.bbh"
 2486               		.file 8 "/home/anaz/Desktop/oldbb-ssh/build/src-bobby/system/hardwaretime.bbh"
 2487               		.file 9 "/home/anaz/Desktop/oldbb-ssh/build/src-bobby/system/queues.bbh"
 2488               		.file 10 "/home/anaz/Desktop/oldbb-ssh/build/src-bobby/system/serial.bbh"
DEFINED SYMBOLS
                            *ABS*:0000000000000000 hwSerial.c
     /tmp/ccMHFBXe.s:2      *ABS*:000000000000003e __SP_H__
     /tmp/ccMHFBXe.s:3      *ABS*:000000000000003d __SP_L__
     /tmp/ccMHFBXe.s:4      *ABS*:000000000000003f __SREG__
     /tmp/ccMHFBXe.s:5      *ABS*:000000000000003b __RAMPZ__
     /tmp/ccMHFBXe.s:6      *ABS*:0000000000000034 __CCP__
     /tmp/ccMHFBXe.s:7      *ABS*:0000000000000000 __tmp_reg__
     /tmp/ccMHFBXe.s:8      *ABS*:0000000000000001 __zero_reg__
     /tmp/ccMHFBXe.s:13     .text:0000000000000000 u_putchar
     /tmp/ccMHFBXe.s:35     .text:000000000000000c u_getchar
     /tmp/ccMHFBXe.s:65     .text:0000000000000022 pPutChar
                            *COM*:0000000000000012 hwPort
     /tmp/ccMHFBXe.s:100    .text:0000000000000046 pGetChar
     /tmp/ccMHFBXe.s:154    .text:000000000000007a initHWUart
     /tmp/ccMHFBXe.s:183    .text:0000000000000090 initializeHWPort
     /tmp/ccMHFBXe.s:212    .text:00000000000000a6 initHWPorts
     /tmp/ccMHFBXe.s:360    .text:000000000000015a __vector_91
     /tmp/ccMHFBXe.s:433    .text:00000000000001b2 __vector_93
     /tmp/ccMHFBXe.s:512    .text:0000000000000212 __vector_28
     /tmp/ccMHFBXe.s:585    .text:000000000000026a __vector_30
     /tmp/ccMHFBXe.s:664    .text:00000000000002ca __vector_119
     /tmp/ccMHFBXe.s:737    .text:0000000000000322 __vector_121
     /tmp/ccMHFBXe.s:816    .text:0000000000000382 __vector_58
     /tmp/ccMHFBXe.s:889    .text:00000000000003da __vector_60
     /tmp/ccMHFBXe.s:968    .text:000000000000043a __vector_25
     /tmp/ccMHFBXe.s:1041   .text:0000000000000492 __vector_27
     /tmp/ccMHFBXe.s:1120   .text:00000000000004f2 __vector_88
     /tmp/ccMHFBXe.s:1193   .text:000000000000054a __vector_90

UNDEFINED SYMBOLS
port
push
pop
__do_clear_bss
